BL51 BANKED LINKER/LOCATER V6.22                                                        12/26/2017  13:52:03  PAGE 1


BL51 BANKED LINKER/LOCATER V6.22, INVOKED BY:
C:\KEIL_V5\C51\BIN\BL51.EXE .\Objects\STARTUP.obj, .\Objects\InitROM.obj, .\Objects\Main.obj, .\Objects\data.obj, .\Obje
>> cts\led.obj, .\Objects\touch.obj, .\Objects\timer.obj TO .\Objects\OB39A08T1 PRINT (.\Listings\OB39A08T1.m51) RAMSIZE
>>  (256)


MEMORY MODEL: SMALL


INPUT MODULES INCLUDED:
  .\Objects\STARTUP.obj (?C_STARTUP)
  .\Objects\InitROM.obj (INITROM)
  .\Objects\Main.obj (MAIN)
  .\Objects\data.obj (DATA)
  .\Objects\led.obj (LED)
  .\Objects\touch.obj (TOUCH)
  .\Objects\timer.obj (TIMER)
  C:\KEIL_V5\C51\LIB\C51S.LIB (?C_INIT)


LINK MAP OF MODULE:  .\Objects\OB39A08T1 (?C_STARTUP)


            TYPE    BASE      LENGTH    RELOCATION   SEGMENT NAME
            -----------------------------------------------------

            * * * * * * *   D A T A   M E M O R Y   * * * * * * *
            REG     0000H     0008H     ABSOLUTE     "REG BANK 0"
            REG     0008H     0008H     ABSOLUTE     "REG BANK 1"
            REG     0010H     0008H     ABSOLUTE     "REG BANK 2"
            REG     0018H     0008H     ABSOLUTE     "REG BANK 3"
            DATA    0020H     0008H     UNIT         ?DT?TOUCH
            DATA    0028H     0005H     UNIT         ?DT?LED
            DATA    002DH     0004H     UNIT         ?DT?DATA
            DATA    0031H     0004H     UNIT         ?DT?TIMER
            DATA    0035H     0002H     UNIT         _DATA_GROUP_
            IDATA   0037H     0001H     UNIT         ?STACK

            * * * * * * *   C O D E   M E M O R Y   * * * * * * *
            CODE    0000H     0003H     ABSOLUTE     
            CODE    0003H     0003H     ABSOLUTE     
            CODE    0006H     0004H     UNIT         ?PR?GLOBAL_DATA_INIT?MAIN
                    000AH     0001H                  *** GAP ***
            CODE    000BH     0003H     ABSOLUTE     
            CODE    000EH     003BH     UNIT         ?PR?INT0_ISR?MAIN
            CODE    0049H     001BH     UNIT         ?PR?IIC_ISR?MAIN
                    0064H     0007H                  *** GAP ***
            CODE    006BH     0003H     ABSOLUTE     
            CODE    006EH     001BH     UNIT         ?PR?WDT_ISR?MAIN
                    0089H     0002H                  *** GAP ***
            CODE    008BH     0003H     ABSOLUTE     
            CODE    008EH     000DH     UNIT         ?PR?TIMER0_INITIALIZE?TIMER
            CODE    009BH     0003H     ABSOLUTE     
            CODE    009EH     00A0H     UNIT         ?PR?SCAN_TOUCHPAD?TOUCH
            CODE    013EH     008CH     UNIT         ?C_C51STARTUP
            CODE    01CAH     0075H     UNIT         ?PR?LEDBLINK?LED
            CODE    023FH     0074H     UNIT         ?PR?TIMER0_ISR?TIMER
            CODE    02B3H     0039H     UNIT         ?PR?_LED_CONTROL?LED
BL51 BANKED LINKER/LOCATER V6.22                                                      12/26/2017  13:52:03  PAGE 2


            CODE    02ECH     0032H     UNIT         ?PR?MAIN?MAIN
            CODE    031EH     001BH     UNIT         ?PR?TOUCH_ISR?MAIN
            CODE    0339H     001AH     UNIT         ?C_INITSEG
            CODE    0353H     0012H     UNIT         ?PR?_LED_BLINK_DELAY?LED
            CODE    0365H     000FH     UNIT         ?PR?LED_PIN_CONFIG?LED
            CODE    0374H     0008H     UNIT         ?PR?START_TIMER0?TIMER
                    037CH     1B84H                  *** GAP ***
            CODE    1F00H     0030H     ABSOLUTE     
                    1F30H     0058H                  *** GAP ***
            CODE    1F88H     0001H     ABSOLUTE     
            CODE    1F89H     0001H     ABSOLUTE     
            CODE    1F8AH     0001H     ABSOLUTE     
            CODE    1F8BH     0001H     ABSOLUTE     
            CODE    1F8CH     0001H     ABSOLUTE     
            CODE    1F8DH     0001H     ABSOLUTE     
            CODE    1F8EH     0002H     ABSOLUTE     
            CODE    1F90H     0018H     ABSOLUTE     
                    1FA8H     0008H                  *** GAP ***
            CODE    1FB0H     0018H     ABSOLUTE     
                    1FC8H     0008H                  *** GAP ***
            CODE    1FD0H     0018H     ABSOLUTE     



OVERLAY MAP OF MODULE:   .\Objects\OB39A08T1 (?C_STARTUP)


SEGMENT                               DATA_GROUP 
  +--> CALLED SEGMENT               START    LENGTH
---------------------------------------------------
?C_C51STARTUP                       -----    -----
  +--> ?PR?MAIN?MAIN
  +--> ?C_INITSEG

?PR?MAIN?MAIN                       0035H    0001H
  +--> ?PR?GLOBAL_DATA_INIT?MAIN
  +--> ?PR?LED_PIN_CONFIG?LED
  +--> ?PR?START_TIMER0?TIMER
  +--> ?PR?SCAN_TOUCHPAD?TOUCH
  +--> ?PR?LEDBLINK?LED

?PR?START_TIMER0?TIMER              -----    -----
  +--> ?PR?TIMER0_INITIALIZE?TIMER

?PR?SCAN_TOUCHPAD?TOUCH             0036H    0001H

?PR?LEDBLINK?LED                    -----    -----
  +--> ?PR?_LED_CONTROL?LED



SYMBOL TABLE OF MODULE:  .\Objects\OB39A08T1 (?C_STARTUP)

  VALUE           TYPE          NAME
  ----------------------------------

  -------         MODULE        ?C_STARTUP
BL51 BANKED LINKER/LOCATER V6.22                                                      12/26/2017  13:52:03  PAGE 3


  C:013EH         SEGMENT       ?C_C51STARTUP
  I:0037H         SEGMENT       ?STACK
  C:0000H         PUBLIC        ?C_STARTUP
  D:00E0H         SYMBOL        ACC
  D:00F0H         SYMBOL        B
  D:0083H         SYMBOL        DPH
  D:0082H         SYMBOL        DPL
  N:0000H         SYMBOL        IBPSTACK
  N:0100H         SYMBOL        IBPSTACKTOP
  N:0080H         SYMBOL        IDATALEN
  C:0141H         SYMBOL        IDATALOOP
  N:0000H         SYMBOL        PBPSTACK
  N:0100H         SYMBOL        PBPSTACKTOP
  N:0000H         SYMBOL        PDATALEN
  N:0000H         SYMBOL        PDATASTART
  N:0000H         SYMBOL        PPAGE
  N:0000H         SYMBOL        PPAGEENABLE
  D:00A0H         SYMBOL        PPAGE_SFR
  D:0081H         SYMBOL        SP
  C:013EH         SYMBOL        STARTUP1
  N:0000H         SYMBOL        XBPSTACK
  N:0000H         SYMBOL        XBPSTACKTOP
  N:0000H         SYMBOL        XDATALEN
  N:0000H         SYMBOL        XDATASTART
  C:0000H         LINE#         126
  C:013EH         LINE#         133
  C:0140H         LINE#         134
  C:0141H         LINE#         135
  C:0142H         LINE#         136
  C:0144H         LINE#         185
  C:0147H         LINE#         196
  -------         ENDMOD        ?C_STARTUP

  -------         MODULE        INITROM
  C:1F90H         PUBLIC        CO_DEBOUNCE
  C:1F8EH         PUBLIC        CO_MARK
  C:1F8DH         PUBLIC        CO_MODE
  C:1F00H         PUBLIC        CO_OFFSET
  C:1FB0H         PUBLIC        CO_RELEASE
  C:1FD0H         PUBLIC        CO_SENSITIVITY
  C:1F8BH         PUBLIC        CO_TKC1
  C:1F8CH         PUBLIC        CO_TKC2
  C:1F88H         PUBLIC        CO_TKEN0
  C:1F89H         PUBLIC        CO_TKEN1
  C:1F8AH         PUBLIC        CO_TKEN2
  C:1F80H         PUBLIC        _TOUCH_INITROM
  -------         ENDMOD        INITROM

  -------         MODULE        MAIN
  C:0000H         SYMBOL        _ICE_DUMMY_
  D:0080H         PUBLIC        P0
  D:0090H         PUBLIC        P1
  D:00A0H         PUBLIC        P2
  D:00B0H         PUBLIC        P3
  D:00A8H         PUBLIC        IEN0
  D:00B8H         PUBLIC        IEN1
  C:0049H         PUBLIC        IIC_ISR
BL51 BANKED LINKER/LOCATER V6.22                                                      12/26/2017  13:52:03  PAGE 4


  C:02ECH         PUBLIC        main
  C:0006H         PUBLIC        Global_Data_Init
  D:00F8H         PUBLIC        IICS
  D:0088H         PUBLIC        TCON
  C:006EH         PUBLIC        WDT_ISR
  C:031EH         PUBLIC        TOUCH_ISR
  D:0098H         PUBLIC        S0CON
  D:00E6H         PUBLIC        LVC
  C:000EH         PUBLIC        INT0_ISR
  D:00C0H         PUBLIC        IRCON
  -------         PROC          IIC_ISR
  C:0049H         LINE#         29
  C:0056H         LINE#         31
  C:0059H         LINE#         32
  -------         ENDPROC       IIC_ISR
  -------         PROC          WDT_ISR
  C:006EH         LINE#         34
  C:007BH         LINE#         36
  C:007EH         LINE#         37
  -------         ENDPROC       WDT_ISR
  -------         PROC          TOUCH_ISR
  C:031EH         LINE#         39
  C:032BH         LINE#         41
  C:032EH         LINE#         42
  -------         ENDPROC       TOUCH_ISR
  -------         PROC          INT0_ISR
  C:000EH         LINE#         44
  C:002BH         LINE#         46
  C:002EH         LINE#         47
  -------         ENDPROC       INT0_ISR
  -------         PROC          GLOBAL_DATA_INIT
  C:0006H         LINE#         49
  C:0006H         LINE#         50
  C:0006H         LINE#         51
  C:0009H         LINE#         52
  -------         ENDPROC       GLOBAL_DATA_INIT
  -------         PROC          MAIN
  -------         DO            
  D:0035H         SYMBOL        pinstatus
  -------         ENDDO         
  C:02ECH         LINE#         54
  C:02ECH         LINE#         55
  C:02ECH         LINE#         57
  C:02EFH         LINE#         59
  C:02F3H         LINE#         60
  C:02F6H         LINE#         61
  C:02F9H         LINE#         63
  C:02FCH         LINE#         65
  C:02FFH         LINE#         68
  C:0302H         LINE#         70
  C:0302H         LINE#         71
  C:0302H         LINE#         72
  C:0305H         LINE#         97
  C:0313H         LINE#         98
  C:0313H         LINE#         99
  C:0316H         LINE#         100
  C:0319H         LINE#         101
BL51 BANKED LINKER/LOCATER V6.22                                                      12/26/2017  13:52:03  PAGE 5


  C:031CH         LINE#         102
  C:031CH         LINE#         105
  -------         ENDPROC       MAIN
  -------         ENDMOD        MAIN

  -------         MODULE        DATA
  C:0000H         SYMBOL        _ICE_DUMMY_
  D:002DH         PUBLIC        g_10ms_flag
  D:002EH         PUBLIC        g_100ms_flag
  D:002FH         PUBLIC        g_2ms_flag
  D:0030H         PUBLIC        g_1000ms_flag
  -------         ENDMOD        DATA

  -------         MODULE        LED
  C:0000H         SYMBOL        _ICE_DUMMY_
  D:00D6H         PUBLIC        P2M0
  D:0080H         PUBLIC        P0
  D:00D7H         PUBLIC        P2M1
  D:0090H         PUBLIC        P1
  D:00A0H         PUBLIC        P2
  D:00B0H         PUBLIC        P3
  C:01CAH         PUBLIC        LedBlink
  D:00A8H         PUBLIC        IEN0
  D:00B8H         PUBLIC        IEN1
  B:00A0H.0       PUBLIC        P2_0
  B:00A0H.1       PUBLIC        P2_1
  B:00A0H.2       PUBLIC        P2_2
  B:00A0H.3       PUBLIC        P2_3
  C:0353H         SYMBOL        _led_blink_delay
  D:00F8H         PUBLIC        IICS
  D:0088H         PUBLIC        TCON
  D:0028H         PUBLIC        led_blink_info
  C:0365H         PUBLIC        Led_Pin_Config
  C:02B7H         PUBLIC        _Led_Control
  D:0098H         PUBLIC        S0CON
  D:00C0H         PUBLIC        IRCON
  -------         PROC          _LED_BLINK_DELAY
  D:0006H         SYMBOL        num
  -------         DO            
  D:0004H         SYMBOL        i
  -------         ENDDO         
  C:0353H         LINE#         10
  C:0353H         LINE#         11
  C:0353H         LINE#         12
  C:0356H         LINE#         13
  C:0364H         LINE#         14
  -------         ENDPROC       _LED_BLINK_DELAY
  -------         PROC          LED_PIN_CONFIG
  C:0365H         LINE#         16
  C:0365H         LINE#         17
  C:0365H         LINE#         18
  C:0368H         LINE#         20
  C:036BH         LINE#         22
  C:036DH         LINE#         23
  C:036FH         LINE#         24
  C:0371H         LINE#         25
  C:0373H         LINE#         28
BL51 BANKED LINKER/LOCATER V6.22                                                      12/26/2017  13:52:03  PAGE 6


  -------         ENDPROC       LED_PIN_CONFIG
  -------         PROC          LEDBLINK
  C:01CAH         LINE#         82
  C:01CAH         LINE#         83
  C:01CAH         LINE#         84
  C:01D0H         LINE#         85
  C:01D0H         LINE#         86
  C:01D5H         LINE#         87
  C:01D5H         LINE#         88
  C:01D7H         LINE#         92
  C:01D9H         LINE#         93
  C:01DEH         LINE#         94
  C:01DEH         LINE#         95
  C:01E0H         LINE#         99
  C:01E2H         LINE#         100
  C:01E7H         LINE#         101
  C:01E7H         LINE#         102
  C:01E9H         LINE#         107
  C:01EBH         LINE#         108
  C:01F1H         LINE#         109
  C:01F1H         LINE#         113
  C:01F3H         LINE#         114
  C:01F3H         LINE#         116
  C:01F3H         LINE#         118
  C:01F3H         LINE#         120
  C:01F6H         LINE#         121
  C:01FBH         LINE#         122
  C:01FDH         LINE#         124
  C:01FFH         LINE#         125
  C:0205H         LINE#         126
  C:0205H         LINE#         127
  C:0208H         LINE#         128
  C:0208H         LINE#         129
  C:020BH         LINE#         131
  C:020BH         LINE#         133
  C:0211H         LINE#         134
  C:0211H         LINE#         135
  C:0218H         LINE#         136
  C:0218H         LINE#         137
  C:021CH         LINE#         138
  C:021CH         LINE#         139
  C:0222H         LINE#         140
  C:0224H         LINE#         141
  C:0224H         LINE#         142
  C:0229H         LINE#         143
  C:0229H         LINE#         144
  C:022CH         LINE#         145
  C:0231H         LINE#         146
  C:0231H         LINE#         147
  C:0232H         LINE#         149
  C:0232H         LINE#         150
  C:0235H         LINE#         151
  C:0239H         LINE#         152
  C:023BH         LINE#         153
  C:023EH         LINE#         154
  C:023EH         LINE#         156
  C:023EH         LINE#         160
BL51 BANKED LINKER/LOCATER V6.22                                                      12/26/2017  13:52:03  PAGE 7


  -------         ENDPROC       LEDBLINK
  C:02B3H         SYMBOL        L?0034
  -------         PROC          L?0033
  -------         ENDPROC       L?0033
  C:02B3H         SYMBOL        L?0034
  -------         PROC          _LED_CONTROL
  D:0007H         SYMBOL        led
  D:0005H         SYMBOL        on_off
  C:02B7H         LINE#         162
  C:02B7H         LINE#         163
  C:02B7H         LINE#         164
  C:02BFH         LINE#         165
  C:02BFH         LINE#         167
  C:02BFH         LINE#         168
  C:02C5H         LINE#         169
  C:02C5H         LINE#         171
  C:02C5H         LINE#         172
  C:02D4H         LINE#         173
  C:02D4H         LINE#         174
  C:02D4H         LINE#         175
  C:02D9H         LINE#         176
  C:02DAH         LINE#         177
  C:02DAH         LINE#         178
  C:02DFH         LINE#         179
  C:02E0H         LINE#         180
  C:02E0H         LINE#         181
  C:02E5H         LINE#         182
  C:02E6H         LINE#         183
  C:02E6H         LINE#         184
  C:02EBH         LINE#         185
  C:02EBH         LINE#         186
  C:02EBH         LINE#         187
  C:02EBH         LINE#         188
  C:02EBH         LINE#         189
  -------         ENDPROC       _LED_CONTROL
  -------         ENDMOD        LED

  -------         MODULE        TOUCH
  C:0000H         SYMBOL        _ICE_DUMMY_
  D:0080H         PUBLIC        P0
  D:0090H         PUBLIC        P1
  D:00A0H         PUBLIC        P2
  D:00B0H         PUBLIC        P3
  C:009EH         PUBLIC        Scan_TouchPad
  D:00A8H         PUBLIC        IEN0
  D:00B8H         PUBLIC        IEN1
  D:00DCH         PUBLIC        STATUS0
  D:00DDH         PUBLIC        STATUS1
  D:00F8H         PUBLIC        IICS
  D:0088H         PUBLIC        TCON
  D:0022H         PUBLIC        key_info
  D:0098H         PUBLIC        S0CON
  D:00C0H         PUBLIC        IRCON
  -------         PROC          SCAN_TOUCHPAD
  -------         DO            
  D:0036H         SYMBOL        whichkey
  D:0006H         SYMBOL        temp_status0
BL51 BANKED LINKER/LOCATER V6.22                                                      12/26/2017  13:52:03  PAGE 8


  D:0007H         SYMBOL        temp_status1
  D:0020H         SYMBOL        last_status0
  D:0021H         SYMBOL        last_status1
  -------         ENDDO         
  C:009EH         LINE#         34
  C:009EH         LINE#         35
  C:009EH         LINE#         36
  C:00A1H         LINE#         37
  C:00A1H         LINE#         40
  C:00A3H         LINE#         41
  C:00A5H         LINE#         44
  C:00B1H         LINE#         45
  C:00B1H         LINE#         46
  C:00B4H         LINE#         47
  C:00B6H         LINE#         48
  C:00B8H         LINE#         49
  C:00B8H         LINE#         51
  C:00BBH         LINE#         52
  C:00BBH         LINE#         53
  C:00BFH         LINE#         54
  C:00BFH         LINE#         55
  C:00C2H         LINE#         56
  C:00C7H         LINE#         57
  C:00C9H         LINE#         58
  C:00CBH         LINE#         59
  C:00CBH         LINE#         60
  C:00CBH         LINE#         62
  C:00CEH         LINE#         63
  C:00CEH         LINE#         64
  C:00D2H         LINE#         65
  C:00D2H         LINE#         66
  C:00D5H         LINE#         67
  C:00DAH         LINE#         68
  C:00DCH         LINE#         69
  C:00DEH         LINE#         70
  C:00DEH         LINE#         71
  C:00DEH         LINE#         73
  C:00E9H         LINE#         74
  C:00E9H         LINE#         76
  C:00ECH         LINE#         77
  C:00F0H         LINE#         79
  C:00F3H         LINE#         80
  C:00F3H         LINE#         81
  C:00F6H         LINE#         82
  C:00F6H         LINE#         83
  C:00F9H         LINE#         84
  C:00FCH         LINE#         85
  C:00FEH         LINE#         87
  C:00FEH         LINE#         88
  C:0101H         LINE#         89
  C:0103H         LINE#         90
  C:0103H         LINE#         91
  C:0103H         LINE#         93
  C:0106H         LINE#         94
  C:0106H         LINE#         95
  C:0109H         LINE#         96
  C:0109H         LINE#         97
BL51 BANKED LINKER/LOCATER V6.22                                                      12/26/2017  13:52:03  PAGE 9


  C:010CH         LINE#         98
  C:010FH         LINE#         99
  C:0111H         LINE#         100
  C:0114H         LINE#         101
  C:0114H         LINE#         102
  C:0117H         LINE#         103
  C:011AH         LINE#         104
  C:011CH         LINE#         105
  C:011FH         LINE#         106
  C:011FH         LINE#         107
  C:0122H         LINE#         108
  C:0125H         LINE#         109
  C:0127H         LINE#         110
  C:012AH         LINE#         111
  C:012AH         LINE#         112
  C:012DH         LINE#         113
  C:0130H         LINE#         114
  C:0132H         LINE#         116
  C:0132H         LINE#         117
  C:0135H         LINE#         118
  C:0137H         LINE#         119
  C:0137H         LINE#         120
  C:0137H         LINE#         124
  C:0137H         LINE#         129
  C:0139H         LINE#         130
  C:013BH         LINE#         132
  C:013DH         LINE#         133
  -------         ENDPROC       SCAN_TOUCHPAD
  -------         ENDMOD        TOUCH

  -------         MODULE        TIMER
  C:0000H         SYMBOL        _ICE_DUMMY_
  D:0080H         PUBLIC        P0
  D:0090H         PUBLIC        P1
  D:00A0H         PUBLIC        P2
  C:023FH         PUBLIC        TIMER0_ISR
  D:00B0H         PUBLIC        P3
  B:00A8H.7       PUBLIC        EA
  D:00A8H         PUBLIC        IEN0
  D:00B8H         PUBLIC        IEN1
  C:0374H         PUBLIC        Start_Timer0
  D:00F8H         PUBLIC        IICS
  D:0089H         PUBLIC        TMOD
  D:0088H         PUBLIC        TCON
  D:008CH         PUBLIC        TH0
  C:008EH         PUBLIC        TIMER0_initialize
  D:008AH         PUBLIC        TL0
  B:0088H.4       PUBLIC        TR0
  D:0098H         PUBLIC        S0CON
  D:00C0H         PUBLIC        IRCON
  -------         PROC          TIMER0_INITIALIZE
  C:008EH         LINE#         27
  C:008EH         LINE#         28
  C:008EH         LINE#         29
  C:0091H         LINE#         30
  C:0094H         LINE#         31
  C:0097H         LINE#         32
BL51 BANKED LINKER/LOCATER V6.22                                                      12/26/2017  13:52:03  PAGE 10


  C:009AH         LINE#         33
  -------         ENDPROC       TIMER0_INITIALIZE
  -------         PROC          START_TIMER0
  C:0374H         LINE#         36
  C:0374H         LINE#         37
  C:0374H         LINE#         38
  C:0377H         LINE#         40
  C:0379H         LINE#         41
  C:037BH         LINE#         42
  -------         ENDPROC       START_TIMER0
  -------         PROC          TIMER0_ISR
  -------         DO            
  D:0031H         SYMBOL        times2ms
  D:0032H         SYMBOL        times10ms
  D:0033H         SYMBOL        times1000ms
  -------         ENDDO         
  C:023FH         LINE#         45
  C:0243H         LINE#         52
  C:0246H         LINE#         53
  C:0246H         LINE#         54
  C:0249H         LINE#         55
  C:024CH         LINE#         56
  C:024CH         LINE#         58
  C:024FH         LINE#         59
  C:024FH         LINE#         60
  C:0252H         LINE#         61
  C:0255H         LINE#         62
  C:0255H         LINE#         64
  C:0262H         LINE#         65
  C:0262H         LINE#         66
  C:0265H         LINE#         67
  C:026BH         LINE#         68
  C:026BH         LINE#         70
  C:0270H         LINE#         71
  C:0270H         LINE#         72
  C:0278H         LINE#         73
  C:0278H         LINE#         75
  C:027DH         LINE#         76
  C:027DH         LINE#         77
  C:0285H         LINE#         78
  C:028FH         LINE#         79
  C:028FH         LINE#         80
  C:0292H         LINE#         81
  C:0294H         LINE#         82
  C:029EH         LINE#         83
  C:029EH         LINE#         84
  C:02A1H         LINE#         85
  C:02A3H         LINE#         87
  C:02A3H         LINE#         88
  C:02A6H         LINE#         89
  C:02A6H         LINE#         90
  C:02A6H         LINE#         92
  C:02A9H         LINE#         93
  C:02ACH         LINE#         94
  C:02AEH         LINE#         96
  -------         ENDPROC       TIMER0_ISR
  -------         ENDMOD        TIMER
BL51 BANKED LINKER/LOCATER V6.22                                                      12/26/2017  13:52:03  PAGE 11



*** WARNING L16: UNCALLED SEGMENT, IGNORED FOR OVERLAY PROCESS
    SEGMENT: ?PR?_LED_BLINK_DELAY?LED

Program Size: data=56.0 xdata=0 code=1010
LINK/LOCATE RUN COMPLETE.  1 WARNING(S),  0 ERROR(S)
