BL51 BANKED LINKER/LOCATER V6.22                                                        12/29/2017  16:22:32  PAGE 1


BL51 BANKED LINKER/LOCATER V6.22, INVOKED BY:
C:\KEIL_V5\C51\BIN\BL51.EXE .\Objects\STARTUP.obj, .\Objects\main.obj, .\Objects\data.obj, .\Objects\UART0.obj, .\Object
>> s\debug_uart.obj, .\Objects\soft_uart_1.obj, .\Objects\wifi_uart.obj, .\Objects\SOFT_IIC.obj, .\Objects\TM1620.obj, .
>> \Objects\sensor.obj, .\Objects\PWM1.obj, .\Objects\dc_motor.obj, .\Objects\timer_1.obj, .\Objects\INT.obj, .\Objects\
>> touch_key.obj, .\Objects\sys_run.obj, .\Objects\step_motor.obj, .\Objects\buzzer.obj, .\Objects\common.obj, .\Objects
>> \ADC.obj, .\Objects\UV.obj, .\Objects\ION.obj, .\Objects\charge.obj, .\Objects\EEPROM.obj, .\Objects\M26.obj, .\Objec
>> ts\LVI_LVR.obj TO .\Objects\OB39R32T1 PRINT (.\Listings\OB39R32T1.m51) RAMSIZE (256)


MEMORY MODEL: LARGE WITH FLOATING POINT ARITHMETIC


INPUT MODULES INCLUDED:
  .\Objects\STARTUP.obj (?C_STARTUP)
  .\Objects\main.obj (MAIN)
  .\Objects\data.obj (DATA)
  .\Objects\UART0.obj (UART0)
  .\Objects\debug_uart.obj (DEBUG_UART)
  .\Objects\soft_uart_1.obj (SOFT_UART_1)
  .\Objects\wifi_uart.obj (WIFI_UART)
  .\Objects\SOFT_IIC.obj (SOFT_IIC)
  .\Objects\TM1620.obj (TM1620)
  .\Objects\sensor.obj (SENSOR)
  .\Objects\PWM1.obj (PWM1)
  .\Objects\dc_motor.obj (DC_MOTOR)
  .\Objects\timer_1.obj (TIMER_1)
  .\Objects\INT.obj (INT)
  .\Objects\touch_key.obj (TOUCH_KEY)
  .\Objects\sys_run.obj (SYS_RUN)
  .\Objects\step_motor.obj (STEP_MOTOR)
  .\Objects\buzzer.obj (BUZZER)
  .\Objects\common.obj (COMMON)
  .\Objects\ADC.obj (ADC)
  .\Objects\UV.obj (UV)
  .\Objects\ION.obj (ION)
  .\Objects\charge.obj (CHARGE)
  .\Objects\EEPROM.obj (EEPROM)
  .\Objects\M26.obj (M26)
  .\Objects\LVI_LVR.obj (LVI_LVR)
  C:\KEIL_V5\C51\LIB\C51FPL.LIB (?C?FPADD)
  C:\KEIL_V5\C51\LIB\C51FPL.LIB (?C?FPMUL)
  C:\KEIL_V5\C51\LIB\C51FPL.LIB (?C?FPDIV)
  C:\KEIL_V5\C51\LIB\C51FPL.LIB (?C?FPCMP)
  C:\KEIL_V5\C51\LIB\C51FPL.LIB (?C?FCAST)
  C:\KEIL_V5\C51\LIB\C51FPL.LIB (?C?CASTF)
  C:\KEIL_V5\C51\LIB\C51FPL.LIB (PRINTF)
  C:\KEIL_V5\C51\LIB\C51FPL.LIB (?C?FPGETOPN)
  C:\KEIL_V5\C51\LIB\C51FPL.LIB (?C?FPROUND)
  C:\KEIL_V5\C51\LIB\C51FPL.LIB (?C?FPCONVERT)
  C:\KEIL_V5\C51\LIB\C51FPL.LIB (?C?FTNPWR)
  C:\KEIL_V5\C51\LIB\C51L.LIB (?C_INIT)
  C:\KEIL_V5\C51\LIB\C51L.LIB (?C?COPY)
  C:\KEIL_V5\C51\LIB\C51L.LIB (?C?CLDPTR)
  C:\KEIL_V5\C51\LIB\C51L.LIB (?C?CLDOPTR)
  C:\KEIL_V5\C51\LIB\C51L.LIB (?C?CSTPTR)
  C:\KEIL_V5\C51\LIB\C51L.LIB (?C?CSTOPTR)
  C:\KEIL_V5\C51\LIB\C51L.LIB (?C?IMUL)
  C:\KEIL_V5\C51\LIB\C51L.LIB (?C?UIDIV)
BL51 BANKED LINKER/LOCATER V6.22                                                      12/29/2017  16:22:32  PAGE 2


  C:\KEIL_V5\C51\LIB\C51L.LIB (?C?IILDX)
  C:\KEIL_V5\C51\LIB\C51L.LIB (?C?ILDIX)
  C:\KEIL_V5\C51\LIB\C51L.LIB (?C?LMUL)
  C:\KEIL_V5\C51\LIB\C51L.LIB (?C?ULDIV)
  C:\KEIL_V5\C51\LIB\C51L.LIB (?C?SLDIV)
  C:\KEIL_V5\C51\LIB\C51L.LIB (?C?LNEG)
  C:\KEIL_V5\C51\LIB\C51L.LIB (?C?SLCMP)
  C:\KEIL_V5\C51\LIB\C51L.LIB (?C?ULCMP)
  C:\KEIL_V5\C51\LIB\C51L.LIB (?C?LLDIDATA)
  C:\KEIL_V5\C51\LIB\C51L.LIB (?C?LLDCODE)
  C:\KEIL_V5\C51\LIB\C51L.LIB (?C?LLDIDATA0)
  C:\KEIL_V5\C51\LIB\C51L.LIB (?C?LSTIDATA)
  C:\KEIL_V5\C51\LIB\C51L.LIB (?C?LSTXDATA)
  C:\KEIL_V5\C51\LIB\C51L.LIB (?C?LSTKIDATA)
  C:\KEIL_V5\C51\LIB\C51L.LIB (?C?LSTKXDATA)
  C:\KEIL_V5\C51\LIB\C51L.LIB (?C?PLDIXDATA)
  C:\KEIL_V5\C51\LIB\C51L.LIB (?C?PSTXDATA)
  C:\KEIL_V5\C51\LIB\C51L.LIB (?C?CCASE)
  C:\KEIL_V5\C51\LIB\C51L.LIB (?C?ICALL)
  C:\KEIL_V5\C51\LIB\C51L.LIB (PUTCHAR)
  C:\KEIL_V5\C51\LIB\C51L.LIB (STRCAT)
  C:\KEIL_V5\C51\LIB\C51L.LIB (?C?STRCMP)
  C:\KEIL_V5\C51\LIB\C51L.LIB (?C?STRCPY)
  C:\KEIL_V5\C51\LIB\C51L.LIB (STRNCPY)
  C:\KEIL_V5\C51\LIB\C51L.LIB (STRLEN)
  C:\KEIL_V5\C51\LIB\C51L.LIB (STRSTR)
  C:\KEIL_V5\C51\LIB\C51L.LIB (ATOL)
  C:\KEIL_V5\C51\LIB\C51L.LIB (ATOI)
  C:\KEIL_V5\C51\LIB\C51L.LIB (ISDIGIT)
  C:\KEIL_V5\C51\LIB\C51L.LIB (ISSPACE)


LINK MAP OF MODULE:  .\Objects\OB39R32T1 (?C_STARTUP)


            TYPE    BASE      LENGTH    RELOCATION   SEGMENT NAME
            -----------------------------------------------------

            * * * * * * *   D A T A   M E M O R Y   * * * * * * *
            REG     0000H     0008H     ABSOLUTE     "REG BANK 0"
            DATA    0008H     000AH     UNIT         _DATA_GROUP_
            IDATA   0012H     0007H     UNIT         ?ID?TIMER_1
                    0019H     0007H                  *** GAP ***
            BIT     0020H.0   0004H.7   UNIT         ?BI?DATA
            BIT     0024H.7   0002H.2   UNIT         _BIT_GROUP_
            BIT     0027H.1   0000H.4   UNIT         ?BI?SYS_RUN
            BIT     0027H.5   0000H.1   UNIT         ?BI?UART0
            BIT     0027H.6   0000H.1   UNIT         ?BI?ADC
            BIT     0027H.7   0000H.1   UNIT         ?BI?M26
            IDATA   0028H     009EH     UNIT         ?ID?DATA
            IDATA   00C6H     0001H     UNIT         ?STACK

            * * * * * * *  X D A T A   M E M O R Y  * * * * * * *
            XDATA   0000H     0141H     UNIT         ?XD?DATA
            XDATA   0141H     00BCH     UNIT         ?XD?M26
            XDATA   01FDH     0090H     UNIT         _XDATA_GROUP_
            XDATA   028DH     001CH     UNIT         ?XD?SOFT_IIC
BL51 BANKED LINKER/LOCATER V6.22                                                      12/29/2017  16:22:32  PAGE 3


            XDATA   02A9H     000FH     UNIT         ?XD?SYS_RUN
            XDATA   02B8H     000FH     UNIT         ?XD?CHARGE
            XDATA   02C7H     0009H     UNIT         ?XD?TOUCH_KEY
            XDATA   02D0H     0009H     UNIT         ?XD?STEP_MOTOR
            XDATA   02D9H     0004H     UNIT         ?XD?SOFT_UART_1
            XDATA   02DDH     0004H     UNIT         ?XD?_EEPROM_SECTOR_PROGRAM?EEPROM
            XDATA   02E1H     0002H     UNIT         ?XD?TM1620
            XDATA   02E3H     0002H     UNIT         ?XD?SENSOR
            XDATA   02E5H     0002H     UNIT         ?XD?ADC
            XDATA   02E7H     0001H     UNIT         ?XD?UART0
            XDATA   02E8H     0001H     UNIT         ?XD?TIMER_1

            * * * * * * *   C O D E   M E M O R Y   * * * * * * *
            CODE    0000H     0003H     ABSOLUTE     
            CODE    0003H     0008H     UNIT         ?PR?_UART0_TX?UART0
            CODE    000BH     0003H     ABSOLUTE     
            CODE    000EH     000DH     UNIT         ?PR?TIMER0_INIT?SOFT_UART_1
            CODE    001BH     0003H     ABSOLUTE     
            CODE    001EH     0005H     UNIT         ?CO?SENSOR
            CODE    0023H     0003H     ABSOLUTE     
            CODE    0026H     0015H     UNIT         ?PR?INIT_UART0?UART0
            CODE    003BH     0003H     ABSOLUTE     
            CODE    003EH     0004H     UNIT         ?PR?LVR_DISABLE?LVI_LVR
            CODE    0042H     0001H     UNIT         ?PR?PWM_ISR?PWM1
            CODE    0043H     0003H     ABSOLUTE     
            CODE    0046H     000DH     UNIT         ?PR?WIFI_LED_ON?M26
            CODE    0053H     0003H     ABSOLUTE     
            CODE    0056H     000DH     UNIT         ?PR?WIFI_LED_OFF?M26
            CODE    0063H     0003H     ABSOLUTE     
            CODE    0066H     15BBH     UNIT         ?PR?CHECK_M26_CMD_RESULT?M26
            CODE    1621H     0C38H     UNIT         ?C?LIB_CODE
            CODE    2259H     06B6H     UNIT         ?PR?M26_HTTP_LOOP?M26
            CODE    290FH     0676H     UNIT         ?CO?M26
            CODE    2F85H     055FH     UNIT         ?PR?CHARGE_INIT?CHARGE
            CODE    34E4H     0488H     UNIT         ?PR?DISPLAY_PM_DATA?SYS_RUN
            CODE    396CH     0483H     UNIT         ?PR?PRINTF?PRINTF
            CODE    3DEFH     0293H     UNIT         ?PR?_M26_SEND_DATA?M26
            CODE    4082H     0272H     UNIT         ?C_INITSEG
            CODE    42F4H     01C4H     UNIT         ?PR?MAIN?MAIN
            CODE    44B8H     0196H     UNIT         ?PR?SYS_DEV_AUTO_CHECK?SYS_RUN
            CODE    464EH     018CH     UNIT         ?PR?M26_WAIT_RESPONSE?M26
            CODE    47DAH     017DH     UNIT         ?PR?SYS_RUN?SYS_RUN
            CODE    4957H     0164H     UNIT         ?PR?CHARGE_LEFTTIME_COUNT?CHARGE
            CODE    4ABBH     015AH     UNIT         ?PR?SCAN_TOUCHPAD?TOUCH_KEY
            CODE    4C15H     0144H     UNIT         ?PR?TIMER1_ISR?TIMER_1
            CODE    4D59H     0137H     UNIT         ?PR?SYS_CHECK_MANUAL_RESULT_UPLOAD?SYS_RUN
            CODE    4E90H     0120H     UNIT         ?PR?_STRING_GET_INT?M26
            CODE    4FB0H     0117H     UNIT         ?PR?DIRECTMOTOR?DC_MOTOR
            CODE    50C7H     010CH     UNIT         ?PR?_ATOL?ATOL
            CODE    51D3H     0100H     UNIT         ?PR?_TM1620_DISPALYDATA?TM1620
            CODE    52D3H     00EDH     UNIT         ?PR?_STRING_GET_STRING?M26
            CODE    53C0H     00EAH     UNIT         ?PR?READ_PMSENSOR_DATA?SENSOR
            CODE    54AAH     00E9H     UNIT         ?PR?_TM1620_LED_CONTROL?TM1620
            CODE    5593H     00E4H     UNIT         ?PR?_MAKE_M26_SEND_STRING?M26
            CODE    5677H     00DCH     UNIT         ?PR?SYS_CHECK_AUTO_RESULT_UPLOAD?SYS_RUN
            CODE    5753H     00DBH     UNIT         ?PR?_ATOI?ATOI
            CODE    582EH     00D5H     UNIT         ?PR?M26_REGISTER_TO_NET?M26
BL51 BANKED LINKER/LOCATER V6.22                                                      12/29/2017  16:22:32  PAGE 4


            CODE    5903H     00D0H     UNIT         ?PR?_STRING_GET_LONG?M26
            CODE    59D3H     00C8H     UNIT         ?PR?TURNMOTOR?STEP_MOTOR
            CODE    5A9BH     00BFH     UNIT         ?PR?_STRSTR?STRSTR
            CODE    5B5AH     00BCH     UNIT         ?PR?SYS_SMART_MODE?SYS_RUN
            CODE    5C16H     00B9H     UNIT         ?PR?_TM1620_WRITEFRAMEREGISTER?TM1620
            CODE    5CCFH     00B8H     UNIT         ?PR?M26_STATUS_SYNC?M26
            CODE    5D87H     00B8H     UNIT         ?PR?LVI?LVI_LVR
            CODE    5E3FH     00A8H     UNIT         ?CO?CHARGE
            CODE    5EE7H     00A6H     UNIT         ?PR?_GET_KEY_STATUS?TOUCH_KEY
            CODE    5F8DH     00A2H     UNIT         ?PR?TIMER0_ISR?SOFT_UART_1
            CODE    602FH     00A0H     UNIT         ?CO?SYS_RUN
            CODE    60CFH     0094H     UNIT         ?PR?_I2C_WRITEBYTES?SOFT_IIC
            CODE    6163H     0094H     UNIT         ?PR?M26_SIGNAL_CHECK?M26
            CODE    61F7H     008FH     UNIT         ?PR?CHARGE_LEFTTIME_FLASH_WRITE?CHARGE
            CODE    6286H     008EH     UNIT         ?PR?_I2C_READBYTES?SOFT_IIC
            CODE    6314H     008CH     UNIT         ?C_C51STARTUP
            CODE    63A0H     008BH     UNIT         ?PR?DCMOTO_ADJ?DC_MOTOR
            CODE    642BH     0080H     UNIT         ?PR?I2C_WAITACK?SOFT_IIC
            CODE    64ABH     007FH     UNIT         ?PR?_EEPROM_WRITE_BYTES?EEPROM
            CODE    652AH     007EH     UNIT         ?PR?_DEBUG_UART_SENDBYTES?DEBUG_UART
            CODE    65A8H     007AH     UNIT         ?PR?_I2C_SENDONEBYTE?SOFT_IIC
            CODE    6622H     007AH     UNIT         ?PR?I2C_READONEBYTE?SOFT_IIC
            CODE    669CH     0071H     UNIT         ?PR?I2C_START?SOFT_IIC
            CODE    670DH     006CH     UNIT         ?PR?M26_RESTART?M26
            CODE    6779H     006BH     UNIT         ?PR?_STRCAT?STRCAT
            CODE    67E4H     0068H     UNIT         ?PR?_EEPROM_READ_BYTES?EEPROM
            CODE    684CH     0068H     UNIT         ?PR?_STRNCPY?STRNCPY
            CODE    68B4H     0065H     UNIT         ?PR?I2C_ACK?SOFT_IIC
            CODE    6919H     0064H     UNIT         ?PR?M26_FOGCLOUD_INIT_AND_CHECK?M26
            CODE    697DH     0063H     UNIT         ?PR?CHECK_IF_DOORCLOSE_MANUAL?SYS_RUN
            CODE    69E0H     0063H     UNIT         ?PR?M26_UPLOAD_DATA?M26
            CODE    6A43H     0062H     UNIT         ?PR?SYS_START?SYS_RUN
            CODE    6AA5H     0059H     UNIT         ?PR?I2C_STOP?SOFT_IIC
            CODE    6AFEH     0059H     UNIT         ?PR?I2C_NACK?SOFT_IIC
            CODE    6B57H     0058H     UNIT         ?PR?UV_CHECK?UV
            CODE    6BAFH     004CH     UNIT         ?PR?CHECK_IF_CLOSE_DOOR?STEP_MOTOR
            CODE    6BFBH     004BH     UNIT         ?PR?CHECK_IF_STOP_MANUAL_CHECK?SYS_RUN
            CODE    6C46H     004BH     UNIT         ?PR?_MYMEMSET?COMMON
            CODE    6C91H     0044H     UNIT         ?C?LDIV
            CODE    6CD5H     0043H     UNIT         ?PR?M26_GET_SIGNAL_QUALITY?M26
            CODE    6D18H     0043H     UNIT         ?PR?M26_GET_CCID?M26
            CODE    6D5BH     003EH     UNIT         ?PR?_WIFI_UART_SENDBYTES?WIFI_UART
            CODE    6D99H     003DH     UNIT         ?PR?SYS_INIT_CHECK?SYS_RUN
            CODE    6DD6H     003BH     UNIT         ?PR?SYS_STOP?SYS_RUN
            CODE    6E11H     0038H     UNIT         ?PR?_TM1620_WRITEONEBYTE?TM1620
            CODE    6E49H     0037H     UNIT         ?PR?_PWM_SET_DUTY?PWM1
            CODE    6E80H     0037H     UNIT         ?PR?_MYSTRLEN?COMMON
            CODE    6EB7H     0037H     UNIT         ?PR?_EEPROM_SECTOR_PROGRAM?EEPROM
            CODE    6EEEH     0031H     UNIT         ?PR?UART0_ISR?UART0
            CODE    6F1FH     0031H     UNIT         ?PR?_STARTMOTOR?STEP_MOTOR
            CODE    6F50H     0031H     UNIT         ?PR?_BUZZERBEEP?BUZZER
            CODE    6F81H     0031H     UNIT         ?PR?ADCINTERRUPT?ADC
            CODE    6FB2H     002DH     UNIT         ?PR?BUZZER_POWER_ON?BUZZER
            CODE    6FDFH     002DH     UNIT         ?PR?BUZZER_POWER_OFF?BUZZER
            CODE    700CH     0029H     UNIT         ?PR?DEVICE_GET_CCID?M26
            CODE    7035H     0027H     UNIT         ?PR?PUTCHAR?PUTCHAR
            CODE    705CH     0020H     UNIT         ?CO?MAIN
BL51 BANKED LINKER/LOCATER V6.22                                                      12/29/2017  16:22:32  PAGE 5


            CODE    707CH     0020H     UNIT         ?PR?BUZZER_GET_CHARGE?BUZZER
            CODE    709CH     001FH     UNIT         ?PR?_EEPROM_BYTE_PROGRAM?EEPROM
            CODE    70BBH     001EH     UNIT         ?PR?DEVICE_ACTIVATE?M26
            CODE    70D9H     001DH     UNIT         ?PR?UV_ON?UV
            CODE    70F6H     001CH     UNIT         ?PR?_SET_DC_MOTOR_SPEED?DC_MOTOR
            CODE    7112H     001CH     UNIT         ?CO?LVI_LVR
            CODE    712EH     001BH     UNIT         ?PR?_EEPROM_PAGE_ERASE?EEPROM
            CODE    7149H     001AH     UNIT         ?PR?DOOR_OPEN?STEP_MOTOR
            CODE    7163H     001AH     UNIT         ?PR?BUZZER_SPEED?BUZZER
            CODE    717DH     001AH     UNIT         ?PR?M26_WAKEUP?M26
            CODE    7197H     0019H     UNIT         ?PR?TM1620_CLEAR_FRAMEBUFF?TM1620
            CODE    71B0H     0019H     UNIT         ?PR?M26_OTA_CHECK?M26
            CODE    71C9H     0017H     UNIT         ?PR?STEP_MOTOR_PIN_INIT?STEP_MOTOR
            CODE    71E0H     0017H     UNIT         ?PR?CLEAR_WIFI_UART_BUFF?M26
            CODE    71F7H     0016H     UNIT         ?PR?M26_CHARGE_CONFIRM?M26
            CODE    720DH     0015H     UNIT         ?PR?_SET_SENSOR_SDA_PIN_MODE?SENSOR
            CODE    7222H     0015H     UNIT         ?PR?_SET_SENSOR_SCL_PIN_MODE?SENSOR
            CODE    7237H     0015H     UNIT         ?PR?_SET_KEY_SDA_PIN_MODE?TOUCH_KEY
            CODE    724CH     0015H     UNIT         ?PR?_SET_KEY_SCL_PIN_MODE?TOUCH_KEY
            CODE    7261H     0015H     UNIT         ?PR?START_SYS_MANUAL_CHECK?SYS_RUN
            CODE    7276H     0015H     UNIT         ?PR?M26_DEVICE_ACTIVATE?M26
            CODE    728BH     0015H     UNIT         ?PR?_STRLEN?STRLEN
            CODE    72A0H     0014H     UNIT         ?PR?_ISSPACE?ISSPACE
            CODE    72B4H     0013H     UNIT         ?PR?TM1620_PIN_CONFIG?TM1620
            CODE    72C7H     0013H     UNIT         ?PR?SENSOR_IIC_PINCONIFG?SENSOR
            CODE    72DAH     0012H     UNIT         ?PR?_I2C_DELAY1?SOFT_IIC
            CODE    72ECH     0012H     UNIT         ?PR?START_DC_MOTOR?DC_MOTOR
            CODE    72FEH     0012H     UNIT         ?PR?UV_OFF?UV
            CODE    7310H     0011H     UNIT         ?PR?DEBUG_UART_INIT?DEBUG_UART
            CODE    7321H     0011H     UNIT         ?PR?DOOR_CLOSE?STEP_MOTOR
            CODE    7332H     0011H     UNIT         ?PR?ADC_READ12?ADC
            CODE    7343H     0011H     UNIT         ?PR?EEPROM_ENABLE?EEPROM
            CODE    7354H     0011H     UNIT         ?PR?EEPROM_DISABLE?EEPROM
            CODE    7365H     0010H     UNIT         ?CO?TM1620
            CODE    7375H     0010H     UNIT         ?PR?CLEAR_TOUCH_INFO?TOUCH_KEY
            CODE    7385H     0010H     UNIT         ?PR?START_SYS_AUTO_CHECK?SYS_RUN
            CODE    7395H     0010H     UNIT         ?PR?M26_POWER_OFF?M26
            CODE    73A5H     000FH     UNIT         ?PR?SENSOR_I2C_DELAY?SENSOR
            CODE    73B4H     000FH     UNIT         ?PR?PWM_INIT?PWM1
            CODE    73C3H     000FH     UNIT         ?PR?INT3_ISR?INT
            CODE    73D2H     000FH     UNIT         ?PR?KEY_I2C_DELAY?TOUCH_KEY
            CODE    73E1H     000FH     UNIT         ?PR?UV_PIN_INIT?UV
            CODE    73F0H     000FH     UNIT         ?PR?SOFTWARE_RESET?EEPROM
            CODE    73FFH     000FH     UNIT         ?PR?_ISDIGIT?ISDIGIT
            CODE    740EH     000EH     UNIT         ?PR?STOP_SYS_AUTO_CHECK?SYS_RUN
            CODE    741CH     000EH     UNIT         ?PR?ION_ON?ION
            CODE    742AH     000EH     UNIT         ?PR?ION_OFF?ION
            CODE    7438H     000CH     UNIT         ?PR?TM1620_INIT?TM1620
            CODE    7444H     000CH     UNIT         ?CO?DC_MOTOR
            CODE    7450H     000CH     UNIT         ?PR?_ADCINIT?ADC
            CODE    745CH     000CH     UNIT         ?PR?GET_UV_ADC_DATA?UV
            CODE    7468H     000BH     UNIT         ?PR?_MYDELAY?TM1620
            CODE    7473H     000BH     UNIT         ?PR?KEY_IIC_PINCONIFG?TOUCH_KEY
            CODE    747EH     000BH     UNIT         ?PR?BUZZER_SIGNAL_CHECK?BUZZER
            CODE    7489H     000BH     UNIT         ?PR?CHECK_ISPFAH?EEPROM
            CODE    7494H     000AH     UNIT         ?PR?SOFT_UART_INIT?SOFT_UART_1
            CODE    749EH     000AH     UNIT         ?PR?TM1620_SETMODE?TM1620
BL51 BANKED LINKER/LOCATER V6.22                                                      12/29/2017  16:22:32  PAGE 6


            CODE    74A8H     000AH     UNIT         ?PR?TM1620_SETDATAMODE?TM1620
            CODE    74B2H     000AH     UNIT         ?PR?TM1620_DISPLAY_ON?TM1620
            CODE    74BCH     000AH     UNIT         ?PR?SENSOR_IIC_SDA_READ?SENSOR
            CODE    74C6H     000AH     UNIT         ?PR?KEY_IIC_SDA_READ?TOUCH_KEY
            CODE    74D0H     0009H     UNIT         ?PR?TIMER1_INITIALIZE?TIMER_1
            CODE    74D9H     0009H     UNIT         ?PR?SET_SYS_TO_SMART_MODE?SYS_RUN
            CODE    74E2H     0009H     UNIT         ?PR?STOP_SYS_SMART_MODE?SYS_RUN
            CODE    74EBH     0009H     UNIT         ?PR?BUZZER_PINCONFIG?BUZZER
            CODE    74F4H     0009H     UNIT         ?PR?_ADCSTART?ADC
            CODE    74FDH     0009H     UNIT         ?PR?ION_PIN_INIT?ION
            CODE    7506H     0009H     UNIT         ?PR?M26_POWER_PIN_INIT?M26
            CODE    750FH     0009H     UNIT         ?PR?M26_WAKEUP_PIN_INIT?M26
            CODE    7518H     0008H     UNIT         ?PR?START_TIMER1?TIMER_1
            CODE    7520H     0008H     UNIT         ?PR?START_INT3?INT
            CODE    7528H     0008H     UNIT         ?PR?STOP_SYS_MANUAL_CHECK?SYS_RUN
            CODE    7530H     0008H     UNIT         ?PR?_EEPROM_BYTE_READ?EEPROM
            CODE    7538H     0008H     UNIT         ?PR?LVI_EN?LVI_LVR
            CODE    7540H     0007H     UNIT         ?PR?STOP_DC_MOTOR?DC_MOTOR
            CODE    7547H     0007H     UNIT         ?PR?DOOR_PIN_INIT?STEP_MOTOR
            CODE    754EH     0007H     UNIT         ?PR?UV_ADC_START?UV
            CODE    7555H     0006H     UNIT         ?PR?GET_SYS_MSTIME?TIMER_1
            CODE    755BH     0006H     UNIT         ?PR?GET_SYS_STIME?TIMER_1
            CODE    7561H     0003H     UNIT         ?PR?SENSOR_POWER_ON?SENSOR
            CODE    7564H     0003H     UNIT         ?PR?SENSOR_POWER_OFF?SENSOR
            CODE    7567H     0003H     UNIT         ?PR?SENSOR_IIC_SDA_1?SENSOR
            CODE    756AH     0003H     UNIT         ?PR?SENSOR_IIC_SDA_0?SENSOR
            CODE    756DH     0003H     UNIT         ?PR?SENSOR_IIC_SCL_1?SENSOR
            CODE    7570H     0003H     UNIT         ?PR?SENSOR_IIC_SCL_0?SENSOR
            CODE    7573H     0003H     UNIT         ?PR?KEY_IIC_SDA_1?TOUCH_KEY
            CODE    7576H     0003H     UNIT         ?PR?KEY_IIC_SDA_0?TOUCH_KEY
            CODE    7579H     0003H     UNIT         ?PR?KEY_IIC_SCL_1?TOUCH_KEY
            CODE    757CH     0003H     UNIT         ?PR?KEY_IIC_SCL_0?TOUCH_KEY
            CODE    757FH     0003H     UNIT         ?CO?TOUCH_KEY
            CODE    7582H     0003H     UNIT         ?PR?M26_POWER_ON?M26
            CODE    7585H     0002H     UNIT         ?CO?STEP_MOTOR



OVERLAY MAP OF MODULE:   .\Objects\OB39R32T1 (?C_STARTUP)


SEGMENT                                             BIT_GROUP          DATA_GROUP          XDATA_GROUP
  +--> CALLED SEGMENT                            START    LENGTH     START    LENGTH     START    LENGTH
--------------------------------------------------------------------------------------------------------
?C_C51STARTUP                                    -----    -----      -----    -----      -----    -----
  +--> ?PR?MAIN?MAIN
  +--> ?C_INITSEG

?PR?MAIN?MAIN                                    -----    -----      -----    -----      01FDH    0004H
  +--> ?PR?M26_POWER_PIN_INIT?M26
  +--> ?PR?M26_POWER_ON?M26
  +--> ?PR?M26_WAKEUP_PIN_INIT?M26
  +--> ?PR?TM1620_INIT?TM1620
  +--> ?PR?KEY_IIC_PINCONIFG?TOUCH_KEY
  +--> ?PR?START_TIMER1?TIMER_1
  +--> ?PR?START_INT3?INT
  +--> ?PR?PWM_INIT?PWM1
BL51 BANKED LINKER/LOCATER V6.22                                                      12/29/2017  16:22:32  PAGE 7


  +--> ?PR?STEP_MOTOR_PIN_INIT?STEP_MOTOR
  +--> ?PR?BUZZER_PINCONFIG?BUZZER
  +--> ?PR?SENSOR_IIC_PINCONIFG?SENSOR
  +--> ?PR?SOFT_UART_INIT?SOFT_UART_1
  +--> ?PR?INIT_UART0?UART0
  +--> ?PR?DEBUG_UART_INIT?DEBUG_UART
  +--> ?PR?UV_PIN_INIT?UV
  +--> ?PR?ION_PIN_INIT?ION
  +--> ?PR?BUZZER_POWER_ON?BUZZER
  +--> ?PR?_TM1620_DISPALYDATA?TM1620
  +--> ?PR?_TM1620_LED_CONTROL?TM1620
  +--> ?PR?LVI_EN?LVI_LVR
  +--> ?PR?CHARGE_INIT?CHARGE
  +--> ?PR?SYS_INIT_CHECK?SYS_RUN
  +--> ?PR?M26_WAKEUP?M26
  +--> ?PR?DEVICE_GET_CCID?M26
  +--> ?PR?CHARGE_LEFTTIME_COUNT?CHARGE
  +--> ?PR?DISPLAY_PM_DATA?SYS_RUN
  +--> ?PR?CHECK_IF_CLOSE_DOOR?STEP_MOTOR
  +--> ?PR?M26_SIGNAL_CHECK?M26
  +--> ?PR?_MYMEMSET?COMMON
  +--> ?CO?MAIN
  +--> ?PR?PRINTF?PRINTF
  +--> ?PR?_STRLEN?STRLEN
  +--> ?PR?_DEBUG_UART_SENDBYTES?DEBUG_UART
  +--> ?PR?CHECK_IF_STOP_MANUAL_CHECK?SYS_RUN
  +--> ?PR?M26_FOGCLOUD_INIT_AND_CHECK?M26
  +--> ?PR?SYS_RUN?SYS_RUN
  +--> ?PR?DIRECTMOTOR?DC_MOTOR
  +--> ?PR?TURNMOTOR?STEP_MOTOR
  +--> ?PR?SCAN_TOUCHPAD?TOUCH_KEY
  +--> ?PR?M26_HTTP_LOOP?M26
  +--> ?PR?M26_WAIT_RESPONSE?M26
  +--> ?PR?CHECK_M26_CMD_RESULT?M26
  +--> ?PR?M26_UPLOAD_DATA?M26
  +--> ?PR?M26_STATUS_SYNC?M26
  +--> ?PR?SYS_DEV_AUTO_CHECK?SYS_RUN
  +--> ?PR?DCMOTO_ADJ?DC_MOTOR
  +--> ?PR?UV_CHECK?UV

?PR?TM1620_INIT?TM1620                           -----    -----      -----    -----      -----    -----
  +--> ?PR?TM1620_PIN_CONFIG?TM1620
  +--> ?PR?TM1620_SETMODE?TM1620
  +--> ?PR?TM1620_CLEAR_FRAMEBUFF?TM1620
  +--> ?PR?TM1620_DISPLAY_ON?TM1620

?PR?TM1620_SETMODE?TM1620                        -----    -----      -----    -----      -----    -----
  +--> ?PR?_TM1620_WRITEONEBYTE?TM1620

?PR?_TM1620_WRITEONEBYTE?TM1620                  -----    -----      -----    -----      -----    -----
  +--> ?PR?TM1620_SETDATAMODE?TM1620
  +--> ?PR?_MYDELAY?TM1620

?PR?TM1620_CLEAR_FRAMEBUFF?TM1620                -----    -----      -----    -----      -----    -----
  +--> ?PR?TM1620_SETDATAMODE?TM1620
  +--> ?PR?_TM1620_WRITEONEBYTE?TM1620

BL51 BANKED LINKER/LOCATER V6.22                                                      12/29/2017  16:22:32  PAGE 8


?PR?TM1620_DISPLAY_ON?TM1620                     -----    -----      -----    -----      -----    -----
  +--> ?PR?_TM1620_WRITEONEBYTE?TM1620

?PR?START_TIMER1?TIMER_1                         -----    -----      -----    -----      -----    -----
  +--> ?PR?TIMER1_INITIALIZE?TIMER_1

?PR?STEP_MOTOR_PIN_INIT?STEP_MOTOR               -----    -----      -----    -----      -----    -----
  +--> ?PR?DOOR_PIN_INIT?STEP_MOTOR

?PR?SOFT_UART_INIT?SOFT_UART_1                   -----    -----      -----    -----      -----    -----
  +--> ?PR?TIMER0_INIT?SOFT_UART_1

?PR?UV_PIN_INIT?UV                               -----    -----      -----    -----      -----    -----
  +--> ?PR?_ADCINIT?ADC

?PR?BUZZER_POWER_ON?BUZZER                       -----    -----      -----    -----      -----    -----
  +--> ?PR?_BUZZERBEEP?BUZZER

?PR?_TM1620_DISPALYDATA?TM1620                   -----    -----      -----    -----      0202H    000DH
  +--> ?CO?TM1620
  +--> ?PR?_TM1620_WRITEFRAMEREGISTER?TM1620

?PR?_TM1620_WRITEFRAMEREGISTER?TM1620            -----    -----      -----    -----      020FH    0007H
  +--> ?PR?_TM1620_WRITEONEBYTE?TM1620
  +--> ?CO?TM1620

?PR?_TM1620_LED_CONTROL?TM1620                   -----    -----      -----    -----      020EH    0001H
  +--> ?PR?_TM1620_WRITEONEBYTE?TM1620

?PR?CHARGE_INIT?CHARGE                           -----    -----      -----    -----      0201H    000CH
  +--> ?CO?CHARGE
  +--> ?PR?_MYMEMSET?COMMON
  +--> ?PR?_EEPROM_READ_BYTES?EEPROM
  +--> ?PR?PRINTF?PRINTF
  +--> ?PR?_STRLEN?STRLEN
  +--> ?PR?_DEBUG_UART_SENDBYTES?DEBUG_UART
  +--> ?PR?_EEPROM_PAGE_ERASE?EEPROM
  +--> ?PR?_EEPROM_WRITE_BYTES?EEPROM
  +--> ?PR?GET_SYS_STIME?TIMER_1

?PR?_MYMEMSET?COMMON                             -----    -----      -----    -----      025DH    0005H

?PR?_EEPROM_READ_BYTES?EEPROM                    -----    -----      -----    -----      020DH    0007H
  +--> ?PR?_EEPROM_BYTE_READ?EEPROM

?PR?PRINTF?PRINTF                                0026H.0  0001H.1    000DH    0005H      025DH    0030H
  +--> ?PR?PUTCHAR?PUTCHAR

?PR?_DEBUG_UART_SENDBYTES?DEBUG_UART             -----    -----      -----    -----      025DH    0005H

?PR?_EEPROM_PAGE_ERASE?EEPROM                    -----    -----      -----    -----      -----    -----
  +--> ?PR?EEPROM_ENABLE?EEPROM
  +--> ?PR?EEPROM_DISABLE?EEPROM

?PR?_EEPROM_WRITE_BYTES?EEPROM                   -----    -----      -----    -----      020DH    0009H
  +--> ?PR?_EEPROM_BYTE_PROGRAM?EEPROM

BL51 BANKED LINKER/LOCATER V6.22                                                      12/29/2017  16:22:32  PAGE 9


?PR?_EEPROM_BYTE_PROGRAM?EEPROM                  -----    -----      -----    -----      -----    -----
  +--> ?PR?EEPROM_ENABLE?EEPROM
  +--> ?PR?EEPROM_DISABLE?EEPROM

?PR?SYS_INIT_CHECK?SYS_RUN                       -----    -----      -----    -----      -----    -----
  +--> ?PR?DOOR_CLOSE?STEP_MOTOR
  +--> ?PR?TURNMOTOR?STEP_MOTOR

?PR?DOOR_CLOSE?STEP_MOTOR                        -----    -----      -----    -----      -----    -----
  +--> ?PR?_STARTMOTOR?STEP_MOTOR

?PR?_STARTMOTOR?STEP_MOTOR                       -----    -----      -----    -----      020EH    0004H

?PR?DEVICE_GET_CCID?M26                          -----    -----      -----    -----      -----    -----
  +--> ?PR?M26_GET_CCID?M26
  +--> ?PR?M26_WAIT_RESPONSE?M26
  +--> ?PR?CHECK_M26_CMD_RESULT?M26

?PR?M26_GET_CCID?M26                             -----    -----      -----    -----      -----    -----
  +--> ?PR?_MYMEMSET?COMMON
  +--> ?CO?M26
  +--> ?PR?_MAKE_M26_SEND_STRING?M26
  +--> ?PR?_M26_SEND_DATA?M26

?PR?_MAKE_M26_SEND_STRING?M26                    -----    -----      -----    -----      0203H    0009H
  +--> ?PR?_STRCAT?STRCAT
  +--> ?CO?M26

?PR?_STRCAT?STRCAT                               -----    -----      -----    -----      020CH    0009H

?PR?_M26_SEND_DATA?M26                           -----    -----      -----    -----      0203H    0025H
  +--> ?CO?M26
  +--> ?PR?CLEAR_WIFI_UART_BUFF?M26
  +--> ?PR?_MYMEMSET?COMMON
  +--> ?PR?_STRLEN?STRLEN
  +--> ?PR?_WIFI_UART_SENDBYTES?WIFI_UART
  +--> ?PR?GET_SYS_MSTIME?TIMER_1
  +--> ?PR?PRINTF?PRINTF
  +--> ?PR?_DEBUG_UART_SENDBYTES?DEBUG_UART

?PR?CLEAR_WIFI_UART_BUFF?M26                     -----    -----      -----    -----      -----    -----
  +--> ?PR?_MYMEMSET?COMMON

?PR?_WIFI_UART_SENDBYTES?WIFI_UART               -----    -----      -----    -----      0228H    0005H
  +--> ?PR?_UART0_TX?UART0

?PR?M26_WAIT_RESPONSE?M26                        -----    -----      -----    -----      0201H    0005H
  +--> ?PR?GET_SYS_MSTIME?TIMER_1
  +--> ?CO?M26
  +--> ?PR?_STRSTR?STRSTR

?PR?_STRSTR?STRSTR                               -----    -----      -----    -----      020EH    000CH

?PR?CHECK_M26_CMD_RESULT?M26                     -----    -----      -----    -----      0201H    000DH
  +--> ?CO?M26
  +--> ?PR?_STRLEN?STRLEN
  +--> ?PR?_DEBUG_UART_SENDBYTES?DEBUG_UART
BL51 BANKED LINKER/LOCATER V6.22                                                      12/29/2017  16:22:32  PAGE 10


  +--> ?PR?_STRSTR?STRSTR
  +--> ?PR?_MYMEMSET?COMMON
  +--> ?PR?_STRNCPY?STRNCPY
  +--> ?PR?_ATOL?ATOL
  +--> ?PR?PRINTF?PRINTF
  +--> ?PR?_MYSTRLEN?COMMON
  +--> ?PR?_STRING_GET_INT?M26
  +--> ?PR?SET_SYS_TO_SMART_MODE?SYS_RUN
  +--> ?PR?STOP_SYS_SMART_MODE?SYS_RUN
  +--> ?PR?_SET_DC_MOTOR_SPEED?DC_MOTOR
  +--> ?PR?UV_ON?UV
  +--> ?PR?UV_OFF?UV
  +--> ?PR?ION_ON?ION
  +--> ?PR?ION_OFF?ION
  +--> ?PR?GET_SYS_MSTIME?TIMER_1
  +--> ?PR?DOOR_OPEN?STEP_MOTOR
  +--> ?PR?START_SYS_AUTO_CHECK?SYS_RUN
  +--> ?PR?STOP_SYS_AUTO_CHECK?SYS_RUN
  +--> ?PR?START_SYS_MANUAL_CHECK?SYS_RUN
  +--> ?PR?STOP_SYS_MANUAL_CHECK?SYS_RUN
  +--> ?PR?_STRING_GET_LONG?M26
  +--> ?PR?_STRING_GET_STRING?M26
  +--> ?PR?CHARGE_LEFTTIME_FLASH_WRITE?CHARGE
  +--> ?PR?BUZZER_GET_CHARGE?BUZZER
  +--> ?PR?GET_SYS_STIME?TIMER_1
  +--> ?PR?SYS_START?SYS_RUN
  +--> ?PR?CLEAR_TOUCH_INFO?TOUCH_KEY
  +--> ?PR?M26_CHARGE_CONFIRM?M26
  +--> ?PR?M26_RESTART?M26

?PR?_STRNCPY?STRNCPY                             -----    -----      -----    -----      0216H    000AH

?PR?_ATOL?ATOL                                   0024H.7  0000H.1    -----    -----      0213H    0007H
  +--> ?PR?_ISSPACE?ISSPACE
  +--> ?PR?_ISDIGIT?ISDIGIT

?PR?_MYSTRLEN?COMMON                             -----    -----      -----    -----      025DH    0003H

?PR?_STRING_GET_INT?M26                          -----    -----      -----    -----      020EH    0005H
  +--> ?PR?_MYMEMSET?COMMON
  +--> ?PR?_STRNCPY?STRNCPY
  +--> ?PR?_ATOI?ATOI

?PR?_ATOI?ATOI                                   0024H.7  0000H.1    -----    -----      0213H    0005H
  +--> ?PR?_ISSPACE?ISSPACE
  +--> ?PR?_ISDIGIT?ISDIGIT

?PR?SET_SYS_TO_SMART_MODE?SYS_RUN                -----    -----      -----    -----      -----    -----
  +--> ?PR?_TM1620_LED_CONTROL?TM1620

?PR?STOP_SYS_SMART_MODE?SYS_RUN                  -----    -----      -----    -----      -----    -----
  +--> ?PR?_TM1620_LED_CONTROL?TM1620

?PR?_SET_DC_MOTOR_SPEED?DC_MOTOR                 -----    -----      -----    -----      -----    -----
  +--> ?PR?_TM1620_LED_CONTROL?TM1620

?PR?UV_ON?UV                                     -----    -----      -----    -----      -----    -----
BL51 BANKED LINKER/LOCATER V6.22                                                      12/29/2017  16:22:32  PAGE 11


  +--> ?PR?_TM1620_LED_CONTROL?TM1620

?PR?UV_OFF?UV                                    -----    -----      -----    -----      -----    -----
  +--> ?PR?_TM1620_LED_CONTROL?TM1620

?PR?ION_ON?ION                                   -----    -----      -----    -----      -----    -----
  +--> ?PR?_TM1620_LED_CONTROL?TM1620

?PR?ION_OFF?ION                                  -----    -----      -----    -----      -----    -----
  +--> ?PR?_TM1620_LED_CONTROL?TM1620

?PR?DOOR_OPEN?STEP_MOTOR                         -----    -----      -----    -----      -----    -----
  +--> ?PR?GET_SYS_STIME?TIMER_1
  +--> ?PR?_STARTMOTOR?STEP_MOTOR

?PR?STOP_SYS_AUTO_CHECK?SYS_RUN                  -----    -----      -----    -----      -----    -----
  +--> ?PR?SYS_CHECK_AUTO_RESULT_UPLOAD?SYS_RUN
  +--> ?PR?SYS_STOP?SYS_RUN

?PR?SYS_CHECK_AUTO_RESULT_UPLOAD?SYS_RUN         -----    -----      -----    -----      020EH    0001H
  +--> ?PR?_MYMEMSET?COMMON
  +--> ?CO?SYS_RUN
  +--> ?PR?PRINTF?PRINTF
  +--> ?PR?_MYSTRLEN?COMMON
  +--> ?PR?_DEBUG_UART_SENDBYTES?DEBUG_UART

?PR?SYS_STOP?SYS_RUN                             -----    -----      -----    -----      -----    -----
  +--> ?PR?GET_SYS_STIME?TIMER_1
  +--> ?PR?BUZZER_POWER_OFF?BUZZER
  +--> ?PR?STOP_DC_MOTOR?DC_MOTOR
  +--> ?PR?DOOR_CLOSE?STEP_MOTOR
  +--> ?PR?UV_OFF?UV
  +--> ?PR?ION_OFF?ION
  +--> ?PR?_TM1620_LED_CONTROL?TM1620
  +--> ?PR?STOP_SYS_SMART_MODE?SYS_RUN

?PR?BUZZER_POWER_OFF?BUZZER                      -----    -----      -----    -----      -----    -----
  +--> ?PR?_BUZZERBEEP?BUZZER

?PR?START_SYS_MANUAL_CHECK?SYS_RUN               -----    -----      -----    -----      -----    -----
  +--> ?PR?GET_SYS_STIME?TIMER_1
  +--> ?PR?BUZZER_GET_CHARGE?BUZZER

?PR?BUZZER_GET_CHARGE?BUZZER                     -----    -----      -----    -----      -----    -----
  +--> ?PR?_BUZZERBEEP?BUZZER

?PR?STOP_SYS_MANUAL_CHECK?SYS_RUN                -----    -----      -----    -----      -----    -----
  +--> ?PR?SYS_CHECK_MANUAL_RESULT_UPLOAD?SY...
  +--> ?PR?BUZZER_GET_CHARGE?BUZZER

?PR?SYS_CHECK_MANUAL_RESULT_UPLOAD?SY...         -----    -----      -----    -----      020EH    0001H
  +--> ?PR?_MYMEMSET?COMMON
  +--> ?CO?SYS_RUN
  +--> ?PR?PRINTF?PRINTF
  +--> ?PR?_MYSTRLEN?COMMON
  +--> ?PR?_DEBUG_UART_SENDBYTES?DEBUG_UART

BL51 BANKED LINKER/LOCATER V6.22                                                      12/29/2017  16:22:32  PAGE 12


?PR?_STRING_GET_LONG?M26                         -----    -----      -----    -----      020EH    0005H
  +--> ?PR?_MYMEMSET?COMMON
  +--> ?PR?_STRNCPY?STRNCPY
  +--> ?PR?_ATOL?ATOL

?PR?_STRING_GET_STRING?M26                       -----    -----      -----    -----      020EH    0008H
  +--> ?PR?_STRLEN?STRLEN
  +--> ?PR?_MYMEMSET?COMMON
  +--> ?PR?_STRNCPY?STRNCPY

?PR?CHARGE_LEFTTIME_FLASH_WRITE?CHARGE           -----    -----      -----    -----      025DH    0001H
  +--> ?PR?_EEPROM_PAGE_ERASE?EEPROM
  +--> ?PR?_EEPROM_BYTE_PROGRAM?EEPROM

?PR?SYS_START?SYS_RUN                            -----    -----      -----    -----      -----    -----
  +--> ?PR?GET_SYS_STIME?TIMER_1
  +--> ?PR?UV_ON?UV
  +--> ?PR?ION_ON?ION
  +--> ?PR?BUZZER_POWER_ON?BUZZER
  +--> ?PR?DOOR_OPEN?STEP_MOTOR
  +--> ?PR?START_DC_MOTOR?DC_MOTOR
  +--> ?PR?_TM1620_LED_CONTROL?TM1620

?PR?START_DC_MOTOR?DC_MOTOR                      -----    -----      -----    -----      -----    -----
  +--> ?PR?_PWM_SET_DUTY?PWM1

?PR?M26_RESTART?M26                              -----    -----      -----    -----      -----    -----
  +--> ?PR?M26_POWER_OFF?M26
  +--> ?PR?M26_POWER_ON?M26
  +--> ?PR?M26_WAKEUP?M26
  +--> ?PR?_MYMEMSET?COMMON
  +--> ?CO?M26
  +--> ?PR?PRINTF?PRINTF
  +--> ?PR?_STRLEN?STRLEN
  +--> ?PR?_DEBUG_UART_SENDBYTES?DEBUG_UART

?PR?CHARGE_LEFTTIME_COUNT?CHARGE                 -----    -----      -----    -----      0201H    0005H
  +--> ?CO?CHARGE
  +--> ?PR?GET_SYS_STIME?TIMER_1
  +--> ?PR?CHARGE_LEFTTIME_FLASH_WRITE?CHARGE
  +--> ?PR?_MYMEMSET?COMMON
  +--> ?PR?PRINTF?PRINTF
  +--> ?PR?_STRLEN?STRLEN
  +--> ?PR?_DEBUG_UART_SENDBYTES?DEBUG_UART

?PR?DISPLAY_PM_DATA?SYS_RUN                      -----    -----      -----    -----      -----    -----
  +--> ?PR?GET_SYS_STIME?TIMER_1
  +--> ?PR?READ_PMSENSOR_DATA?SENSOR
  +--> ?PR?_TM1620_DISPALYDATA?TM1620

?PR?READ_PMSENSOR_DATA?SENSOR                    -----    -----      -----    -----      0201H    0008H
  +--> ?CO?SENSOR
  +--> ?PR?_SET_SENSOR_SDA_PIN_MODE?SENSOR
  +--> ?PR?_SET_SENSOR_SCL_PIN_MODE?SENSOR
  +--> ?PR?SENSOR_I2C_DELAY?SENSOR
  +--> ?PR?SENSOR_IIC_SDA_1?SENSOR
  +--> ?PR?SENSOR_IIC_SDA_0?SENSOR
BL51 BANKED LINKER/LOCATER V6.22                                                      12/29/2017  16:22:32  PAGE 13


  +--> ?PR?SENSOR_IIC_SCL_1?SENSOR
  +--> ?PR?SENSOR_IIC_SCL_0?SENSOR
  +--> ?PR?SENSOR_IIC_SDA_READ?SENSOR
  +--> ?PR?_I2C_WRITEBYTES?SOFT_IIC
  +--> ?PR?_I2C_READBYTES?SOFT_IIC

?PR?_I2C_WRITEBYTES?SOFT_IIC                     -----    -----      -----    -----      020AH    0006H
  +--> ?PR?I2C_STOP?SOFT_IIC
  +--> ?PR?I2C_START?SOFT_IIC
  +--> ?PR?_I2C_SENDONEBYTE?SOFT_IIC
  +--> ?PR?I2C_WAITACK?SOFT_IIC
  +--> ?PR?_I2C_DELAY1?SOFT_IIC

?PR?_I2C_SENDONEBYTE?SOFT_IIC                    -----    -----      -----    -----      0210H    0003H

?PR?I2C_WAITACK?SOFT_IIC                         -----    -----      -----    -----      0210H    0001H

?PR?_I2C_READBYTES?SOFT_IIC                      -----    -----      -----    -----      020AH    0006H
  +--> ?PR?I2C_START?SOFT_IIC
  +--> ?PR?_I2C_SENDONEBYTE?SOFT_IIC
  +--> ?PR?I2C_WAITACK?SOFT_IIC
  +--> ?PR?_I2C_DELAY1?SOFT_IIC
  +--> ?PR?I2C_READONEBYTE?SOFT_IIC
  +--> ?PR?I2C_NACK?SOFT_IIC
  +--> ?PR?I2C_ACK?SOFT_IIC
  +--> ?PR?I2C_STOP?SOFT_IIC

?PR?I2C_READONEBYTE?SOFT_IIC                     -----    -----      -----    -----      0210H    0002H

?PR?CHECK_IF_CLOSE_DOOR?STEP_MOTOR               -----    -----      -----    -----      -----    -----
  +--> ?PR?GET_SYS_STIME?TIMER_1
  +--> ?CO?STEP_MOTOR
  +--> ?PR?DOOR_CLOSE?STEP_MOTOR

?PR?M26_SIGNAL_CHECK?M26                         -----    -----      -----    -----      -----    -----
  +--> ?PR?_TM1620_DISPALYDATA?TM1620
  +--> ?PR?BUZZER_SIGNAL_CHECK?BUZZER

?PR?BUZZER_SIGNAL_CHECK?BUZZER                   -----    -----      -----    -----      -----    -----
  +--> ?PR?_BUZZERBEEP?BUZZER

?PR?CHECK_IF_STOP_MANUAL_CHECK?SYS_RUN           -----    -----      -----    -----      0201H    0004H
  +--> ?PR?GET_SYS_STIME?TIMER_1
  +--> ?PR?STOP_SYS_MANUAL_CHECK?SYS_RUN

?PR?M26_FOGCLOUD_INIT_AND_CHECK?M26              -----    -----      -----    -----      -----    -----
  +--> ?PR?M26_RESTART?M26
  +--> ?PR?WIFI_LED_OFF?M26
  +--> ?PR?WIFI_LED_ON?M26
  +--> ?PR?M26_GET_SIGNAL_QUALITY?M26
  +--> ?PR?M26_REGISTER_TO_NET?M26
  +--> ?PR?M26_DEVICE_ACTIVATE?M26
  +--> ?PR?M26_OTA_CHECK?M26

?PR?WIFI_LED_OFF?M26                             -----    -----      -----    -----      -----    -----
  +--> ?PR?_TM1620_LED_CONTROL?TM1620

BL51 BANKED LINKER/LOCATER V6.22                                                      12/29/2017  16:22:32  PAGE 14


?PR?WIFI_LED_ON?M26                              -----    -----      -----    -----      -----    -----
  +--> ?PR?_TM1620_LED_CONTROL?TM1620

?PR?M26_GET_SIGNAL_QUALITY?M26                   -----    -----      -----    -----      -----    -----
  +--> ?PR?_MYMEMSET?COMMON
  +--> ?CO?M26
  +--> ?PR?_MAKE_M26_SEND_STRING?M26
  +--> ?PR?_M26_SEND_DATA?M26

?PR?M26_REGISTER_TO_NET?M26                      -----    -----      -----    -----      0201H    0001H
  +--> ?PR?_MYMEMSET?COMMON
  +--> ?CO?M26
  +--> ?PR?_MAKE_M26_SEND_STRING?M26
  +--> ?PR?_M26_SEND_DATA?M26

?PR?SYS_RUN?SYS_RUN                              -----    -----      -----    -----      0201H    0001H
  +--> ?PR?CLEAR_TOUCH_INFO?TOUCH_KEY
  +--> ?PR?_TM1620_DISPALYDATA?TM1620
  +--> ?PR?BUZZER_SIGNAL_CHECK?BUZZER
  +--> ?PR?CHECK_IF_DOORCLOSE_MANUAL?SYS_RUN
  +--> ?PR?SYS_START?SYS_RUN
  +--> ?PR?SYS_STOP?SYS_RUN
  +--> ?PR?BUZZER_SPEED?BUZZER
  +--> ?PR?_SET_DC_MOTOR_SPEED?DC_MOTOR
  +--> ?PR?STOP_SYS_SMART_MODE?SYS_RUN
  +--> ?PR?SYS_SMART_MODE?SYS_RUN

?PR?CHECK_IF_DOORCLOSE_MANUAL?SYS_RUN            -----    -----      -----    -----      -----    -----
  +--> ?PR?GET_SYS_STIME?TIMER_1
  +--> ?PR?SYS_STOP?SYS_RUN

?PR?BUZZER_SPEED?BUZZER                          -----    -----      -----    -----      -----    -----
  +--> ?PR?_BUZZERBEEP?BUZZER

?PR?SYS_SMART_MODE?SYS_RUN                       -----    -----      -----    -----      -----    -----
  +--> ?PR?GET_SYS_STIME?TIMER_1
  +--> ?CO?SYS_RUN
  +--> ?PR?_TM1620_LED_CONTROL?TM1620

?PR?DIRECTMOTOR?DC_MOTOR                         -----    -----      -----    -----      0201H    0002H
  +--> ?PR?GET_SYS_STIME?TIMER_1
  +--> ?CO?DC_MOTOR
  +--> ?PR?_PWM_SET_DUTY?PWM1

?PR?SCAN_TOUCHPAD?TOUCH_KEY                      -----    -----      -----    -----      0201H    0005H
  +--> ?CO?TOUCH_KEY
  +--> ?PR?_GET_KEY_STATUS?TOUCH_KEY
  +--> ?PR?CLEAR_TOUCH_INFO?TOUCH_KEY

?PR?_GET_KEY_STATUS?TOUCH_KEY                    -----    -----      -----    -----      0206H    0004H
  +--> ?PR?_SET_KEY_SDA_PIN_MODE?TOUCH_KEY
  +--> ?PR?_SET_KEY_SCL_PIN_MODE?TOUCH_KEY
  +--> ?PR?KEY_I2C_DELAY?TOUCH_KEY
  +--> ?PR?KEY_IIC_SDA_1?TOUCH_KEY
  +--> ?PR?KEY_IIC_SDA_0?TOUCH_KEY
  +--> ?PR?KEY_IIC_SCL_1?TOUCH_KEY
  +--> ?PR?KEY_IIC_SCL_0?TOUCH_KEY
BL51 BANKED LINKER/LOCATER V6.22                                                      12/29/2017  16:22:32  PAGE 15


  +--> ?PR?KEY_IIC_SDA_READ?TOUCH_KEY
  +--> ?PR?_I2C_WRITEBYTES?SOFT_IIC
  +--> ?PR?_I2C_READBYTES?SOFT_IIC

?PR?M26_HTTP_LOOP?M26                            -----    -----      -----    -----      0201H    0002H
  +--> ?PR?_MYMEMSET?COMMON
  +--> ?CO?M26
  +--> ?PR?PRINTF?PRINTF
  +--> ?PR?_STRCAT?STRCAT
  +--> ?PR?_STRLEN?STRLEN
  +--> ?PR?_MYSTRLEN?COMMON
  +--> ?PR?_DEBUG_UART_SENDBYTES?DEBUG_UART
  +--> ?PR?_MAKE_M26_SEND_STRING?M26
  +--> ?PR?_M26_SEND_DATA?M26

?PR?M26_UPLOAD_DATA?M26                          -----    -----      -----    -----      -----    -----
  +--> ?PR?GET_SYS_STIME?TIMER_1

?PR?M26_STATUS_SYNC?M26                          -----    -----      -----    -----      -----    -----
  +--> ?PR?GET_SYS_MSTIME?TIMER_1
  +--> ?CO?M26

?PR?SYS_DEV_AUTO_CHECK?SYS_RUN                   -----    -----      -----    -----      -----    -----
  +--> ?PR?SYS_STOP?SYS_RUN
  +--> ?PR?SYS_START?SYS_RUN
  +--> ?PR?GET_SYS_STIME?TIMER_1
  +--> ?CO?SYS_RUN
  +--> ?PR?STOP_SYS_AUTO_CHECK?SYS_RUN

?PR?DCMOTO_ADJ?DC_MOTOR                          -----    -----      -----    -----      -----    -----
  +--> ?PR?_PWM_SET_DUTY?PWM1

?PR?UV_CHECK?UV                                  -----    -----      -----    -----      -----    -----
  +--> ?PR?GET_UV_ADC_DATA?UV
  +--> ?PR?UV_ADC_START?UV
  +--> ?PR?UV_OFF?UV

?PR?UV_ADC_START?UV                              -----    -----      -----    -----      -----    -----
  +--> ?PR?_ADCSTART?ADC

*** NEW ROOT ***************************************************

?PR?ADCINTERRUPT?ADC                             -----    -----      -----    -----      -----    -----
  +--> ?PR?ADC_READ12?ADC

*** NEW ROOT ***************************************************

?PR?LVI?LVI_LVR                                  -----    -----      -----    -----      0258H    0005H
  +--> ?CO?LVI_LVR
  +--> ?PR?CHARGE_LEFTTIME_FLASH_WRITE?CHARGE
  +--> ?PR?_MYMEMSET?COMMON
  +--> ?PR?PRINTF?PRINTF
  +--> ?PR?_MYSTRLEN?COMMON
  +--> ?PR?_DEBUG_UART_SENDBYTES?DEBUG_UART



BL51 BANKED LINKER/LOCATER V6.22                                                      12/29/2017  16:22:32  PAGE 16


SYMBOL TABLE OF MODULE:  .\Objects\OB39R32T1 (?C_STARTUP)

  VALUE           TYPE          NAME
  ----------------------------------

  -------         MODULE        ?C_STARTUP
  C:6314H         SEGMENT       ?C_C51STARTUP
  I:00C6H         SEGMENT       ?STACK
  C:0000H         PUBLIC        ?C_STARTUP
  D:00E0H         SYMBOL        ACC
  D:00F0H         SYMBOL        B
  D:0083H         SYMBOL        DPH
  D:0082H         SYMBOL        DPL
  N:0000H         SYMBOL        IBPSTACK
  N:0100H         SYMBOL        IBPSTACKTOP
  N:0080H         SYMBOL        IDATALEN
  C:6317H         SYMBOL        IDATALOOP
  N:0000H         SYMBOL        PBPSTACK
  N:0100H         SYMBOL        PBPSTACKTOP
  N:0000H         SYMBOL        PDATALEN
  N:0000H         SYMBOL        PDATASTART
  N:0000H         SYMBOL        PPAGE
  N:0000H         SYMBOL        PPAGEENABLE
  D:00A0H         SYMBOL        PPAGE_SFR
  D:0081H         SYMBOL        SP
  C:6314H         SYMBOL        STARTUP1
  N:0000H         SYMBOL        XBPSTACK
  N:0000H         SYMBOL        XBPSTACKTOP
  N:0000H         SYMBOL        XDATALEN
  N:0000H         SYMBOL        XDATASTART
  C:0000H         LINE#         126
  C:6314H         LINE#         133
  C:6316H         LINE#         134
  C:6317H         LINE#         135
  C:6318H         LINE#         136
  C:631AH         LINE#         185
  C:631DH         LINE#         196
  -------         ENDMOD        ?C_STARTUP

  -------         MODULE        MAIN
  C:0000H         SYMBOL        _ICE_DUMMY_
  D:0080H         PUBLIC        P0
  D:0090H         PUBLIC        P1
  D:00A0H         PUBLIC        P2
  D:00B0H         PUBLIC        P3
  D:00B8H         PUBLIC        IEN1
  D:00A8H         PUBLIC        IE
  C:42F4H         PUBLIC        main
  D:00E0H         PUBLIC        ACC
  D:00F8H         PUBLIC        IIC0S
  D:00E8H         PUBLIC        IIC1S
  D:0098H         PUBLIC        S0CON
  D:0088H         PUBLIC        TCON0
  D:00D8H         PUBLIC        TCON1
  D:00D0H         PUBLIC        PSW
  D:00C0H         PUBLIC        IRCON
  -------         PROC          MAIN
BL51 BANKED LINKER/LOCATER V6.22                                                      12/29/2017  16:22:32  PAGE 17


  -------         DO            
  X:01FDH         SYMBOL        times_1s
  -------         ENDDO         
  C:42F4H         LINE#         67
  C:42F4H         LINE#         68
  C:42F4H         LINE#         70
  C:42FEH         LINE#         73
  C:4301H         LINE#         74
  C:4304H         LINE#         75
  C:4307H         LINE#         77
  C:430AH         LINE#         79
  C:430DH         LINE#         80
  C:4310H         LINE#         81
  C:4313H         LINE#         84
  C:4316H         LINE#         88
  C:4319H         LINE#         89
  C:431CH         LINE#         90
  C:431FH         LINE#         91
  C:4322H         LINE#         95
  C:4325H         LINE#         97
  C:4328H         LINE#         98
  C:432BH         LINE#         99
  C:432EH         LINE#         103
  C:4333H         LINE#         104
  C:4335H         LINE#         108
  C:4338H         LINE#         109
  C:4347H         LINE#         110
  C:434EH         LINE#         111
  C:4355H         LINE#         112
  C:435CH         LINE#         115
  C:435FH         LINE#         116
  C:4362H         LINE#         121
  C:4365H         LINE#         126
  C:4368H         LINE#         127
  C:436BH         LINE#         135
  C:4370H         LINE#         136
  C:4372H         LINE#         139
  C:4372H         LINE#         140
  C:4372H         LINE#         147
  C:4381H         LINE#         148
  C:4381H         LINE#         149
  C:4383H         LINE#         150
  C:43A2H         LINE#         154
  C:43A5H         LINE#         162
  C:43A8H         LINE#         166
  C:43ABH         LINE#         170
  C:43AEH         LINE#         172
  C:43AEH         LINE#         173
  C:43AEH         LINE#         175
  C:43AEH         LINE#         176
  C:43D9H         LINE#         177
  C:43D9H         LINE#         178
  C:43E8H         LINE#         179
  C:4419H         LINE#         180
  C:442DH         LINE#         181
  C:442DH         LINE#         188
  C:4441H         LINE#         191
BL51 BANKED LINKER/LOCATER V6.22                                                      12/29/2017  16:22:32  PAGE 18


  C:4444H         LINE#         192
  C:4444H         LINE#         193
  C:4447H         LINE#         194
  C:4447H         LINE#         198
  C:444AH         LINE#         201
  C:444AH         LINE#         203
  C:4456H         LINE#         204
  C:4456H         LINE#         205
  C:4458H         LINE#         206
  C:445BH         LINE#         207
  C:445EH         LINE#         208
  C:445EH         LINE#         210
  C:446AH         LINE#         211
  C:446AH         LINE#         212
  C:446CH         LINE#         213
  C:446FH         LINE#         214
  C:446FH         LINE#         216
  C:447BH         LINE#         217
  C:447BH         LINE#         218
  C:447DH         LINE#         219
  C:4480H         LINE#         221
  C:4483H         LINE#         222
  C:4486H         LINE#         223
  C:4489H         LINE#         226
  C:448CH         LINE#         229
  C:448FH         LINE#         231
  C:448FH         LINE#         233
  C:449EH         LINE#         234
  C:449EH         LINE#         235
  C:44A0H         LINE#         237
  C:44A3H         LINE#         238
  C:44A3H         LINE#         239
  C:44A6H         LINE#         240
  C:44A6H         LINE#         242
  C:44ADH         LINE#         243
  C:44AFH         LINE#         245
  C:44B2H         LINE#         246
  C:44B5H         LINE#         247
  C:44B5H         LINE#         250
  -------         ENDPROC       MAIN
  -------         ENDMOD        MAIN

  -------         MODULE        DATA
  C:0000H         SYMBOL        _ICE_DUMMY_
  D:0080H         PUBLIC        P0
  B:0020H.0       PUBLIC        Is_signal_check
  D:0090H         PUBLIC        P1
  D:00A0H         PUBLIC        P2
  D:00B0H         PUBLIC        P3
  X:0000H         PUBLIC        U3TxBitCount
  X:0001H         PUBLIC        sys_start_time
  X:0005H         PUBLIC        PM25_value
  B:0020H.1       PUBLIC        g_10ms_flag
  B:0020H.2       PUBLIC        IsUVfault
  I:0028H         PUBLIC        U0RxPtr
  X:0009H         PUBLIC        gBuzzerEdge_cnt
  X:000BH         PUBLIC        U3TxPtr
BL51 BANKED LINKER/LOCATER V6.22                                                      12/29/2017  16:22:32  PAGE 19


  D:00B8H         PUBLIC        IEN1
  D:00A8H         PUBLIC        IE
  B:0020H.3       PUBLIC        is_upload_manual_check_result
  B:0020H.4       PUBLIC        Is_close_by_man
  I:0029H         PUBLIC        speed_dang
  X:000CH         PUBLIC        beats
  X:0010H         PUBLIC        signal_check_err_times
  X:0011H         PUBLIC        ccid
  X:002AH         PUBLIC        PM25_value_bak
  B:0020H.5       PUBLIC        IsStepMotorBusy
  X:002EH         PUBLIC        pwmDLbak
  B:0020H.6       PUBLIC        resync
  B:0020H.7       PUBLIC        is_auto_check_complete
  X:0030H         PUBLIC        gBuzzerTimes_cnt
  B:0021H.0       PUBLIC        is_sys_auto_check
  X:0032H         PUBLIC        sys_stop_time
  B:0021H.1       PUBLIC        gbMotorFGEn
  X:0036H         PUBLIC        device_id
  B:0021H.2       PUBLIC        Is_ION_On
  I:002AH         PUBLIC        speedBak
  B:0021H.3       PUBLIC        IsUVOn
  B:0021H.4       PUBLIC        Is_Door_Open
  B:0021H.5       PUBLIC        dr_confirm
  I:002BH         PUBLIC        U0RxBuffer
  B:0021H.6       PUBLIC        Is_Get_CCID
  X:005EH         PUBLIC        U3TxBuffer
  B:0021H.7       PUBLIC        g_100ms_flag
  B:0022H.0       PUBLIC        IsU3TxBusy
  X:00F4H         PUBLIC        next_upload_data_time
  X:00F8H         PUBLIC        display_pm_value
  B:0022H.1       PUBLIC        IsFanRunning
  I:00BCH         PUBLIC        FGcount
  B:0022H.2       PUBLIC        charge_confirm
  D:00E0H         PUBLIC        ACC
  B:0022H.3       PUBLIC        is_upload_auto_check_result
  B:0022H.4       PUBLIC        Is_device_activate
  B:0022H.5       PUBLIC        dev_status
  X:00FAH         PUBLIC        nowtime_ms
  B:0022H.6       PUBLIC        uv_check_flag
  B:0022H.7       PUBLIC        IsUVCheck
  B:0023H.0       PUBLIC        Is_selfcheck
  X:00FEH         PUBLIC        uv_check_timeinterval
  B:0023H.1       PUBLIC        wifi_led_state
  X:0100H         PUBLIC        sys_check_info
  X:0109H         PUBLIC        order_num
  B:0023H.2       PUBLIC        gbMotorDelay
  X:0132H         PUBLIC        uv_check_times
  B:0023H.3       PUBLIC        Is_send_dr_confirm
  X:0133H         PUBLIC        next_sync_mstime
  B:0023H.4       PUBLIC        g_1ms_flag
  B:0023H.5       PUBLIC        g_2ms_flag
  D:00F8H         PUBLIC        IIC0S
  D:00E8H         PUBLIC        IIC1S
  X:0137H         PUBLIC        nowtime_s
  X:013BH         PUBLIC        door_open_time
  B:0023H.6       PUBLIC        run_mode
  B:0023H.7       PUBLIC        IsSpeedChanged
BL51 BANKED LINKER/LOCATER V6.22                                                      12/29/2017  16:22:32  PAGE 20


  B:0024H.0       PUBLIC        is_sys_manual_check
  B:0024H.1       PUBLIC        is_m26_fogcloud_init
  B:0024H.2       PUBLIC        Is_m26_wakeup
  X:013FH         PUBLIC        U3TxRate
  D:0098H         PUBLIC        S0CON
  D:0088H         PUBLIC        TCON0
  D:00D8H         PUBLIC        TCON1
  B:0024H.3       PUBLIC        sys_mode
  B:0024H.4       PUBLIC        g_1s_flag
  B:0024H.5       PUBLIC        Is_signal_err_code_zero
  I:00BDH         PUBLIC        g_1s_times
  X:0140H         PUBLIC        U3LdPtr
  B:0024H.6       PUBLIC        sync_this_loop
  I:00C1H         PUBLIC        gBMotorFGSet
  D:00D0H         PUBLIC        PSW
  I:00C2H         PUBLIC        g_sys_time_ms
  D:00C0H         PUBLIC        IRCON
  -------         ENDMOD        DATA

  -------         MODULE        UART0
  C:0000H         SYMBOL        _ICE_DUMMY_
  D:0080H         PUBLIC        P0
  D:0090H         PUBLIC        P1
  D:00A0H         PUBLIC        P2
  D:00B0H         PUBLIC        P3
  C:0026H         PUBLIC        init_UART0
  X:02E7H         PUBLIC        test_i
  D:00A8H         PUBLIC        IEN0
  D:00B8H         PUBLIC        IEN1
  D:00A8H         PUBLIC        IE
  B:0027H.5       PUBLIC        bU0TX
  B:0098H.0       PUBLIC        RI
  B:0098H.1       PUBLIC        TI
  D:00BAH         PUBLIC        S0RELH
  D:0087H         PUBLIC        PCON
  D:00AAH         PUBLIC        S0RELL
  C:6EEEH         PUBLIC        UART0_ISR
  D:00E0H         PUBLIC        ACC
  D:00F8H         PUBLIC        IIC0S
  D:00E8H         PUBLIC        IIC1S
  D:0099H         PUBLIC        S0BUF
  D:0098H         PUBLIC        S0CON
  D:0088H         PUBLIC        TCON0
  D:00D8H         PUBLIC        TCON1
  D:0091H         PUBLIC        AUX
  C:0003H         PUBLIC        _UART0_TX
  D:00D0H         PUBLIC        PSW
  D:00C0H         PUBLIC        IRCON
  -------         PROC          INIT_UART0
  C:0026H         LINE#         19
  C:0026H         LINE#         20
  C:0026H         LINE#         21
  C:0029H         LINE#         22
  C:002CH         LINE#         23
  C:002FH         LINE#         24
  C:0032H         LINE#         25
  C:0035H         LINE#         26
BL51 BANKED LINKER/LOCATER V6.22                                                      12/29/2017  16:22:32  PAGE 21


  C:0038H         LINE#         27
  C:003AH         LINE#         28
  -------         ENDPROC       INIT_UART0
  -------         PROC          UART0_ISR
  C:6EEEH         LINE#         30
  C:6EF9H         LINE#         34
  C:6EFCH         LINE#         35
  C:6EFCH         LINE#         36
  C:6EFEH         LINE#         37
  C:6F07H         LINE#         38
  C:6F07H         LINE#         39
  C:6F0DH         LINE#         40
  C:6F10H         LINE#         41
  C:6F10H         LINE#         43
  C:6F12H         LINE#         45
  C:6F12H         LINE#         46
  C:6F14H         LINE#         47
  C:6F16H         LINE#         48
  C:6F16H         LINE#         51
  -------         ENDPROC       UART0_ISR
  -------         PROC          _UART0_TX
  D:0007H         SYMBOL        n_temp0
  C:0003H         LINE#         53
  C:0003H         LINE#         54
  C:0003H         LINE#         55
  C:0005H         LINE#         56
  C:0007H         LINE#         57
  C:000AH         LINE#         58
  C:000AH         LINE#         60
  C:000AH         LINE#         61
  -------         ENDPROC       _UART0_TX
  -------         ENDMOD        UART0

  -------         MODULE        DEBUG_UART
  C:0000H         SYMBOL        _ICE_DUMMY_
  D:00D3H         PUBLIC        P0M1
  C:652AH         PUBLIC        _DEBUG_Uart_Sendbytes
  D:0080H         PUBLIC        P0
  D:0090H         PUBLIC        P1
  D:00A0H         PUBLIC        P2
  D:00B0H         PUBLIC        P3
  D:00B8H         PUBLIC        IEN1
  D:00A8H         PUBLIC        IE
  B:0080H.3       PUBLIC        P0_3
  B:0080H.4       PUBLIC        P0_4
  D:00E0H         PUBLIC        ACC
  D:00F8H         PUBLIC        IIC0S
  D:00E8H         PUBLIC        IIC1S
  C:7310H         PUBLIC        DEBUG_Uart_Init
  D:0098H         PUBLIC        S0CON
  D:0088H         PUBLIC        TCON0
  D:00D8H         PUBLIC        TCON1
  D:00D0H         PUBLIC        PSW
  D:00C0H         PUBLIC        IRCON
  D:00D2H         PUBLIC        P0M0
  -------         PROC          DEBUG_UART_INIT
  C:7310H         LINE#         6
BL51 BANKED LINKER/LOCATER V6.22                                                      12/29/2017  16:22:32  PAGE 22


  C:7310H         LINE#         7
  C:7310H         LINE#         9
  C:7313H         LINE#         10
  C:7316H         LINE#         12
  C:7319H         LINE#         13
  C:731CH         LINE#         15
  C:731EH         LINE#         16
  C:7320H         LINE#         21
  -------         ENDPROC       DEBUG_UART_INIT
  -------         PROC          _DEBUG_UART_SENDBYTES
  X:025DH         SYMBOL        sendbuff
  X:0260H         SYMBOL        sendnum
  -------         DO            
  X:0261H         SYMBOL        i
  -------         ENDDO         
  C:652AH         LINE#         23
  C:6538H         LINE#         24
  C:6538H         LINE#         25
  C:653BH         LINE#         27
  C:654FH         LINE#         28
  C:654FH         LINE#         30
  C:654FH         LINE#         31
  C:655FH         LINE#         32
  C:655FH         LINE#         33
  C:658AH         LINE#         34
  C:6592H         LINE#         35
  C:6598H         LINE#         36
  C:659BH         LINE#         37
  C:659BH         LINE#         38
  C:65A1H         LINE#         39
  C:65A7H         LINE#         40
  C:65A7H         LINE#         42
  -------         ENDPROC       _DEBUG_UART_SENDBYTES
  -------         ENDMOD        DEBUG_UART

  -------         MODULE        SOFT_UART_1
  C:0000H         SYMBOL        _ICE_DUMMY_
  D:0080H         PUBLIC        P0
  D:0090H         PUBLIC        P1
  D:00A0H         PUBLIC        P2
  C:5F8DH         PUBLIC        TIMER0_ISR
  D:00B0H         PUBLIC        P3
  B:00A8H.7       PUBLIC        EA
  D:00B8H         PUBLIC        IEN1
  D:00A8H         PUBLIC        IE
  X:02DAH         SYMBOL        U2RxRate_bk
  X:02DBH         SYMBOL        U2TxRate_bk
  X:02DCH         SYMBOL        U3TxRate_bk
  B:0080H.4       PUBLIC        P0_4
  C:000EH         PUBLIC        Timer0_Init
  C:7494H         PUBLIC        Soft_UART_Init
  D:0089H         PUBLIC        TMOD
  D:00E0H         PUBLIC        ACC
  B:00A8H.1       PUBLIC        ET0
  D:008CH         PUBLIC        TH0
  B:0088H.4       PUBLIC        TR0
  D:00F8H         PUBLIC        IIC0S
BL51 BANKED LINKER/LOCATER V6.22                                                      12/29/2017  16:22:32  PAGE 23


  D:00E8H         PUBLIC        IIC1S
  D:0098H         PUBLIC        S0CON
  D:0088H         PUBLIC        TCON0
  D:00D8H         PUBLIC        TCON1
  D:00D0H         PUBLIC        PSW
  D:00C0H         PUBLIC        IRCON
  -------         PROC          TIMER0_INIT
  C:000EH         LINE#         46
  C:000EH         LINE#         47
  C:000EH         LINE#         48
  C:0010H         LINE#         49
  C:0013H         LINE#         50
  C:0016H         LINE#         52
  C:0018H         LINE#         53
  C:001AH         LINE#         54
  -------         ENDPROC       TIMER0_INIT
  -------         PROC          SOFT_UART_INIT
  C:7494H         LINE#         56
  C:7494H         LINE#         57
  C:7494H         LINE#         58
  C:7497H         LINE#         68
  C:749DH         LINE#         69
  -------         ENDPROC       SOFT_UART_INIT
  -------         PROC          TIMER0_ISR
  -------         DO            
  X:02D9H         SYMBOL        U3TxBuf
  -------         ENDDO         
  C:5F8DH         LINE#         80
  C:5F9AH         LINE#         250
  C:5FA3H         LINE#         251
  C:5FABH         LINE#         252
  C:5FB3H         LINE#         254
  C:5FC3H         LINE#         255
  C:5FC3H         LINE#         256
  C:5FC5H         LINE#         257
  C:5FD1H         LINE#         258
  C:5FE4H         LINE#         259
  C:5FEAH         LINE#         260
  C:5FECH         LINE#         261
  C:5FECH         LINE#         262
  C:5FF1H         LINE#         263
  C:5FF5H         LINE#         264
  C:5FF7H         LINE#         265
  C:5FF7H         LINE#         266
  C:5FF9H         LINE#         268
  C:5FF9H         LINE#         269
  C:5FFBH         LINE#         270
  C:5FFDH         LINE#         271
  C:6003H         LINE#         272
  C:6003H         LINE#         273
  C:6016H         LINE#         274
  C:6016H         LINE#         275
  C:6018H         LINE#         277
  C:6018H         LINE#         278
  C:6020H         LINE#         279
  C:6024H         LINE#         280
  C:6024H         LINE#         282
BL51 BANKED LINKER/LOCATER V6.22                                                      12/29/2017  16:22:32  PAGE 24


  C:6024H         LINE#         283
  C:6024H         LINE#         284
  C:6024H         LINE#         287
  -------         ENDPROC       TIMER0_ISR
  -------         ENDMOD        SOFT_UART_1

  -------         MODULE        WIFI_UART
  C:0000H         SYMBOL        _ICE_DUMMY_
  D:0080H         PUBLIC        P0
  D:0090H         PUBLIC        P1
  D:00A0H         PUBLIC        P2
  D:00B0H         PUBLIC        P3
  D:00B8H         PUBLIC        IEN1
  D:00A8H         PUBLIC        IE
  C:6D5BH         PUBLIC        _Wifi_Uart_Sendbytes
  D:00E0H         PUBLIC        ACC
  D:00F8H         PUBLIC        IIC0S
  D:00E8H         PUBLIC        IIC1S
  D:0098H         PUBLIC        S0CON
  D:0088H         PUBLIC        TCON0
  D:00D8H         PUBLIC        TCON1
  D:00D0H         PUBLIC        PSW
  D:00C0H         PUBLIC        IRCON
  -------         PROC          _WIFI_UART_SENDBYTES
  X:0228H         SYMBOL        sendbuff
  X:022BH         SYMBOL        sendnum
  -------         DO            
  X:022CH         SYMBOL        i
  -------         ENDDO         
  C:6D5BH         LINE#         72
  C:6D69H         LINE#         73
  C:6D69H         LINE#         74
  C:6D6CH         LINE#         76
  C:6D79H         LINE#         77
  C:6D79H         LINE#         78
  C:6D90H         LINE#         79
  C:6D98H         LINE#         80
  -------         ENDPROC       _WIFI_UART_SENDBYTES
  -------         ENDMOD        WIFI_UART

  -------         MODULE        SOFT_IIC
  C:0000H         SYMBOL        _ICE_DUMMY_
  D:0080H         PUBLIC        P0
  D:0090H         PUBLIC        P1
  D:00A0H         PUBLIC        P2
  D:00B0H         PUBLIC        P3
  D:00B8H         PUBLIC        IEN1
  D:00A8H         PUBLIC        IE
  C:72DAH         SYMBOL        _i2c_delay1
  C:6286H         PUBLIC        _I2C_ReadBytes
  C:68B4H         PUBLIC        I2C_Ack
  C:60CFH         PUBLIC        _I2C_WriteBytes
  C:642BH         PUBLIC        I2C_WaitAck
  D:00E0H         PUBLIC        ACC
  C:669CH         PUBLIC        I2C_start
  C:6622H         PUBLIC        I2C_ReadOneByte
  D:00F8H         PUBLIC        IIC0S
BL51 BANKED LINKER/LOCATER V6.22                                                      12/29/2017  16:22:32  PAGE 25


  D:00E8H         PUBLIC        IIC1S
  X:028DH         PUBLIC        IIC_Operations
  D:0098H         PUBLIC        S0CON
  D:0088H         PUBLIC        TCON0
  C:65A8H         PUBLIC        _I2C_SendOneByte
  D:00D8H         PUBLIC        TCON1
  C:6AA5H         PUBLIC        I2C_stop
  D:00D0H         PUBLIC        PSW
  D:00C0H         PUBLIC        IRCON
  C:6AFEH         PUBLIC        I2C_NAck
  -------         PROC          _I2C_DELAY1
  D:0006H         SYMBOL        num
  -------         DO            
  D:0004H         SYMBOL        i
  -------         ENDDO         
  C:72DAH         LINE#         58
  C:72DAH         LINE#         59
  C:72DAH         LINE#         60
  C:72DDH         LINE#         61
  C:72EBH         LINE#         62
  -------         ENDPROC       _I2C_DELAY1
  -------         PROC          I2C_START
  C:669CH         LINE#         67
  C:669CH         LINE#         68
  C:669CH         LINE#         69
  C:66ADH         LINE#         70
  C:66B9H         LINE#         71
  C:66C5H         LINE#         72
  C:66D1H         LINE#         73
  C:66DDH         LINE#         74
  C:66E9H         LINE#         75
  C:66F5H         LINE#         76
  C:6701H         LINE#         77
  -------         ENDPROC       I2C_START
  -------         PROC          I2C_STOP
  C:6AA5H         LINE#         82
  C:6AA5H         LINE#         83
  C:6AA5H         LINE#         84
  C:6AB6H         LINE#         85
  C:6AC2H         LINE#         86
  C:6ACEH         LINE#         87
  C:6ADAH         LINE#         88
  C:6AE6H         LINE#         89
  C:6AF2H         LINE#         90
  -------         ENDPROC       I2C_STOP
  -------         PROC          I2C_WAITACK
  -------         DO            
  X:0210H         SYMBOL        re
  -------         ENDDO         
  C:642BH         LINE#         102
  C:642BH         LINE#         103
  C:642BH         LINE#         104
  C:6430H         LINE#         106
  C:643CH         LINE#         108
  C:644DH         LINE#         110
  C:6459H         LINE#         111
  C:6465H         LINE#         112
BL51 BANKED LINKER/LOCATER V6.22                                                      12/29/2017  16:22:32  PAGE 26


  C:6471H         LINE#         114
  C:6480H         LINE#         115
  C:6480H         LINE#         116
  C:6486H         LINE#         117
  C:6488H         LINE#         119
  C:6488H         LINE#         120
  C:648DH         LINE#         121
  C:648DH         LINE#         122
  C:6499H         LINE#         123
  C:64A5H         LINE#         124
  C:64AAH         LINE#         125
  -------         ENDPROC       I2C_WAITACK
  -------         PROC          I2C_ACK
  C:68B4H         LINE#         128
  C:68B4H         LINE#         129
  C:68B4H         LINE#         130
  C:68C5H         LINE#         131
  C:68D1H         LINE#         132
  C:68DDH         LINE#         133
  C:68E9H         LINE#         134
  C:68F5H         LINE#         135
  C:6901H         LINE#         136
  C:690DH         LINE#         137
  -------         ENDPROC       I2C_ACK
  -------         PROC          I2C_NACK
  C:6AFEH         LINE#         149
  C:6AFEH         LINE#         150
  C:6AFEH         LINE#         151
  C:6B0FH         LINE#         152
  C:6B1BH         LINE#         153
  C:6B27H         LINE#         154
  C:6B33H         LINE#         155
  C:6B3FH         LINE#         156
  C:6B4BH         LINE#         157
  -------         ENDPROC       I2C_NACK
  -------         PROC          _I2C_SENDONEBYTE
  X:0210H         SYMBOL        a
  -------         DO            
  X:0211H         SYMBOL        temp
  X:0212H         SYMBOL        i
  D:0007H         SYMBOL        j
  -------         ENDDO         
  C:65A8H         LINE#         163
  C:65ADH         LINE#         164
  C:65ADH         LINE#         168
  C:65BEH         LINE#         169
  C:65C4H         LINE#         170
  C:65C7H         LINE#         171
  C:65C7H         LINE#         172
  C:65CDH         LINE#         173
  C:65CFH         LINE#         174
  C:65CFH         LINE#         175
  C:65D2H         LINE#         176
  C:65D4H         LINE#         178
  C:65D4H         LINE#         179
  C:65E0H         LINE#         180
  C:65E0H         LINE#         181
BL51 BANKED LINKER/LOCATER V6.22                                                      12/29/2017  16:22:32  PAGE 27


  C:65ECH         LINE#         182
  C:65F8H         LINE#         183
  C:6604H         LINE#         184
  C:6610H         LINE#         185
  C:6617H         LINE#         186
  C:6621H         LINE#         188
  -------         ENDPROC       _I2C_SENDONEBYTE
  -------         PROC          I2C_READONEBYTE
  -------         DO            
  X:0210H         SYMBOL        i
  X:0211H         SYMBOL        value
  -------         ENDDO         
  C:6622H         LINE#         191
  C:6622H         LINE#         192
  C:6622H         LINE#         197
  C:6627H         LINE#         198
  C:6638H         LINE#         199
  C:663DH         LINE#         200
  C:663DH         LINE#         201
  C:6644H         LINE#         202
  C:6650H         LINE#         203
  C:665CH         LINE#         204
  C:666BH         LINE#         205
  C:666BH         LINE#         206
  C:6672H         LINE#         207
  C:6672H         LINE#         208
  C:667EH         LINE#         209
  C:668AH         LINE#         210
  C:6696H         LINE#         211
  C:669BH         LINE#         212
  -------         ENDPROC       I2C_READONEBYTE
  -------         PROC          _I2C_READBYTES
  X:020AH         SYMBOL        ClientAddr
  X:020BH         SYMBOL        pBuffer
  X:020EH         SYMBOL        NumByteToRead
  -------         DO            
  C:630CH         SYMBOL        cmd_fail
  -------         ENDDO         
  C:6286H         LINE#         227
  C:6294H         LINE#         228
  C:6294H         LINE#         231
  C:6297H         LINE#         234
  C:62A3H         LINE#         237
  C:62A9H         LINE#         238
  C:62A9H         LINE#         239
  C:62A9H         LINE#         240
  C:62A9H         LINE#         242
  C:62B3H         LINE#         243
  C:62B3H         LINE#         245
  C:62BAH         LINE#         246
  C:62BAH         LINE#         248
  C:62BDH         LINE#         249
  C:62BFH         LINE#         250
  C:62C3H         LINE#         251
  C:62C3H         LINE#         252
  C:62CAH         LINE#         253
  C:62CAH         LINE#         256
BL51 BANKED LINKER/LOCATER V6.22                                                      12/29/2017  16:22:32  PAGE 28


  C:62DCH         LINE#         259
  C:62E6H         LINE#         262
  C:62F4H         LINE#         264
  C:62FBH         LINE#         265
  C:62FBH         LINE#         266
  C:62FEH         LINE#         270
  C:6300H         LINE#         271
  C:6300H         LINE#         273
  C:6303H         LINE#         276
  C:6305H         LINE#         279
  C:6308H         LINE#         280
  C:630CH         LINE#         282
  C:630CH         LINE#         284
  C:630FH         LINE#         285
  C:6313H         LINE#         286
  -------         ENDPROC       _I2C_READBYTES
  -------         PROC          _I2C_WRITEBYTES
  X:020AH         SYMBOL        ClientAddr
  X:020BH         SYMBOL        pBuffer
  X:020EH         SYMBOL        NumByteToWrite
  -------         DO            
  C:615BH         SYMBOL        cmd_fail
  C:614DH         SYMBOL        end
  -------         ENDDO         
  C:60CFH         LINE#         297
  C:60DDH         LINE#         298
  C:60DDH         LINE#         302
  C:60E0H         LINE#         308
  C:60E3H         LINE#         311
  C:60EDH         LINE#         314
  C:60F3H         LINE#         315
  C:60F3H         LINE#         317
  C:60F3H         LINE#         321
  C:60F3H         LINE#         324
  C:60FDH         LINE#         325
  C:60FDH         LINE#         326
  C:6104H         LINE#         327
  C:6104H         LINE#         329
  C:6107H         LINE#         330
  C:6109H         LINE#         331
  C:610DH         LINE#         332
  C:610DH         LINE#         333
  C:6114H         LINE#         334
  C:6114H         LINE#         336
  C:6126H         LINE#         339
  C:612CH         LINE#         340
  C:612CH         LINE#         341
  C:612CH         LINE#         342
  C:612CH         LINE#         344
  C:613AH         LINE#         346
  C:6141H         LINE#         347
  C:6141H         LINE#         348
  C:6141H         LINE#         349
  C:6141H         LINE#         351
  C:614BH         LINE#         354
  C:614DH         LINE#         357
  C:614DH         LINE#         358
BL51 BANKED LINKER/LOCATER V6.22                                                      12/29/2017  16:22:32  PAGE 29


  C:6154H         LINE#         359
  C:6157H         LINE#         360
  C:615BH         LINE#         362
  C:615BH         LINE#         364
  C:615EH         LINE#         365
  C:6162H         LINE#         366
  -------         ENDPROC       _I2C_WRITEBYTES
  -------         ENDMOD        SOFT_IIC

  -------         MODULE        TM1620
  C:0000H         SYMBOL        _ICE_DUMMY_
  C:74A8H         PUBLIC        TM1620_SetDataMode
  D:00D3H         PUBLIC        P0M1
  D:00D6H         PUBLIC        P2M0
  D:0080H         PUBLIC        P0
  D:00D7H         PUBLIC        P2M1
  D:0090H         PUBLIC        P1
  C:749EH         PUBLIC        TM1620_SetMode
  D:00A0H         PUBLIC        P2
  D:00B0H         PUBLIC        P3
  D:00B8H         PUBLIC        IEN1
  D:00A8H         PUBLIC        IE
  B:0080H.1       PUBLIC        P0_1
  B:0080H.2       PUBLIC        P0_2
  C:5C16H         PUBLIC        _TM1620_WriteFrameRegister
  C:6E1FH         PUBLIC        _TM1620_WriteOneByte
  B:00A0H.4       PUBLIC        P2_4
  C:7365H         PUBLIC        led_display_buff
  C:51D3H         PUBLIC        _TM1620_DispalyData
  C:7197H         PUBLIC        TM1620_Clear_Framebuff
  C:72B4H         PUBLIC        TM1620_Pin_Config
  C:7370H         SYMBOL        _?ix1000
  C:74B2H         PUBLIC        TM1620_Display_On
  D:00E0H         PUBLIC        ACC
  D:00F8H         PUBLIC        IIC0S
  D:00E8H         PUBLIC        IIC1S
  C:7438H         PUBLIC        TM1620_Init
  D:0098H         PUBLIC        S0CON
  D:0088H         PUBLIC        TCON0
  D:00D8H         PUBLIC        TCON1
  C:54AAH         PUBLIC        _TM1620_LED_Control
  C:7468H         SYMBOL        _mydelay
  D:00D0H         PUBLIC        PSW
  D:00C0H         PUBLIC        IRCON
  D:00D2H         PUBLIC        P0M0
  -------         PROC          _MYDELAY
  D:0006H         SYMBOL        num
  C:7468H         LINE#         16
  C:7468H         LINE#         17
  C:7468H         LINE#         18
  C:7472H         LINE#         19
  -------         ENDPROC       _MYDELAY
  -------         PROC          TM1620_PIN_CONFIG
  C:72B4H         LINE#         35
  C:72B4H         LINE#         36
  C:72B4H         LINE#         38
  C:72B7H         LINE#         39
BL51 BANKED LINKER/LOCATER V6.22                                                      12/29/2017  16:22:32  PAGE 30


  C:72BAH         LINE#         40
  C:72BDH         LINE#         41
  C:72C0H         LINE#         42
  C:72C2H         LINE#         43
  C:72C4H         LINE#         44
  C:72C6H         LINE#         46
  -------         ENDPROC       TM1620_PIN_CONFIG
  -------         PROC          TM1620_INIT
  C:7438H         LINE#         51
  C:7438H         LINE#         52
  C:7438H         LINE#         53
  C:743BH         LINE#         54
  C:743EH         LINE#         55
  C:7441H         LINE#         56
  -------         ENDPROC       TM1620_INIT
  -------         PROC          L?0068
  -------         ENDPROC       L?0068
  -------         PROC          _TM1620_WRITEONEBYTE
  D:0007H         SYMBOL        senddata
  -------         DO            
  D:0005H         SYMBOL        i
  D:0003H         SYMBOL        tempdata
  -------         ENDDO         
  C:6E1FH         LINE#         60
  C:6E1FH         LINE#         61
  C:6E1FH         LINE#         62
  C:6E21H         LINE#         63
  C:6E21H         LINE#         65
  C:6E23H         LINE#         69
  C:6E23H         LINE#         70
  C:6E23H         LINE#         71
  C:6E25H         LINE#         72
  C:6E29H         LINE#         73
  C:6E29H         LINE#         74
  C:6E2BH         LINE#         75
  C:6E2DH         LINE#         77
  C:6E2DH         LINE#         78
  C:6E2FH         LINE#         79
  C:6E2FH         LINE#         81
  C:6E36H         LINE#         82
  C:6E38H         LINE#         83
  C:6E3FH         LINE#         85
  C:6E43H         LINE#         86
  C:6E48H         LINE#         87
  -------         ENDPROC       _TM1620_WRITEONEBYTE
  -------         PROC          TM1620_SETMODE
  C:749EH         LINE#         123
  C:749EH         LINE#         124
  C:749EH         LINE#         125
  C:74A0H         LINE#         126
  C:74A5H         LINE#         127
  C:74A7H         LINE#         128
  -------         ENDPROC       TM1620_SETMODE
  -------         PROC          TM1620_SETDATAMODE
  C:74A8H         LINE#         131
  C:74A8H         LINE#         132
  C:74A8H         LINE#         133
BL51 BANKED LINKER/LOCATER V6.22                                                      12/29/2017  16:22:32  PAGE 31


  C:74AAH         LINE#         134
  C:74AFH         LINE#         135
  C:74B1H         LINE#         136
  -------         ENDPROC       TM1620_SETDATAMODE
  -------         PROC          _TM1620_WRITEFRAMEREGISTER
  X:020FH         SYMBOL        sensortype
  X:0210H         SYMBOL        grid_num
  X:0211H         SYMBOL        displaybuff
  X:0214H         SYMBOL        bufferlength
  -------         DO            
  X:0215H         SYMBOL        i
  D:0001H         SYMBOL        address
  D:0002H         SYMBOL        senddata
  -------         ENDDO         
  C:5C16H         LINE#         139
  C:5C2BH         LINE#         140
  C:5C2BH         LINE#         141
  C:5C30H         LINE#         142
  C:5C30H         LINE#         143
  C:5C31H         LINE#         145
  C:5C44H         LINE#         146
  C:5C44H         LINE#         148
  C:5C44H         LINE#         150
  C:5C63H         LINE#         151
  C:5C63H         LINE#         154
  C:5C63H         LINE#         156
  C:5C6CH         LINE#         158
  C:5C6CH         LINE#         159
  C:5C6CH         LINE#         160
  C:5C6CH         LINE#         162
  C:5C6FH         LINE#         163
  C:5C80H         LINE#         164
  C:5C80H         LINE#         165
  C:5C80H         LINE#         167
  C:5C8BH         LINE#         168
  C:5C8BH         LINE#         170
  C:5CA5H         LINE#         171
  C:5CA7H         LINE#         173
  C:5CA7H         LINE#         174
  C:5CBFH         LINE#         175
  C:5CBFH         LINE#         177
  C:5CC4H         LINE#         179
  C:5CCCH         LINE#         180
  C:5CCEH         LINE#         181
  -------         ENDPROC       _TM1620_WRITEFRAMEREGISTER
  -------         PROC          TM1620_CLEAR_FRAMEBUFF
  -------         DO            
  D:0002H         SYMBOL        i
  -------         ENDDO         
  C:7197H         LINE#         184
  C:7197H         LINE#         185
  C:7197H         LINE#         186
  C:7199H         LINE#         188
  C:719CH         LINE#         190
  C:719EH         LINE#         191
  C:71A3H         LINE#         192
  C:71A3H         LINE#         193
BL51 BANKED LINKER/LOCATER V6.22                                                      12/29/2017  16:22:32  PAGE 32


  C:71A3H         LINE#         194
  C:71A8H         LINE#         195
  C:71ADH         LINE#         196
  C:71AFH         LINE#         198
  -------         ENDPROC       TM1620_CLEAR_FRAMEBUFF
  -------         PROC          TM1620_DISPLAY_ON
  C:74B2H         LINE#         200
  C:74B2H         LINE#         201
  C:74B2H         LINE#         202
  C:74B4H         LINE#         203
  C:74B9H         LINE#         204
  C:74BBH         LINE#         205
  -------         ENDPROC       TM1620_DISPLAY_ON
  -------         PROC          _TM1620_DISPALYDATA
  X:0202H         SYMBOL        sensor
  X:0203H         SYMBOL        sensordata
  -------         DO            
  X:0207H         SYMBOL        j
  X:0208H         SYMBOL        displaybuff
  X:020DH         SYMBOL        displaydata
  -------         ENDDO         
  C:51D3H         LINE#         216
  C:51D8H         LINE#         217
  C:51D8H         LINE#         218
  C:51DDH         LINE#         219
  C:51EFH         LINE#         220
  C:51F6H         LINE#         221
  C:51FDH         LINE#         222
  C:51FDH         LINE#         223
  C:5215H         LINE#         224
  C:5215H         LINE#         225
  C:5215H         LINE#         226
  C:5217H         LINE#         228
  C:5217H         LINE#         229
  C:522FH         LINE#         230
  C:522FH         LINE#         232
  C:5231H         LINE#         233
  C:5238H         LINE#         234
  C:5238H         LINE#         235
  C:5250H         LINE#         236
  C:5250H         LINE#         237
  C:525AH         LINE#         238
  C:525CH         LINE#         240
  C:525CH         LINE#         241
  C:5275H         LINE#         242
  C:5275H         LINE#         243
  C:5275H         LINE#         250
  C:528CH         LINE#         253
  C:52A9H         LINE#         255
  C:52BDH         LINE#         258
  -------         ENDPROC       _TM1620_DISPALYDATA
  -------         PROC          _TM1620_LED_CONTROL
  D:0002H         SYMBOL        led
  D:0005H         SYMBOL        on_off
  -------         DO            
  X:02E1H         SYMBOL        led_group1_data
  X:02E2H         SYMBOL        led_group2_data
BL51 BANKED LINKER/LOCATER V6.22                                                      12/29/2017  16:22:32  PAGE 33


  D:0001H         SYMBOL        register_addr
  X:020EH         SYMBOL        register_data
  -------         ENDDO         
  C:54AAH         LINE#         264
  C:54ACH         LINE#         265
  C:54ACH         LINE#         270
  C:54AEH         LINE#         271
  C:54B2H         LINE#         274
  C:54C4H         LINE#         275
  C:54C4H         LINE#         277
  C:54C4H         LINE#         279
  C:54CAH         LINE#         280
  C:54CAH         LINE#         282
  C:54CFH         LINE#         283
  C:54CFH         LINE#         284
  C:54DBH         LINE#         285
  C:54DBH         LINE#         286
  C:54E2H         LINE#         287
  C:54E2H         LINE#         288
  C:54F3H         LINE#         289
  C:54F5H         LINE#         291
  C:54F5H         LINE#         292
  C:550BH         LINE#         293
  C:550BH         LINE#         294
  C:550DH         LINE#         295
  C:5510H         LINE#         297
  C:5512H         LINE#         298
  C:5518H         LINE#         299
  C:5518H         LINE#         301
  C:551CH         LINE#         302
  C:551CH         LINE#         303
  C:5531H         LINE#         304
  C:5533H         LINE#         306
  C:5533H         LINE#         307
  C:554DH         LINE#         308
  C:554DH         LINE#         309
  C:554FH         LINE#         310
  C:5557H         LINE#         311
  C:5559H         LINE#         312
  C:555DH         LINE#         313
  C:555DH         LINE#         314
  C:5564H         LINE#         315
  C:5564H         LINE#         316
  C:5567H         LINE#         317
  C:5569H         LINE#         318
  C:556BH         LINE#         320
  C:556BH         LINE#         321
  C:556EH         LINE#         322
  C:5573H         LINE#         323
  C:5573H         LINE#         324
  C:5575H         LINE#         325
  C:5575H         LINE#         327
  C:5575H         LINE#         328
  C:5575H         LINE#         329
  C:5575H         LINE#         331
  C:5578H         LINE#         332
  C:557DH         LINE#         333
BL51 BANKED LINKER/LOCATER V6.22                                                      12/29/2017  16:22:32  PAGE 34


  C:557DH         LINE#         334
  C:5580H         LINE#         335
  C:5582H         LINE#         337
  C:5582H         LINE#         338
  C:558AH         LINE#         339
  C:5590H         LINE#         340
  C:5590H         LINE#         342
  C:5592H         LINE#         344
  -------         ENDPROC       _TM1620_LED_CONTROL
  -------         ENDMOD        TM1620

  -------         MODULE        SENSOR
  C:0000H         SYMBOL        _ICE_DUMMY_
  C:7567H         PUBLIC        Sensor_IIC_SDA_1
  D:00D6H         PUBLIC        P2M0
  D:0080H         PUBLIC        P0
  D:00DAH         PUBLIC        P3M0
  D:00D7H         PUBLIC        P2M1
  D:0090H         PUBLIC        P1
  D:00DBH         PUBLIC        P3M1
  D:00A0H         PUBLIC        P2
  D:00B0H         PUBLIC        P3
  C:7570H         PUBLIC        Sensor_IIC_SCL_0
  C:756DH         PUBLIC        Sensor_IIC_SCL_1
  C:7561H         PUBLIC        Sensor_Power_On
  D:00B8H         PUBLIC        IEN1
  D:00A8H         PUBLIC        IE
  B:00A0H.5       PUBLIC        P2_5
  B:00A0H.6       PUBLIC        P2_6
  B:00B0H.5       PUBLIC        P3_5
  C:720DH         PUBLIC        _Set_Sensor_SDA_Pin_Mode
  C:7222H         PUBLIC        _Set_Sensor_SCL_Pin_Mode
  C:001EH         SYMBOL        _?ix1000
  D:00E0H         PUBLIC        ACC
  C:53C0H         PUBLIC        Read_PMSensor_Data
  D:00F8H         PUBLIC        IIC0S
  D:00E8H         PUBLIC        IIC1S
  D:0098H         PUBLIC        S0CON
  D:0088H         PUBLIC        TCON0
  D:00D8H         PUBLIC        TCON1
  C:74BCH         PUBLIC        Sensor_IIC_SDA_READ
  C:7564H         PUBLIC        Sensor_Power_Off
  C:73A5H         PUBLIC        sensor_i2c_delay
  C:72C7H         PUBLIC        SENSOR_IIC_PinConifg
  D:00D0H         PUBLIC        PSW
  D:00C0H         PUBLIC        IRCON
  C:756AH         PUBLIC        Sensor_IIC_SDA_0
  -------         PROC          SENSOR_I2C_DELAY
  -------         DO            
  D:0006H         SYMBOL        i
  -------         ENDDO         
  C:73A5H         LINE#         11
  C:73A5H         LINE#         12
  C:73A5H         LINE#         13
  C:73A8H         LINE#         14
  C:73B3H         LINE#         15
  -------         ENDPROC       SENSOR_I2C_DELAY
BL51 BANKED LINKER/LOCATER V6.22                                                      12/29/2017  16:22:32  PAGE 35


  -------         PROC          SENSOR_IIC_PINCONIFG
  C:72C7H         LINE#         18
  C:72C7H         LINE#         19
  C:72C7H         LINE#         20
  C:72CAH         LINE#         21
  C:72CDH         LINE#         23
  C:72CFH         LINE#         24
  C:72D1H         LINE#         27
  C:72D4H         LINE#         28
  C:72D7H         LINE#         29
  C:72D9H         LINE#         33
  -------         ENDPROC       SENSOR_IIC_PINCONIFG
  -------         PROC          SENSOR_POWER_ON
  C:7561H         LINE#         35
  C:7561H         LINE#         36
  C:7561H         LINE#         37
  C:7563H         LINE#         38
  -------         ENDPROC       SENSOR_POWER_ON
  -------         PROC          SENSOR_POWER_OFF
  C:7564H         LINE#         40
  C:7564H         LINE#         41
  C:7564H         LINE#         42
  C:7566H         LINE#         43
  -------         ENDPROC       SENSOR_POWER_OFF
  -------         PROC          _SET_SENSOR_SDA_PIN_MODE
  D:0007H         SYMBOL        mode
  C:720DH         LINE#         47
  C:720DH         LINE#         48
  C:720DH         LINE#         49
  C:7210H         LINE#         50
  C:7210H         LINE#         52
  C:7213H         LINE#         53
  C:7216H         LINE#         54
  C:7217H         LINE#         55
  C:721BH         LINE#         56
  C:721BH         LINE#         57
  C:721EH         LINE#         58
  C:7221H         LINE#         59
  C:7221H         LINE#         60
  -------         ENDPROC       _SET_SENSOR_SDA_PIN_MODE
  -------         PROC          _SET_SENSOR_SCL_PIN_MODE
  D:0007H         SYMBOL        mode
  C:7222H         LINE#         62
  C:7222H         LINE#         63
  C:7222H         LINE#         64
  C:7225H         LINE#         65
  C:7225H         LINE#         67
  C:7228H         LINE#         68
  C:722BH         LINE#         69
  C:722CH         LINE#         70
  C:7230H         LINE#         71
  C:7230H         LINE#         72
  C:7233H         LINE#         73
  C:7236H         LINE#         74
  C:7236H         LINE#         76
  -------         ENDPROC       _SET_SENSOR_SCL_PIN_MODE
  -------         PROC          SENSOR_IIC_SDA_1
BL51 BANKED LINKER/LOCATER V6.22                                                      12/29/2017  16:22:32  PAGE 36


  C:7567H         LINE#         79
  C:7567H         LINE#         80
  C:7567H         LINE#         81
  C:7569H         LINE#         82
  -------         ENDPROC       SENSOR_IIC_SDA_1
  -------         PROC          SENSOR_IIC_SDA_0
  C:756AH         LINE#         84
  C:756AH         LINE#         85
  C:756AH         LINE#         86
  C:756CH         LINE#         87
  -------         ENDPROC       SENSOR_IIC_SDA_0
  -------         PROC          SENSOR_IIC_SCL_1
  C:756DH         LINE#         89
  C:756DH         LINE#         90
  C:756DH         LINE#         91
  C:756FH         LINE#         92
  -------         ENDPROC       SENSOR_IIC_SCL_1
  -------         PROC          SENSOR_IIC_SCL_0
  C:7570H         LINE#         93
  C:7570H         LINE#         94
  C:7570H         LINE#         95
  C:7572H         LINE#         96
  -------         ENDPROC       SENSOR_IIC_SCL_0
  -------         PROC          SENSOR_IIC_SDA_READ
  C:74BCH         LINE#         99
  C:74BCH         LINE#         100
  C:74BCH         LINE#         101
  C:74C5H         LINE#         102
  -------         ENDPROC       SENSOR_IIC_SDA_READ
  -------         PROC          READ_PMSENSOR_DATA
  -------         DO            
  X:02E3H         SYMBOL        last_pm_data
  X:0201H         SYMBOL        readaddr
  D:0007H         SYMBOL        res
  X:0202H         SYMBOL        pm_data
  X:0204H         SYMBOL        readbuff
  -------         ENDDO         
  C:53C0H         LINE#         108
  C:53C0H         LINE#         109
  C:53C0H         LINE#         111
  C:53C6H         LINE#         112
  C:53C6H         LINE#         113
  C:53CBH         LINE#         115
  C:53DDH         LINE#         119
  C:53E3H         LINE#         120
  C:53EFH         LINE#         121
  C:53FBH         LINE#         122
  C:5407H         LINE#         123
  C:5415H         LINE#         124
  C:5421H         LINE#         125
  C:542DH         LINE#         126
  C:5439H         LINE#         127
  C:5445H         LINE#         129
  C:5458H         LINE#         131
  C:545BH         LINE#         132
  C:545BH         LINE#         133
  C:546EH         LINE#         134
BL51 BANKED LINKER/LOCATER V6.22                                                      12/29/2017  16:22:32  PAGE 37


  C:546EH         LINE#         137
  C:5475H         LINE#         138
  C:5475H         LINE#         139
  C:5485H         LINE#         140
  C:5488H         LINE#         141
  C:5488H         LINE#         142
  C:5488H         LINE#         143
  C:5488H         LINE#         154
  C:548AH         LINE#         156
  C:548AH         LINE#         157
  C:5499H         LINE#         158
  C:5499H         LINE#         160
  C:54A9H         LINE#         181
  C:54A9H         LINE#         183
  -------         ENDPROC       READ_PMSENSOR_DATA
  -------         ENDMOD        SENSOR

  -------         MODULE        PWM1
  C:0000H         SYMBOL        _ICE_DUMMY_
  D:0080H         PUBLIC        P0
  D:0090H         PUBLIC        P1
  D:00A0H         PUBLIC        P2
  D:00B0H         PUBLIC        P3
  C:6E49H         PUBLIC        _PWM_Set_Duty
  D:00B8H         PUBLIC        IEN1
  D:00A8H         PUBLIC        IE
  D:00BDH         PUBLIC        PWMD0H
  D:00BFH         PUBLIC        PWMD1H
  D:00B2H         PUBLIC        PWMD2H
  D:00B4H         PUBLIC        PWMD3H
  D:00BCH         PUBLIC        PWMD0L
  D:00BEH         PUBLIC        PWMD1L
  D:00B1H         PUBLIC        PWMD2L
  D:00B5H         PUBLIC        PWMC
  D:00B3H         PUBLIC        PWMD3L
  C:0042H         PUBLIC        PWM_ISR
  D:00E0H         PUBLIC        ACC
  D:00CFH         PUBLIC        PWMMDH
  D:00CEH         PUBLIC        PWMMDL
  D:00F8H         PUBLIC        IIC0S
  D:00E8H         PUBLIC        IIC1S
  D:0098H         PUBLIC        S0CON
  D:0088H         PUBLIC        TCON0
  D:00D8H         PUBLIC        TCON1
  C:73B4H         PUBLIC        PWM_Init
  D:00D0H         PUBLIC        PSW
  D:00C0H         PUBLIC        IRCON
  -------         PROC          PWM_INIT
  C:73B4H         LINE#         11
  C:73B4H         LINE#         12
  C:73B4H         LINE#         28
  C:73B7H         LINE#         31
  C:73BAH         LINE#         32
  C:73BDH         LINE#         34
  C:73C0H         LINE#         35
  C:73C2H         LINE#         37
  -------         ENDPROC       PWM_INIT
BL51 BANKED LINKER/LOCATER V6.22                                                      12/29/2017  16:22:32  PAGE 38


  -------         PROC          _PWM_SET_DUTY
  D:0007H         SYMBOL        pwm_num
  D:0004H         SYMBOL        duty
  C:6E49H         LINE#         57
  C:6E49H         LINE#         58
  C:6E49H         LINE#         60
  C:6E52H         LINE#         61
  C:6E52H         LINE#         63
  C:6E52H         LINE#         83
  C:6E60H         LINE#         84
  C:6E60H         LINE#         85
  C:6E60H         LINE#         86
  C:6E64H         LINE#         87
  C:6E67H         LINE#         88
  C:6E68H         LINE#         89
  C:6E68H         LINE#         90
  C:6E6CH         LINE#         91
  C:6E6FH         LINE#         92
  C:6E70H         LINE#         93
  C:6E70H         LINE#         94
  C:6E74H         LINE#         95
  C:6E77H         LINE#         96
  C:6E78H         LINE#         97
  C:6E78H         LINE#         98
  C:6E7CH         LINE#         99
  C:6E7FH         LINE#         100
  C:6E7FH         LINE#         101
  C:6E7FH         LINE#         102
  C:6E7FH         LINE#         103
  C:6E7FH         LINE#         104
  -------         ENDPROC       _PWM_SET_DUTY
  -------         PROC          PWM_ISR
  C:0042H         LINE#         111
  C:0042H         LINE#         117
  -------         ENDPROC       PWM_ISR
  -------         ENDMOD        PWM1

  -------         MODULE        DC_MOTOR
  C:0000H         SYMBOL        _ICE_DUMMY_
  D:0080H         PUBLIC        P0
  D:0090H         PUBLIC        P1
  D:00A0H         PUBLIC        P2
  D:00B0H         PUBLIC        P3
  C:7540H         PUBLIC        Stop_DC_Motor
  D:00B8H         PUBLIC        IEN1
  D:00A8H         PUBLIC        IE
  D:00E0H         PUBLIC        ACC
  D:00F8H         PUBLIC        IIC0S
  C:744CH         PUBLIC        MotorFG_TAB
  D:00E8H         PUBLIC        IIC1S
  C:70F6H         PUBLIC        _Set_DC_Motor_Speed
  D:0098H         PUBLIC        S0CON
  D:0088H         PUBLIC        TCON0
  D:00D8H         PUBLIC        TCON1
  C:72ECH         PUBLIC        Start_DC_Motor
  C:7444H         PUBLIC        PWM0DL_TAB
  C:4FB0H         PUBLIC        DirectMotor
BL51 BANKED LINKER/LOCATER V6.22                                                      12/29/2017  16:22:32  PAGE 39


  C:63A0H         PUBLIC        Dcmoto_adj
  D:00D0H         PUBLIC        PSW
  D:00C0H         PUBLIC        IRCON
  -------         PROC          START_DC_MOTOR
  C:72ECH         LINE#         14
  C:72ECH         LINE#         15
  C:72ECH         LINE#         16
  C:72F0H         LINE#         17
  C:72F7H         LINE#         18
  -------         ENDPROC       START_DC_MOTOR
  -------         PROC          STOP_DC_MOTOR
  C:7540H         LINE#         22
  C:7540H         LINE#         23
  C:7540H         LINE#         24
  C:7544H         LINE#         26
  C:7546H         LINE#         27
  -------         ENDPROC       STOP_DC_MOTOR
  -------         PROC          _SET_DC_MOTOR_SPEED
  D:0007H         SYMBOL        speed
  C:70F6H         LINE#         30
  C:70F6H         LINE#         31
  C:70F6H         LINE#         32
  C:7102H         LINE#         33
  C:7102H         LINE#         35
  C:7102H         LINE#         37
  C:7106H         LINE#         38
  C:7108H         LINE#         40
  C:710FH         LINE#         42
  C:7111H         LINE#         43
  -------         ENDPROC       _SET_DC_MOTOR_SPEED
  -------         PROC          DIRECTMOTOR
  -------         DO            
  X:0201H         SYMBOL        temp
  -------         ENDDO         
  C:4FB0H         LINE#         47
  C:4FB0H         LINE#         48
  C:4FB0H         LINE#         49
  C:4FB7H         LINE#         51
  C:4FC0H         LINE#         54
  C:4FF0H         LINE#         55
  C:4FF0H         LINE#         57
  C:4FF0H         LINE#         59
  C:4FF9H         LINE#         60
  C:4FF9H         LINE#         61
  C:5013H         LINE#         63
  C:5013H         LINE#         65
  C:5019H         LINE#         66
  C:5019H         LINE#         68
  C:5022H         LINE#         69
  C:5022H         LINE#         71
  C:5024H         LINE#         72
  C:5026H         LINE#         73
  C:5028H         LINE#         75
  C:5028H         LINE#         77
  C:502BH         LINE#         78
  C:502BH         LINE#         80
  C:5041H         LINE#         81
BL51 BANKED LINKER/LOCATER V6.22                                                      12/29/2017  16:22:32  PAGE 40


  C:5041H         LINE#         82
  C:504CH         LINE#         83
  C:504EH         LINE#         84
  C:5055H         LINE#         85
  C:5055H         LINE#         86
  C:5063H         LINE#         87
  C:5065H         LINE#         89
  C:5065H         LINE#         90
  C:5067H         LINE#         91
  C:5069H         LINE#         92
  C:5069H         LINE#         93
  C:506CH         LINE#         95
  C:506EH         LINE#         97
  C:506EH         LINE#         98
  C:5078H         LINE#         99
  C:507AH         LINE#         100
  C:507AH         LINE#         101
  C:507BH         LINE#         102
  C:5081H         LINE#         103
  C:5081H         LINE#         104
  C:5083H         LINE#         105
  C:5092H         LINE#         106
  C:5092H         LINE#         107
  C:5095H         LINE#         108
  C:5095H         LINE#         109
  C:50A1H         LINE#         110
  C:50ABH         LINE#         111
  C:50ABH         LINE#         113
  C:50ABH         LINE#         115
  C:50ABH         LINE#         116
  C:50AEH         LINE#         117
  C:50AEH         LINE#         118
  C:50B0H         LINE#         119
  C:50B7H         LINE#         120
  C:50BEH         LINE#         121
  C:50C0H         LINE#         122
  C:50C6H         LINE#         123
  C:50C6H         LINE#         125
  C:50C6H         LINE#         126
  C:50C6H         LINE#         128
  -------         ENDPROC       DIRECTMOTOR
  -------         PROC          DCMOTO_ADJ
  -------         DO            
  D:0006H         SYMBOL        pwm_compare
  -------         ENDDO         
  C:63A0H         LINE#         131
  C:63A0H         LINE#         132
  C:63A0H         LINE#         136
  C:63A0H         LINE#         138
  C:63A6H         LINE#         139
  C:63A6H         LINE#         141
  C:63A6H         LINE#         143
  C:63B7H         LINE#         144
  C:63B7H         LINE#         145
  C:63B7H         LINE#         146
  C:63BBH         LINE#         147
  C:63BDH         LINE#         148
BL51 BANKED LINKER/LOCATER V6.22                                                      12/29/2017  16:22:32  PAGE 41


  C:63BDH         LINE#         149
  C:63C1H         LINE#         150
  C:63C3H         LINE#         151
  C:63C3H         LINE#         152
  C:63C7H         LINE#         153
  C:63C9H         LINE#         154
  C:63C9H         LINE#         155
  C:63CDH         LINE#         156
  C:63CDH         LINE#         157
  C:63CDH         LINE#         159
  C:63CDH         LINE#         162
  C:63D0H         LINE#         163
  C:63D0H         LINE#         165
  C:63DCH         LINE#         166
  C:63DCH         LINE#         167
  C:63E9H         LINE#         168
  C:63E9H         LINE#         169
  C:63F5H         LINE#         170
  C:63F5H         LINE#         171
  C:63F7H         LINE#         172
  C:6400H         LINE#         173
  C:6400H         LINE#         174
  C:640DH         LINE#         175
  C:640DH         LINE#         176
  C:6419H         LINE#         177
  C:6419H         LINE#         178
  C:6419H         LINE#         179
  C:6426H         LINE#         180
  C:6426H         LINE#         181
  C:642AH         LINE#         182
  -------         ENDPROC       DCMOTO_ADJ
  -------         ENDMOD        DC_MOTOR

  -------         MODULE        TIMER_1
  C:0000H         SYMBOL        _ICE_DUMMY_
  D:0080H         PUBLIC        P0
  D:0090H         PUBLIC        P1
  D:00A0H         PUBLIC        P2
  D:00B0H         PUBLIC        P3
  C:4C15H         PUBLIC        TIMER1_ISR
  B:00A8H.7       PUBLIC        EA
  C:755BH         PUBLIC        get_sys_stime
  D:00B8H         PUBLIC        IEN1
  D:00A8H         PUBLIC        IE
  B:0090H.6       PUBLIC        P1_6
  B:0090H.7       PUBLIC        P1_7
  C:7518H         PUBLIC        Start_Timer1
  D:0089H         PUBLIC        TMOD
  D:00E0H         PUBLIC        ACC
  B:00A8H.3       PUBLIC        ET1
  D:008DH         PUBLIC        TH1
  C:74D0H         PUBLIC        TIMER1_initialize
  B:0088H.6       PUBLIC        TR1
  D:00F8H         PUBLIC        IIC0S
  D:00E8H         PUBLIC        IIC1S
  D:0098H         PUBLIC        S0CON
  D:0088H         PUBLIC        TCON0
BL51 BANKED LINKER/LOCATER V6.22                                                      12/29/2017  16:22:32  PAGE 42


  D:00D8H         PUBLIC        TCON1
  C:7555H         PUBLIC        get_sys_mstime
  D:00D0H         PUBLIC        PSW
  D:00C0H         PUBLIC        IRCON
  -------         PROC          TIMER1_INITIALIZE
  C:74D0H         LINE#         36
  C:74D0H         LINE#         37
  C:74D0H         LINE#         38
  C:74D2H         LINE#         39
  C:74D5H         LINE#         40
  C:74D8H         LINE#         42
  -------         ENDPROC       TIMER1_INITIALIZE
  -------         PROC          START_TIMER1
  C:7518H         LINE#         45
  C:7518H         LINE#         46
  C:7518H         LINE#         47
  C:751BH         LINE#         49
  C:751DH         LINE#         50
  C:751FH         LINE#         51
  -------         ENDPROC       START_TIMER1
  -------         PROC          TIMER1_ISR
  -------         DO            
  I:0012H         SYMBOL        times_1ms
  I:0013H         SYMBOL        times_2ms
  I:0014H         SYMBOL        times_10ms
  I:0015H         SYMBOL        times_100ms
  I:0017H         SYMBOL        times_1s
  X:02E8H         SYMBOL        buzzer_cnt
  -------         ENDDO         
  C:4C15H         LINE#         70
  C:4C32H         LINE#         79
  C:4C38H         LINE#         80
  C:4C38H         LINE#         81
  C:4C3AH         LINE#         82
  C:4C3CH         LINE#         83
  C:4C53H         LINE#         84
  C:4C64H         LINE#         85
  C:4C64H         LINE#         86
  C:4C6DH         LINE#         87
  C:4C6DH         LINE#         88
  C:4C6DH         LINE#         90
  C:4C73H         LINE#         91
  C:4C73H         LINE#         92
  C:4C75H         LINE#         93
  C:4C77H         LINE#         94
  C:4C77H         LINE#         97
  C:4C7DH         LINE#         98
  C:4C7DH         LINE#         99
  C:4C7FH         LINE#         100
  C:4C81H         LINE#         101
  C:4C81H         LINE#         103
  C:4C90H         LINE#         104
  C:4C90H         LINE#         105
  C:4C92H         LINE#         106
  C:4C99H         LINE#         107
  C:4C99H         LINE#         109
  C:4CA8H         LINE#         110
BL51 BANKED LINKER/LOCATER V6.22                                                      12/29/2017  16:22:32  PAGE 43


  C:4CA8H         LINE#         111
  C:4CAAH         LINE#         112
  C:4CB1H         LINE#         113
  C:4CB4H         LINE#         114
  C:4CB4H         LINE#         115
  C:4CC2H         LINE#         116
  C:4CC5H         LINE#         117
  C:4CC5H         LINE#         118
  C:4CC7H         LINE#         119
  C:4CC7H         LINE#         120
  C:4CC7H         LINE#         122
  C:4CDEH         LINE#         129
  C:4CDEH         LINE#         132
  C:4CE5H         LINE#         133
  C:4CE5H         LINE#         134
  C:4CF3H         LINE#         135
  C:4CF3H         LINE#         138
  C:4D02H         LINE#         139
  C:4D02H         LINE#         141
  C:4D08H         LINE#         142
  C:4D0BH         LINE#         143
  C:4D0BH         LINE#         145
  C:4D0DH         LINE#         146
  C:4D16H         LINE#         147
  C:4D16H         LINE#         149
  C:4D24H         LINE#         150
  C:4D2CH         LINE#         151
  C:4D2CH         LINE#         152
  C:4D30H         LINE#         153
  C:4D32H         LINE#         154
  C:4D34H         LINE#         155
  C:4D36H         LINE#         156
  C:4D3CH         LINE#         157
  C:4D3CH         LINE#         159
  C:4D3EH         LINE#         160
  C:4D3EH         LINE#         161
  C:4D3EH         LINE#         166
  -------         ENDPROC       TIMER1_ISR
  -------         PROC          GET_SYS_MSTIME
  C:7555H         LINE#         169
  C:7555H         LINE#         170
  C:7555H         LINE#         171
  C:755AH         LINE#         172
  -------         ENDPROC       GET_SYS_MSTIME
  -------         PROC          GET_SYS_STIME
  C:755BH         LINE#         175
  C:755BH         LINE#         176
  C:755BH         LINE#         177
  C:7560H         LINE#         178
  -------         ENDPROC       GET_SYS_STIME
  -------         ENDMOD        TIMER_1

  -------         MODULE        INT
  C:0000H         SYMBOL        _ICE_DUMMY_
  D:0080H         PUBLIC        P0
  D:0090H         PUBLIC        P1
  D:00A0H         PUBLIC        P2
BL51 BANKED LINKER/LOCATER V6.22                                                      12/29/2017  16:22:32  PAGE 44


  D:00B0H         PUBLIC        P3
  B:00A8H.7       PUBLIC        EA
  D:00B8H         PUBLIC        IEN1
  D:00A8H         PUBLIC        IE
  D:009AH         PUBLIC        IEN2
  C:7520H         PUBLIC        Start_INT3
  D:00E0H         PUBLIC        ACC
  B:00D8H.2       PUBLIC        IT3
  D:00F8H         PUBLIC        IIC0S
  D:00E8H         PUBLIC        IIC1S
  D:0098H         PUBLIC        S0CON
  D:0088H         PUBLIC        TCON0
  D:00D8H         PUBLIC        TCON1
  C:73C3H         PUBLIC        INT3_ISR
  D:00D0H         PUBLIC        PSW
  D:00C0H         PUBLIC        IRCON
  -------         PROC          START_INT3
  C:7520H         LINE#         30
  C:7520H         LINE#         31
  C:7520H         LINE#         32
  C:7522H         LINE#         35
  C:7525H         LINE#         36
  C:7527H         LINE#         40
  -------         ENDPROC       START_INT3
  -------         PROC          INT3_ISR
  C:73C3H         LINE#         45
  C:73CAH         LINE#         49
  C:73CDH         LINE#         58
  -------         ENDPROC       INT3_ISR
  -------         ENDMOD        INT

  -------         MODULE        TOUCH_KEY
  C:0000H         SYMBOL        _ICE_DUMMY_
  D:0080H         PUBLIC        P0
  D:00DAH         PUBLIC        P3M0
  D:0090H         PUBLIC        P1
  D:00DBH         PUBLIC        P3M1
  D:00A0H         PUBLIC        P2
  D:00B0H         PUBLIC        P3
  C:4ABBH         PUBLIC        Scan_TouchPad
  D:00B8H         PUBLIC        IEN1
  D:00A8H         PUBLIC        IE
  B:00B0H.0       PUBLIC        P3_0
  B:00B0H.1       PUBLIC        P3_1
  C:5EE7H         PUBLIC        _Get_Key_Status
  C:74C6H         PUBLIC        Key_IIC_SDA_READ
  C:73D2H         PUBLIC        key_i2c_delay
  C:7237H         PUBLIC        _Set_KEY_SDA_Pin_Mode
  C:7576H         PUBLIC        Key_IIC_SDA_0
  C:7573H         PUBLIC        Key_IIC_SDA_1
  C:724CH         PUBLIC        _Set_KEY_SCL_Pin_Mode
  C:757CH         PUBLIC        Key_IIC_SCL_0
  C:7579H         PUBLIC        Key_IIC_SCL_1
  C:7375H         PUBLIC        Clear_Touch_Info
  C:757FH         SYMBOL        _?ix1000
  C:7473H         PUBLIC        Key_IIC_PinConifg
  D:00E0H         PUBLIC        ACC
BL51 BANKED LINKER/LOCATER V6.22                                                      12/29/2017  16:22:32  PAGE 45


  X:02CAH         PUBLIC        key_info
  D:00F8H         PUBLIC        IIC0S
  D:00E8H         PUBLIC        IIC1S
  D:0098H         PUBLIC        S0CON
  D:0088H         PUBLIC        TCON0
  D:00D8H         PUBLIC        TCON1
  D:00D0H         PUBLIC        PSW
  D:00C0H         PUBLIC        IRCON
  -------         PROC          KEY_I2C_DELAY
  -------         DO            
  D:0006H         SYMBOL        i
  -------         ENDDO         
  C:73D2H         LINE#         15
  C:73D2H         LINE#         16
  C:73D2H         LINE#         17
  C:73D5H         LINE#         18
  C:73E0H         LINE#         19
  -------         ENDPROC       KEY_I2C_DELAY
  -------         PROC          KEY_IIC_PINCONIFG
  C:7473H         LINE#         22
  C:7473H         LINE#         23
  C:7473H         LINE#         25
  C:7476H         LINE#         26
  C:7479H         LINE#         28
  C:747BH         LINE#         29
  C:747DH         LINE#         30
  -------         ENDPROC       KEY_IIC_PINCONIFG
  -------         PROC          _SET_KEY_SDA_PIN_MODE
  D:0007H         SYMBOL        mode
  C:7237H         LINE#         34
  C:7237H         LINE#         35
  C:7237H         LINE#         36
  C:723AH         LINE#         37
  C:723AH         LINE#         39
  C:723DH         LINE#         40
  C:7240H         LINE#         41
  C:7241H         LINE#         42
  C:7245H         LINE#         43
  C:7245H         LINE#         44
  C:7248H         LINE#         45
  C:724BH         LINE#         46
  C:724BH         LINE#         47
  -------         ENDPROC       _SET_KEY_SDA_PIN_MODE
  -------         PROC          _SET_KEY_SCL_PIN_MODE
  D:0007H         SYMBOL        mode
  C:724CH         LINE#         49
  C:724CH         LINE#         50
  C:724CH         LINE#         51
  C:724FH         LINE#         52
  C:724FH         LINE#         54
  C:7252H         LINE#         55
  C:7255H         LINE#         56
  C:7256H         LINE#         57
  C:725AH         LINE#         58
  C:725AH         LINE#         59
  C:725DH         LINE#         60
  C:7260H         LINE#         61
BL51 BANKED LINKER/LOCATER V6.22                                                      12/29/2017  16:22:32  PAGE 46


  C:7260H         LINE#         63
  -------         ENDPROC       _SET_KEY_SCL_PIN_MODE
  -------         PROC          KEY_IIC_SDA_1
  C:7573H         LINE#         66
  C:7573H         LINE#         67
  C:7573H         LINE#         68
  C:7575H         LINE#         69
  -------         ENDPROC       KEY_IIC_SDA_1
  -------         PROC          KEY_IIC_SDA_0
  C:7576H         LINE#         71
  C:7576H         LINE#         72
  C:7576H         LINE#         73
  C:7578H         LINE#         74
  -------         ENDPROC       KEY_IIC_SDA_0
  -------         PROC          KEY_IIC_SCL_1
  C:7579H         LINE#         76
  C:7579H         LINE#         77
  C:7579H         LINE#         78
  C:757BH         LINE#         79
  -------         ENDPROC       KEY_IIC_SCL_1
  -------         PROC          KEY_IIC_SCL_0
  C:757CH         LINE#         80
  C:757CH         LINE#         81
  C:757CH         LINE#         82
  C:757EH         LINE#         83
  -------         ENDPROC       KEY_IIC_SCL_0
  -------         PROC          KEY_IIC_SDA_READ
  C:74C6H         LINE#         86
  C:74C6H         LINE#         87
  C:74C6H         LINE#         88
  C:74CFH         LINE#         89
  -------         ENDPROC       KEY_IIC_SDA_READ
  -------         PROC          _GET_KEY_STATUS
  X:0206H         SYMBOL        key_status
  -------         DO            
  X:0209H         SYMBOL        readaddr
  D:0007H         SYMBOL        res
  -------         ENDDO         
  C:5EE7H         LINE#         93
  C:5EF2H         LINE#         94
  C:5EF2H         LINE#         95
  C:5EF6H         LINE#         96
  C:5EF6H         LINE#         98
  C:5EFBH         LINE#         99
  C:5F07H         LINE#         100
  C:5F13H         LINE#         101
  C:5F1FH         LINE#         102
  C:5F2DH         LINE#         103
  C:5F39H         LINE#         104
  C:5F45H         LINE#         105
  C:5F51H         LINE#         106
  C:5F5DH         LINE#         109
  C:5F70H         LINE#         110
  C:5F73H         LINE#         111
  C:5F73H         LINE#         112
  C:5F8CH         LINE#         113
  C:5F8CH         LINE#         115
BL51 BANKED LINKER/LOCATER V6.22                                                      12/29/2017  16:22:32  PAGE 47


  -------         ENDPROC       _GET_KEY_STATUS
  -------         PROC          SCAN_TOUCHPAD
  -------         DO            
  X:02C7H         SYMBOL        wifi_key_count_times
  X:0201H         SYMBOL        temp_status0
  X:0202H         SYMBOL        temp_status1
  X:02C8H         SYMBOL        last_status0
  X:02C9H         SYMBOL        last_status1
  X:0203H         SYMBOL        key_status
  -------         ENDDO         
  C:4ABBH         LINE#         117
  C:4ABBH         LINE#         118
  C:4ABBH         LINE#         121
  C:4AC0H         LINE#         126
  C:4AD2H         LINE#         130
  C:4AD5H         LINE#         131
  C:4AD5H         LINE#         132
  C:4AD8H         LINE#         133
  C:4AD8H         LINE#         135
  C:4AE1H         LINE#         137
  C:4AEAH         LINE#         138
  C:4AF2H         LINE#         141
  C:4B02H         LINE#         142
  C:4B02H         LINE#         143
  C:4B07H         LINE#         144
  C:4B09H         LINE#         146
  C:4B0DH         LINE#         148
  C:4B10H         LINE#         149
  C:4B13H         LINE#         150
  C:4B13H         LINE#         152
  C:4B1AH         LINE#         153
  C:4B1AH         LINE#         154
  C:4B23H         LINE#         155
  C:4B23H         LINE#         156
  C:4B29H         LINE#         157
  C:4B2EH         LINE#         158
  C:4B32H         LINE#         159
  C:4B34H         LINE#         160
  C:4B34H         LINE#         161
  C:4B34H         LINE#         163
  C:4B3BH         LINE#         164
  C:4B3BH         LINE#         165
  C:4B44H         LINE#         166
  C:4B44H         LINE#         167
  C:4B48H         LINE#         168
  C:4B4DH         LINE#         169
  C:4B51H         LINE#         170
  C:4B53H         LINE#         171
  C:4B53H         LINE#         172
  C:4B53H         LINE#         174
  C:4B65H         LINE#         175
  C:4B65H         LINE#         177
  C:4B6EH         LINE#         178
  C:4B6EH         LINE#         179
  C:4B73H         LINE#         180
  C:4B77H         LINE#         183
  C:4B7BH         LINE#         184
BL51 BANKED LINKER/LOCATER V6.22                                                      12/29/2017  16:22:32  PAGE 48


  C:4B7DH         LINE#         186
  C:4B7DH         LINE#         188
  C:4B84H         LINE#         189
  C:4B84H         LINE#         192
  C:4B8AH         LINE#         193
  C:4B8AH         LINE#         194
  C:4B8DH         LINE#         195
  C:4B8DH         LINE#         196
  C:4B93H         LINE#         197
  C:4B97H         LINE#         198
  C:4B99H         LINE#         200
  C:4B99H         LINE#         201
  C:4B9EH         LINE#         202
  C:4BA0H         LINE#         203
  C:4BA0H         LINE#         205
  C:4BA5H         LINE#         206
  C:4BA5H         LINE#         208
  C:4BA8H         LINE#         209
  C:4BA8H         LINE#         210
  C:4BB0H         LINE#         211
  C:4BB0H         LINE#         212
  C:4BB6H         LINE#         213
  C:4BBAH         LINE#         214
  C:4BBCH         LINE#         215
  C:4BC0H         LINE#         216
  C:4BC0H         LINE#         217
  C:4BC6H         LINE#         218
  C:4BC9H         LINE#         219
  C:4BCBH         LINE#         220
  C:4BCFH         LINE#         221
  C:4BCFH         LINE#         222
  C:4BD4H         LINE#         223
  C:4BD4H         LINE#         224
  C:4BD6H         LINE#         225
  C:4BDAH         LINE#         226
  C:4BDAH         LINE#         228
  C:4BE0H         LINE#         233
  C:4BE6H         LINE#         234
  C:4BE6H         LINE#         235
  C:4BECH         LINE#         236
  C:4BF0H         LINE#         239
  C:4BF5H         LINE#         240
  C:4BF6H         LINE#         242
  C:4BF6H         LINE#         248
  C:4BF8H         LINE#         250
  C:4BF8H         LINE#         251
  C:4BFDH         LINE#         252
  C:4BFFH         LINE#         253
  C:4BFFH         LINE#         256
  C:4BFFH         LINE#         258
  C:4BFFH         LINE#         260
  C:4C07H         LINE#         261
  C:4C0FH         LINE#         263
  C:4C14H         LINE#         264
  -------         ENDPROC       SCAN_TOUCHPAD
  -------         PROC          CLEAR_TOUCH_INFO
  C:7375H         LINE#         267
BL51 BANKED LINKER/LOCATER V6.22                                                      12/29/2017  16:22:32  PAGE 49


  C:7375H         LINE#         268
  C:7375H         LINE#         269
  C:737AH         LINE#         270
  C:737EH         LINE#         271
  C:7382H         LINE#         272
  C:7384H         LINE#         273
  -------         ENDPROC       CLEAR_TOUCH_INFO
  -------         ENDMOD        TOUCH_KEY

  -------         MODULE        SYS_RUN
  C:0000H         SYMBOL        _ICE_DUMMY_
  C:44B8H         PUBLIC        sys_dev_auto_check
  D:0080H         PUBLIC        P0
  D:0090H         PUBLIC        P1
  D:00A0H         PUBLIC        P2
  D:00B0H         PUBLIC        P3
  C:740EH         PUBLIC        stop_sys_auto_check
  C:6DD6H         PUBLIC        sys_stop
  D:00B8H         PUBLIC        IEN1
  D:00A8H         PUBLIC        IE
  B:0080H.0       PUBLIC        P0_0
  C:4D59H         PUBLIC        sys_check_manual_result_upload
  C:47DAH         PUBLIC        sys_run
  C:74E2H         PUBLIC        stop_sys_smart_mode
  C:6BFBH         PUBLIC        check_if_stop_manual_check
  C:34E4H         PUBLIC        display_pm_data
  C:7261H         PUBLIC        start_sys_manual_check
  C:697DH         PUBLIC        check_if_doorclose_manual
  D:00E0H         PUBLIC        ACC
  C:5677H         PUBLIC        sys_check_auto_result_upload
  C:7528H         PUBLIC        stop_sys_manual_check
  C:6D99H         PUBLIC        sys_init_check
  D:00F8H         PUBLIC        IIC0S
  D:00E8H         PUBLIC        IIC1S
  D:0098H         PUBLIC        S0CON
  D:0088H         PUBLIC        TCON0
  C:74D9H         PUBLIC        set_sys_to_smart_mode
  D:00D8H         PUBLIC        TCON1
  C:7385H         PUBLIC        start_sys_auto_check
  C:6A43H         PUBLIC        sys_start
  C:5B5AH         PUBLIC        sys_smart_mode
  D:00D0H         PUBLIC        PSW
  D:00C0H         PUBLIC        IRCON
  -------         PROC          SYS_INIT_CHECK
  C:6D99H         LINE#         23
  C:6D99H         LINE#         24
  C:6D99H         LINE#         27
  C:6D9CH         LINE#         28
  C:6D9CH         LINE#         30
  C:6D9EH         LINE#         31
  C:6DA1H         LINE#         32
  C:6DA1H         LINE#         34
  C:6DA1H         LINE#         36
  C:6DA1H         LINE#         37
  C:6DA1H         LINE#         38
  C:6DA1H         LINE#         39
  C:6DADH         LINE#         40
BL51 BANKED LINKER/LOCATER V6.22                                                      12/29/2017  16:22:32  PAGE 50


  C:6DADH         LINE#         41
  C:6DAFH         LINE#         42
  C:6DB2H         LINE#         43
  C:6DB2H         LINE#         45
  C:6DBEH         LINE#         46
  C:6DBEH         LINE#         47
  C:6DC0H         LINE#         49
  C:6DD4H         LINE#         50
  C:6DD5H         LINE#         53
  C:6DD5H         LINE#         56
  -------         ENDPROC       SYS_INIT_CHECK
  -------         PROC          SYS_START
  C:6A43H         LINE#         60
  C:6A43H         LINE#         61
  C:6A43H         LINE#         62
  C:6A4CH         LINE#         63
  C:6A4FH         LINE#         64
  C:6A52H         LINE#         67
  C:6A7CH         LINE#         69
  C:6A7FH         LINE#         71
  C:6A88H         LINE#         72
  C:6A88H         LINE#         73
  C:6A8BH         LINE#         74
  C:6A8BH         LINE#         75
  C:6A8EH         LINE#         78
  C:6A90H         LINE#         79
  C:6A92H         LINE#         80
  C:6A94H         LINE#         81
  C:6A9BH         LINE#         82
  C:6AA2H         LINE#         84
  C:6AA4H         LINE#         85
  -------         ENDPROC       SYS_START
  -------         PROC          SYS_STOP
  C:6DD6H         LINE#         87
  C:6DD6H         LINE#         88
  C:6DD6H         LINE#         89
  C:6DDFH         LINE#         90
  C:6DE2H         LINE#         91
  C:6DE4H         LINE#         92
  C:6DE7H         LINE#         93
  C:6DEAH         LINE#         94
  C:6DEDH         LINE#         95
  C:6DF0H         LINE#         96
  C:6DF2H         LINE#         98
  C:6DF9H         LINE#         99
  C:6E00H         LINE#         101
  C:6E03H         LINE#         102
  C:6E03H         LINE#         103
  C:6E06H         LINE#         104
  C:6E06H         LINE#         106
  C:6E09H         LINE#         107
  C:6E09H         LINE#         108
  C:6E0CH         LINE#         109
  C:6E0CH         LINE#         111
  C:6E0EH         LINE#         112
  C:6E10H         LINE#         113
  -------         ENDPROC       SYS_STOP
BL51 BANKED LINKER/LOCATER V6.22                                                      12/29/2017  16:22:32  PAGE 51


  -------         PROC          SYS_RUN
  -------         DO            
  X:0201H         SYMBOL        set_speed
  -------         ENDDO         
  C:47DAH         LINE#         116
  C:47DAH         LINE#         117
  C:47DAH         LINE#         118
  C:47DFH         LINE#         121
  C:47EBH         LINE#         122
  C:47EBH         LINE#         123
  C:47EDH         LINE#         124
  C:47F0H         LINE#         125
  C:47FFH         LINE#         126
  C:4802H         LINE#         127
  C:4802H         LINE#         130
  C:4805H         LINE#         131
  C:4805H         LINE#         132
  C:4808H         LINE#         133
  C:4808H         LINE#         137
  C:4829H         LINE#         138
  C:4829H         LINE#         139
  C:482CH         LINE#         140
  C:482CH         LINE#         141
  C:482FH         LINE#         144
  C:4832H         LINE#         145
  C:4832H         LINE#         147
  C:4832H         LINE#         150
  C:4850H         LINE#         151
  C:4850H         LINE#         152
  C:4856H         LINE#         153
  C:4856H         LINE#         154
  C:485CH         LINE#         155
  C:485CH         LINE#         156
  C:485FH         LINE#         157
  C:485FH         LINE#         159
  C:485FH         LINE#         160
  C:485FH         LINE#         163
  C:486AH         LINE#         164
  C:486AH         LINE#         165
  C:4888H         LINE#         166
  C:4888H         LINE#         167
  C:4888H         LINE#         168
  C:488BH         LINE#         169
  C:488BH         LINE#         170
  C:4892H         LINE#         171
  C:4892H         LINE#         173
  C:4895H         LINE#         174
  C:4895H         LINE#         175
  C:4898H         LINE#         176
  C:489BH         LINE#         177
  C:48A1H         LINE#         178
  C:48A1H         LINE#         179
  C:48A4H         LINE#         180
  C:48A4H         LINE#         181
  C:48A7H         LINE#         182
  C:48A7H         LINE#         183
  C:48ADH         LINE#         184
BL51 BANKED LINKER/LOCATER V6.22                                                      12/29/2017  16:22:32  PAGE 52


  C:48ADH         LINE#         185
  C:48B0H         LINE#         186
  C:48B8H         LINE#         187
  C:48BDH         LINE#         188
  C:48BDH         LINE#         189
  C:48C0H         LINE#         190
  C:48C2H         LINE#         191
  C:48C6H         LINE#         192
  C:48C6H         LINE#         193
  C:48CCH         LINE#         194
  C:48CEH         LINE#         196
  C:48CEH         LINE#         197
  C:48D3H         LINE#         198
  C:48D3H         LINE#         199
  C:48DBH         LINE#         201
  C:48DEH         LINE#         202
  C:48DEH         LINE#         204
  C:48E5H         LINE#         205
  C:48E5H         LINE#         206
  C:48ECH         LINE#         207
  C:48EEH         LINE#         208
  C:48F2H         LINE#         209
  C:48F2H         LINE#         210
  C:48F9H         LINE#         211
  C:48FBH         LINE#         212
  C:4902H         LINE#         213
  C:4902H         LINE#         214
  C:4909H         LINE#         215
  C:490BH         LINE#         216
  C:490FH         LINE#         217
  C:490FH         LINE#         218
  C:4916H         LINE#         219
  C:4916H         LINE#         220
  C:4916H         LINE#         224
  C:4919H         LINE#         225
  C:4919H         LINE#         226
  C:491CH         LINE#         227
  C:491CH         LINE#         229
  C:491EH         LINE#         231
  C:491EH         LINE#         232
  C:491EH         LINE#         233
  C:491EH         LINE#         234
  C:491EH         LINE#         235
  C:491EH         LINE#         236
  C:4921H         LINE#         237
  C:4921H         LINE#         238
  C:4928H         LINE#         239
  C:4928H         LINE#         240
  C:492AH         LINE#         241
  C:492AH         LINE#         242
  C:492DH         LINE#         243
  C:492DH         LINE#         244
  C:4934H         LINE#         245
  C:4934H         LINE#         246
  C:4936H         LINE#         247
  C:4936H         LINE#         249
  C:4939H         LINE#         250
BL51 BANKED LINKER/LOCATER V6.22                                                      12/29/2017  16:22:32  PAGE 53


  C:4939H         LINE#         251
  C:4940H         LINE#         252
  C:4940H         LINE#         253
  C:4940H         LINE#         256
  C:4940H         LINE#         257
  C:4940H         LINE#         260
  C:4940H         LINE#         261
  C:494DH         LINE#         262
  C:494DH         LINE#         263
  C:4950H         LINE#         264
  C:4950H         LINE#         266
  C:4950H         LINE#         268
  C:4953H         LINE#         269
  C:4953H         LINE#         270
  C:4956H         LINE#         271
  C:4956H         LINE#         273
  -------         ENDPROC       SYS_RUN
  -------         PROC          DISPLAY_PM_DATA
  -------         DO            
  B:0027H.1       SYMBOL        change_to_3min_updata
  B:0027H.2       SYMBOL        IsPowerOn
  X:02A9H         SYMBOL        get_pm_trigger_time
  X:02ADH         SYMBOL        standby_trigger_time
  X:02B1H         SYMBOL        temp_pm_value
  C:3956H         SYMBOL        exit
  -------         ENDDO         
  C:34E4H         LINE#         285
  C:34E4H         LINE#         286
  C:34E4H         LINE#         293
  C:34EDH         LINE#         295
  C:3522H         LINE#         296
  C:3522H         LINE#         297
  C:3541H         LINE#         298
  C:3541H         LINE#         301
  C:3563H         LINE#         302
  C:3563H         LINE#         303
  C:3574H         LINE#         305
  C:3593H         LINE#         309
  C:3596H         LINE#         310
  C:3596H         LINE#         311
  C:35ADH         LINE#         312
  C:35ADH         LINE#         315
  C:35ADH         LINE#         316
  C:35B3H         LINE#         317
  C:35B3H         LINE#         318
  C:35B6H         LINE#         319
  C:35B6H         LINE#         320
  C:35B8H         LINE#         321
  C:35B8H         LINE#         322
  C:35BBH         LINE#         323
  C:35BBH         LINE#         324
  C:35BDH         LINE#         325
  C:35BDH         LINE#         327
  C:35EAH         LINE#         328
  C:35EAH         LINE#         330
  C:35FEH         LINE#         331
  C:35FEH         LINE#         333
BL51 BANKED LINKER/LOCATER V6.22                                                      12/29/2017  16:22:32  PAGE 54


  C:361FH         LINE#         334
  C:361FH         LINE#         335
  C:363CH         LINE#         336
  C:363CH         LINE#         337
  C:363EH         LINE#         344
  C:363EH         LINE#         346
  C:363EH         LINE#         348
  C:363EH         LINE#         350
  C:3641H         LINE#         352
  C:3641H         LINE#         354
  C:367FH         LINE#         355
  C:369BH         LINE#         356
  C:369BH         LINE#         358
  C:369EH         LINE#         359
  C:36A4H         LINE#         360
  C:36A4H         LINE#         363
  C:36AAH         LINE#         364
  C:36AAH         LINE#         366
  C:36C5H         LINE#         367
  C:36C5H         LINE#         368
  C:36F1H         LINE#         369
  C:36F1H         LINE#         370
  C:3710H         LINE#         371
  C:3710H         LINE#         372
  C:371EH         LINE#         373
  C:3721H         LINE#         374
  C:3721H         LINE#         376
  C:3721H         LINE#         377
  C:3723H         LINE#         378
  C:3725H         LINE#         379
  C:372CH         LINE#         380
  C:3749H         LINE#         381
  C:3749H         LINE#         382
  C:374CH         LINE#         384
  C:374CH         LINE#         385
  C:3752H         LINE#         386
  C:3752H         LINE#         387
  C:3783H         LINE#         388
  C:3783H         LINE#         390
  C:37A4H         LINE#         391
  C:37A4H         LINE#         393
  C:37C5H         LINE#         394
  C:37C7H         LINE#         396
  C:37C7H         LINE#         398
  C:380EH         LINE#         399
  C:380EH         LINE#         400
  C:3811H         LINE#         402
  C:3811H         LINE#         403
  C:3813H         LINE#         404
  C:381AH         LINE#         405
  C:3837H         LINE#         406
  C:3837H         LINE#         407
  C:383AH         LINE#         409
  C:383AH         LINE#         411
  C:3858H         LINE#         412
  C:3858H         LINE#         413
  C:385DH         LINE#         415
BL51 BANKED LINKER/LOCATER V6.22                                                      12/29/2017  16:22:32  PAGE 55


  C:385DH         LINE#         417
  C:3889H         LINE#         418
  C:3889H         LINE#         419
  C:38A8H         LINE#         420
  C:38CFH         LINE#         422
  C:38CFH         LINE#         424
  C:38F1H         LINE#         425
  C:38F1H         LINE#         427
  C:3922H         LINE#         428
  C:392FH         LINE#         429
  C:3936H         LINE#         431
  C:3956H         LINE#         439
  C:3956H         LINE#         441
  C:3956H         LINE#         443
  C:3956H         LINE#         445
  C:3956H         LINE#         447
  C:3956H         LINE#         449
  C:3965H         LINE#         450
  C:3965H         LINE#         451
  C:396BH         LINE#         452
  C:396BH         LINE#         457
  -------         ENDPROC       DISPLAY_PM_DATA
  -------         PROC          SYS_SMART_MODE
  -------         DO            
  B:0027H.3       SYMBOL        speed_changed
  B:0027H.4       SYMBOL        IsLedChange
  X:02B3H         SYMBOL        speed_changed_time
  C:60CAH         SYMBOL        speed_continue_time
  -------         ENDDO         
  C:5B5AH         LINE#         462
  C:5B5AH         LINE#         463
  C:5B5AH         LINE#         472
  C:5B81H         LINE#         473
  C:5B81H         LINE#         475
  C:5B81H         LINE#         477
  C:5B8AH         LINE#         479
  C:5B8DH         LINE#         480
  C:5B8DH         LINE#         482
  C:5BC3H         LINE#         483
  C:5BC4H         LINE#         485
  C:5BC4H         LINE#         487
  C:5BC4H         LINE#         488
  C:5BC6H         LINE#         489
  C:5BC6H         LINE#         491
  C:5BC6H         LINE#         493
  C:5BD6H         LINE#         494
  C:5BD6H         LINE#         495
  C:5BDDH         LINE#         496
  C:5BDDH         LINE#         497
  C:5BDFH         LINE#         498
  C:5BDFH         LINE#         499
  C:5BDFH         LINE#         500
  C:5BDFH         LINE#         501
  C:5BDFH         LINE#         502
  C:5BE1H         LINE#         503
  C:5BEAH         LINE#         504
  C:5BEAH         LINE#         505
BL51 BANKED LINKER/LOCATER V6.22                                                      12/29/2017  16:22:32  PAGE 56


  C:5BF1H         LINE#         506
  C:5BF1H         LINE#         507
  C:5BF3H         LINE#         508
  C:5BF3H         LINE#         509
  C:5BF3H         LINE#         510
  C:5BF3H         LINE#         511
  C:5BF3H         LINE#         512
  C:5BF5H         LINE#         514
  C:5BF5H         LINE#         515
  C:5BFCH         LINE#         516
  C:5BFCH         LINE#         517
  C:5BFEH         LINE#         518
  C:5C00H         LINE#         519
  C:5C02H         LINE#         520
  C:5C04H         LINE#         521
  C:5C04H         LINE#         522
  C:5C04H         LINE#         524
  C:5C07H         LINE#         525
  C:5C07H         LINE#         527
  C:5C11H         LINE#         528
  C:5C13H         LINE#         530
  C:5C15H         LINE#         531
  C:5C15H         LINE#         535
  -------         ENDPROC       SYS_SMART_MODE
  -------         PROC          CHECK_IF_DOORCLOSE_MANUAL
  -------         DO            
  X:02B7H         SYMBOL        check_doorclose_times
  -------         ENDDO         
  C:697DH         LINE#         544
  C:697DH         LINE#         545
  C:697DH         LINE#         548
  C:6980H         LINE#         549
  C:6980H         LINE#         550
  C:6989H         LINE#         551
  C:69B6H         LINE#         552
  C:69B6H         LINE#         553
  C:69B9H         LINE#         554
  C:69B9H         LINE#         555
  C:69BCH         LINE#         556
  C:69BCH         LINE#         557
  C:69C2H         LINE#         558
  C:69C4H         LINE#         560
  C:69C4H         LINE#         561
  C:69C9H         LINE#         562
  C:69C9H         LINE#         564
  C:69D2H         LINE#         565
  C:69D2H         LINE#         566
  C:69D5H         LINE#         567
  C:69D5H         LINE#         568
  C:69D8H         LINE#         569
  C:69DAH         LINE#         570
  C:69DFH         LINE#         571
  C:69DFH         LINE#         573
  C:69DFH         LINE#         574
  C:69DFH         LINE#         575
  C:69DFH         LINE#         576
  C:69DFH         LINE#         578
BL51 BANKED LINKER/LOCATER V6.22                                                      12/29/2017  16:22:32  PAGE 57


  -------         ENDPROC       CHECK_IF_DOORCLOSE_MANUAL
  -------         PROC          SET_SYS_TO_SMART_MODE
  C:74D9H         LINE#         581
  C:74D9H         LINE#         582
  C:74D9H         LINE#         583
  C:74DBH         LINE#         584
  -------         ENDPROC       SET_SYS_TO_SMART_MODE
  -------         PROC          STOP_SYS_SMART_MODE
  C:74E2H         LINE#         587
  C:74E2H         LINE#         588
  C:74E2H         LINE#         589
  C:74E4H         LINE#         590
  -------         ENDPROC       STOP_SYS_SMART_MODE
  -------         PROC          SYS_DEV_AUTO_CHECK
  -------         DO            
  C:60CBH         SYMBOL        sys_check_time
  C:4647H         SYMBOL        exit
  -------         ENDDO         
  C:44B8H         LINE#         598
  C:44B8H         LINE#         599
  C:44B8H         LINE#         606
  C:44BEH         LINE#         607
  C:44BEH         LINE#         608
  C:44C1H         LINE#         609
  C:44C1H         LINE#         610
  C:44C4H         LINE#         611
  C:44C6H         LINE#         612
  C:44C6H         LINE#         613
  C:44CCH         LINE#         614
  C:44CEH         LINE#         615
  C:44D1H         LINE#         616
  C:44D9H         LINE#         617
  C:44D9H         LINE#         618
  C:44F0H         LINE#         619
  C:44F0H         LINE#         620
  C:44F3H         LINE#         621
  C:44F3H         LINE#         622
  C:44F3H         LINE#         623
  C:44F3H         LINE#         624
  C:44F5H         LINE#         625
  C:44F5H         LINE#         632
  C:44F9H         LINE#         633
  C:44F9H         LINE#         634
  C:44FCH         LINE#         635
  C:44FFH         LINE#         636
  C:4502H         LINE#         637
  C:450BH         LINE#         638
  C:450BH         LINE#         639
  C:4522H         LINE#         640
  C:4522H         LINE#         641
  C:4525H         LINE#         642
  C:4525H         LINE#         643
  C:4529H         LINE#         644
  C:452FH         LINE#         645
  C:4531H         LINE#         647
  C:4531H         LINE#         648
  C:4537H         LINE#         649
BL51 BANKED LINKER/LOCATER V6.22                                                      12/29/2017  16:22:32  PAGE 58


  C:4539H         LINE#         650
  C:453CH         LINE#         651
  C:453CH         LINE#         652
  C:4540H         LINE#         653
  C:4540H         LINE#         654
  C:4543H         LINE#         655
  C:454BH         LINE#         656
  C:454BH         LINE#         657
  C:4554H         LINE#         659
  C:45B2H         LINE#         660
  C:45B2H         LINE#         661
  C:45B5H         LINE#         662
  C:45B5H         LINE#         663
  C:45BCH         LINE#         664
  C:45BCH         LINE#         666
  C:45C4H         LINE#         667
  C:45C6H         LINE#         668
  C:45D2H         LINE#         669
  C:45D2H         LINE#         670
  C:45DBH         LINE#         671
  C:45DBH         LINE#         672
  C:45DEH         LINE#         673
  C:45DEH         LINE#         674
  C:45DEH         LINE#         677
  C:45E0H         LINE#         678
  C:4612H         LINE#         679
  C:4612H         LINE#         681
  C:461BH         LINE#         682
  C:461BH         LINE#         683
  C:4622H         LINE#         684
  C:4622H         LINE#         685
  C:463EH         LINE#         686
  C:463EH         LINE#         687
  C:4645H         LINE#         688
  C:4645H         LINE#         689
  C:4647H         LINE#         690
  C:4647H         LINE#         691
  C:4647H         LINE#         694
  C:4647H         LINE#         695
  C:464AH         LINE#         696
  C:464AH         LINE#         697
  C:464DH         LINE#         698
  C:464DH         LINE#         699
  -------         ENDPROC       SYS_DEV_AUTO_CHECK
  -------         PROC          START_SYS_AUTO_CHECK
  C:7385H         LINE#         702
  C:7385H         LINE#         703
  C:7385H         LINE#         704
  C:7387H         LINE#         705
  C:738CH         LINE#         706
  C:738EH         LINE#         707
  C:7392H         LINE#         709
  C:7394H         LINE#         711
  -------         ENDPROC       START_SYS_AUTO_CHECK
  -------         PROC          STOP_SYS_AUTO_CHECK
  C:740EH         LINE#         713
  C:740EH         LINE#         714
BL51 BANKED LINKER/LOCATER V6.22                                                      12/29/2017  16:22:32  PAGE 59


  C:740EH         LINE#         715
  C:7410H         LINE#         716
  C:7412H         LINE#         718
  C:7415H         LINE#         719
  C:7418H         LINE#         720
  C:7418H         LINE#         721
  C:741BH         LINE#         722
  C:741BH         LINE#         723
  -------         ENDPROC       STOP_SYS_AUTO_CHECK
  -------         PROC          START_SYS_MANUAL_CHECK
  C:7261H         LINE#         725
  C:7261H         LINE#         726
  C:7261H         LINE#         727
  C:7263H         LINE#         728
  C:7268H         LINE#         730
  C:726AH         LINE#         732
  C:7273H         LINE#         733
  -------         ENDPROC       START_SYS_MANUAL_CHECK
  -------         PROC          CHECK_IF_STOP_MANUAL_CHECK
  -------         DO            
  X:0201H         SYMBOL        check_max_time
  -------         ENDDO         
  C:6BFBH         LINE#         737
  C:6BFBH         LINE#         738
  C:6BFBH         LINE#         740
  C:6C05H         LINE#         741
  C:6C42H         LINE#         742
  C:6C42H         LINE#         743
  C:6C45H         LINE#         744
  C:6C45H         LINE#         745
  -------         ENDPROC       CHECK_IF_STOP_MANUAL_CHECK
  -------         PROC          STOP_SYS_MANUAL_CHECK
  C:7528H         LINE#         748
  C:7528H         LINE#         749
  C:7528H         LINE#         750
  C:752AH         LINE#         752
  C:752DH         LINE#         753
  -------         ENDPROC       STOP_SYS_MANUAL_CHECK
  -------         PROC          SYS_CHECK_AUTO_RESULT_UPLOAD
  -------         DO            
  X:020EH         SYMBOL        result
  -------         ENDDO         
  C:5677H         LINE#         761
  C:5677H         LINE#         762
  C:5677H         LINE#         763
  C:567CH         LINE#         765
  C:567EH         LINE#         767
  C:5686H         LINE#         768
  C:5697H         LINE#         770
  C:573FH         LINE#         771
  -------         ENDPROC       SYS_CHECK_AUTO_RESULT_UPLOAD
  -------         PROC          SYS_CHECK_MANUAL_RESULT_UPLOAD
  -------         DO            
  X:020EH         SYMBOL        result
  -------         ENDDO         
  C:4D59H         LINE#         776
  C:4D59H         LINE#         777
BL51 BANKED LINKER/LOCATER V6.22                                                      12/29/2017  16:22:32  PAGE 60


  C:4D59H         LINE#         778
  C:4D5EH         LINE#         780
  C:4D60H         LINE#         782
  C:4D68H         LINE#         783
  C:4D79H         LINE#         784
  C:4E7CH         LINE#         787
  -------         ENDPROC       SYS_CHECK_MANUAL_RESULT_UPLOAD
  -------         ENDMOD        SYS_RUN

  -------         MODULE        STEP_MOTOR
  C:0000H         SYMBOL        _ICE_DUMMY_
  D:00D4H         PUBLIC        P1M0
  D:00D3H         PUBLIC        P0M1
  D:00D6H         PUBLIC        P2M0
  D:00D5H         PUBLIC        P1M1
  D:0080H         PUBLIC        P0
  D:00D7H         PUBLIC        P2M1
  D:0090H         PUBLIC        P1
  D:00A0H         PUBLIC        P2
  D:00B0H         PUBLIC        P3
  C:7149H         PUBLIC        Door_Open
  D:00B8H         PUBLIC        IEN1
  D:00A8H         PUBLIC        IE
  B:00A0H.0       PUBLIC        P2_0
  C:71C9H         PUBLIC        Step_Motor_Pin_Init
  B:00A0H.1       PUBLIC        P2_1
  B:0090H.2       PUBLIC        P1_2
  B:0090H.3       PUBLIC        P1_3
  C:7547H         PUBLIC        Door_Pin_Init
  C:6F1FH         PUBLIC        _StartMotor
  C:59D3H         PUBLIC        TurnMotor
  C:6BAFH         PUBLIC        Check_If_Close_Door
  D:00E0H         PUBLIC        ACC
  D:00F8H         PUBLIC        IIC0S
  D:00E8H         PUBLIC        IIC1S
  D:0098H         PUBLIC        S0CON
  D:0088H         PUBLIC        TCON0
  D:00D8H         PUBLIC        TCON1
  C:7321H         PUBLIC        Door_Close
  D:00D0H         PUBLIC        PSW
  D:00C0H         PUBLIC        IRCON
  D:00D2H         PUBLIC        P0M0
  -------         PROC          DOOR_PIN_INIT
  C:7547H         LINE#         10
  C:7547H         LINE#         11
  C:7547H         LINE#         12
  C:754AH         LINE#         13
  C:754DH         LINE#         15
  -------         ENDPROC       DOOR_PIN_INIT
  -------         PROC          STEP_MOTOR_PIN_INIT
  C:71C9H         LINE#         18
  C:71C9H         LINE#         19
  C:71C9H         LINE#         20
  C:71CCH         LINE#         21
  C:71CFH         LINE#         23
  C:71D2H         LINE#         24
  C:71D5H         LINE#         26
BL51 BANKED LINKER/LOCATER V6.22                                                      12/29/2017  16:22:32  PAGE 61


  C:71D7H         LINE#         27
  C:71D9H         LINE#         28
  C:71DBH         LINE#         29
  C:71DDH         LINE#         31
  -------         ENDPROC       STEP_MOTOR_PIN_INIT
  -------         PROC          DOOR_OPEN
  C:7149H         LINE#         36
  C:7149H         LINE#         37
  C:7149H         LINE#         38
  C:714CH         LINE#         39
  C:714CH         LINE#         41
  C:714CH         LINE#         42
  C:714EH         LINE#         43
  C:7157H         LINE#         44
  C:7162H         LINE#         45
  -------         ENDPROC       DOOR_OPEN
  -------         PROC          DOOR_CLOSE
  C:7321H         LINE#         47
  C:7321H         LINE#         48
  C:7321H         LINE#         49
  C:7324H         LINE#         50
  C:7324H         LINE#         52
  C:7324H         LINE#         53
  C:732FH         LINE#         54
  C:7331H         LINE#         55
  -------         ENDPROC       DOOR_CLOSE
  -------         PROC          _STARTMOTOR
  X:020EH         SYMBOL        angle
  C:6F1FH         LINE#         57
  C:6F25H         LINE#         58
  C:6F25H         LINE#         60
  C:6F4DH         LINE#         61
  C:6F4FH         LINE#         62
  -------         ENDPROC       _STARTMOTOR
  -------         PROC          CHECK_IF_CLOSE_DOOR
  -------         DO            
  C:7585H         SYMBOL        time_interval
  -------         ENDDO         
  C:6BAFH         LINE#         65
  C:6BAFH         LINE#         66
  C:6BAFH         LINE#         70
  C:6BB2H         LINE#         71
  C:6BB2H         LINE#         72
  C:6BB5H         LINE#         73
  C:6BB5H         LINE#         74
  C:6BBEH         LINE#         75
  C:6BF7H         LINE#         76
  C:6BF7H         LINE#         77
  C:6BFAH         LINE#         78
  C:6BFAH         LINE#         79
  C:6BFAH         LINE#         80
  C:6BFAH         LINE#         81
  -------         ENDPROC       CHECK_IF_CLOSE_DOOR
  -------         PROC          TURNMOTOR
  -------         DO            
  X:02D0H         SYMBOL        index
  X:02D1H         SYMBOL        BeatCode
BL51 BANKED LINKER/LOCATER V6.22                                                      12/29/2017  16:22:32  PAGE 62


  -------         ENDDO         
  C:59D3H         LINE#         91
  C:59D3H         LINE#         92
  C:59D3H         LINE#         98
  C:59EAH         LINE#         99
  C:59EAH         LINE#         101
  C:5A07H         LINE#         102
  C:5A07H         LINE#         103
  C:5A09H         LINE#         104
  C:5A0DH         LINE#         105
  C:5A2AH         LINE#         106
  C:5A2CH         LINE#         108
  C:5A2CH         LINE#         109
  C:5A2EH         LINE#         110
  C:5A32H         LINE#         111
  C:5A57H         LINE#         112
  C:5A57H         LINE#         114
  C:5A6FH         LINE#         115
  C:5A79H         LINE#         116
  C:5A83H         LINE#         117
  C:5A8CH         LINE#         120
  C:5A8DH         LINE#         122
  C:5A8DH         LINE#         123
  C:5A90H         LINE#         124
  C:5A90H         LINE#         125
  C:5A92H         LINE#         126
  C:5A94H         LINE#         127
  C:5A96H         LINE#         128
  C:5A98H         LINE#         129
  C:5A9AH         LINE#         140
  C:5A9AH         LINE#         142
  C:5A9AH         LINE#         143
  -------         ENDPROC       TURNMOTOR
  -------         ENDMOD        STEP_MOTOR

  -------         MODULE        BUZZER
  C:0000H         SYMBOL        _ICE_DUMMY_
  D:00D4H         PUBLIC        P1M0
  D:00D5H         PUBLIC        P1M1
  D:0080H         PUBLIC        P0
  D:0090H         PUBLIC        P1
  D:00A0H         PUBLIC        P2
  D:00B0H         PUBLIC        P3
  C:6F58H         PUBLIC        _BuzzerBeep
  C:747EH         PUBLIC        Buzzer_Signal_Check
  D:00B8H         PUBLIC        IEN1
  D:00A8H         PUBLIC        IE
  C:6FB2H         PUBLIC        Buzzer_Power_On
  B:0090H.6       PUBLIC        P1_6
  C:707CH         PUBLIC        Buzzer_Get_Charge
  D:00E0H         PUBLIC        ACC
  D:00F8H         PUBLIC        IIC0S
  C:7163H         PUBLIC        Buzzer_Speed
  D:00E8H         PUBLIC        IIC1S
  D:0098H         PUBLIC        S0CON
  D:0088H         PUBLIC        TCON0
  D:00D8H         PUBLIC        TCON1
BL51 BANKED LINKER/LOCATER V6.22                                                      12/29/2017  16:22:32  PAGE 63


  C:74EBH         PUBLIC        Buzzer_PinConfig
  C:6FDFH         PUBLIC        Buzzer_Power_Off
  D:00D0H         PUBLIC        PSW
  D:00C0H         PUBLIC        IRCON
  -------         PROC          BUZZER_PINCONFIG
  C:74EBH         LINE#         20
  C:74EBH         LINE#         21
  C:74EBH         LINE#         25
  C:74EEH         LINE#         26
  C:74F1H         LINE#         28
  C:74F3H         LINE#         30
  -------         ENDPROC       BUZZER_PINCONFIG
  C:6F52H         SYMBOL        L?0027
  -------         PROC          L?0026
  -------         ENDPROC       L?0026
  C:6F52H         SYMBOL        L?0027
  -------         PROC          _BUZZERBEEP
  D:0006H         SYMBOL        timeMs
  D:0002H         SYMBOL        frequency
  C:6F58H         LINE#         32
  C:6F5CH         LINE#         33
  C:6F5CH         LINE#         34
  C:6F6BH         LINE#         35
  C:6F7EH         LINE#         36
  C:6F80H         LINE#         39
  -------         ENDPROC       _BUZZERBEEP
  -------         PROC          BUZZER_POWER_ON
  C:6FB2H         LINE#         50
  C:6FB2H         LINE#         51
  C:6FB2H         LINE#         56
  C:6FB5H         LINE#         57
  C:6FBFH         LINE#         58
  C:6FCAH         LINE#         59
  C:6FD4H         LINE#         60
  -------         ENDPROC       BUZZER_POWER_ON
  -------         PROC          BUZZER_POWER_OFF
  C:6FDFH         LINE#         66
  C:6FDFH         LINE#         67
  C:6FDFH         LINE#         73
  C:6FEAH         LINE#         74
  C:6FF4H         LINE#         75
  C:6FF7H         LINE#         76
  C:7001H         LINE#         77
  -------         ENDPROC       BUZZER_POWER_OFF
  -------         PROC          BUZZER_SPEED
  C:7163H         LINE#         80
  C:7163H         LINE#         81
  C:7163H         LINE#         87
  C:7168H         LINE#         88
  C:7172H         LINE#         89
  -------         ENDPROC       BUZZER_SPEED
  -------         PROC          BUZZER_GET_CHARGE
  C:707CH         LINE#         93
  C:707CH         LINE#         94
  C:707CH         LINE#         95
  C:7087H         LINE#         96
  C:7091H         LINE#         97
BL51 BANKED LINKER/LOCATER V6.22                                                      12/29/2017  16:22:32  PAGE 64


  -------         ENDPROC       BUZZER_GET_CHARGE
  -------         PROC          BUZZER_SIGNAL_CHECK
  C:747EH         LINE#         101
  C:747EH         LINE#         102
  C:747EH         LINE#         103
  -------         ENDPROC       BUZZER_SIGNAL_CHECK
  -------         ENDMOD        BUZZER

  -------         MODULE        COMMON
  C:0000H         SYMBOL        _ICE_DUMMY_
  D:0080H         PUBLIC        P0
  D:0090H         PUBLIC        P1
  D:00A0H         PUBLIC        P2
  D:00B0H         PUBLIC        P3
  C:6E80H         PUBLIC        _mystrlen
  D:00B8H         PUBLIC        IEN1
  D:00A8H         PUBLIC        IE
  D:00E0H         PUBLIC        ACC
  D:00F8H         PUBLIC        IIC0S
  D:00E8H         PUBLIC        IIC1S
  D:0098H         PUBLIC        S0CON
  D:0088H         PUBLIC        TCON0
  D:00D8H         PUBLIC        TCON1
  C:6C46H         PUBLIC        _mymemset
  D:00D0H         PUBLIC        PSW
  D:00C0H         PUBLIC        IRCON
  -------         PROC          _MYSTRLEN
  X:025DH         SYMBOL        buff
  -------         DO            
  D:0006H         SYMBOL        length
  -------         ENDDO         
  C:6E80H         LINE#         6
  C:6E8BH         LINE#         7
  C:6E8BH         LINE#         8
  C:6E8EH         LINE#         9
  C:6EA3H         LINE#         10
  C:6EA3H         LINE#         11
  C:6EA8H         LINE#         12
  C:6EB1H         LINE#         13
  C:6EB1H         LINE#         14
  C:6EB6H         LINE#         15
  C:6EB6H         LINE#         16
  C:6EB6H         LINE#         18
  C:6EB6H         LINE#         20
  -------         ENDPROC       _MYSTRLEN
  -------         PROC          _MYMEMSET
  X:025DH         SYMBOL        buff
  X:0260H         SYMBOL        fill_data
  X:0261H         SYMBOL        length
  -------         DO            
  D:0006H         SYMBOL        i
  -------         ENDDO         
  C:6C46H         LINE#         22
  C:6C54H         LINE#         23
  C:6C54H         LINE#         24
  C:6C56H         LINE#         25
  C:6C5DH         LINE#         26
BL51 BANKED LINKER/LOCATER V6.22                                                      12/29/2017  16:22:32  PAGE 65


  C:6C5DH         LINE#         27
  C:6C5FH         LINE#         28
  C:6C5FH         LINE#         30
  C:6C6FH         LINE#         31
  C:6C6FH         LINE#         32
  C:6C87H         LINE#         33
  C:6C8EH         LINE#         35
  C:6C90H         LINE#         36
  -------         ENDPROC       _MYMEMSET
  -------         ENDMOD        COMMON

  -------         MODULE        ADC
  C:0000H         SYMBOL        _ICE_DUMMY_
  D:0080H         PUBLIC        P0
  D:0090H         PUBLIC        P1
  D:00A0H         PUBLIC        P2
  D:00B0H         PUBLIC        P3
  B:00A8H.7       PUBLIC        EA
  C:7332H         PUBLIC        ADC_Read12
  D:00B8H         PUBLIC        IEN1
  D:00A8H         PUBLIC        IE
  C:6F81H         PUBLIC        ADCInterrupt
  D:00ABH         PUBLIC        ADCC1
  D:00ACH         PUBLIC        ADCC2
  D:00E0H         PUBLIC        ACC
  B:0027H.6       PUBLIC        ADCfinish
  D:00ADH         PUBLIC        ADCDH
  B:00B8H.2       PUBLIC        IEADC
  D:00F8H         PUBLIC        IIC0S
  D:00AEH         PUBLIC        ADCDL
  D:00E8H         PUBLIC        IIC1S
  C:7450H         PUBLIC        _ADCInit
  D:00AFH         PUBLIC        ADCCS
  D:0098H         PUBLIC        S0CON
  D:0088H         PUBLIC        TCON0
  D:00D8H         PUBLIC        TCON1
  X:02E5H         PUBLIC        n_data
  C:74F4H         PUBLIC        _ADCstart
  D:00D0H         PUBLIC        PSW
  D:00C0H         PUBLIC        IRCON
  -------         PROC          _ADCSTART
  D:0007H         SYMBOL        n_ADC_CH
  C:74F4H         LINE#         11
  C:74F4H         LINE#         12
  C:74F4H         LINE#         13
  C:74F7H         LINE#         14
  C:74F9H         LINE#         15
  C:74FCH         LINE#         16
  -------         ENDPROC       _ADCSTART
  -------         PROC          _ADCINIT
  D:0007H         SYMBOL        n_ADCnEN
  D:0005H         SYMBOL        n_ADC_CLK
  C:7450H         LINE#         18
  C:7450H         LINE#         19
  C:7450H         LINE#         20
  C:7453H         LINE#         21
  C:7457H         LINE#         22
BL51 BANKED LINKER/LOCATER V6.22                                                      12/29/2017  16:22:32  PAGE 66


  C:7459H         LINE#         23
  C:745BH         LINE#         24
  -------         ENDPROC       _ADCINIT
  -------         PROC          ADC_READ12
  -------         DO            
  D:0006H         SYMBOL        n_ADCD12
  -------         ENDDO         
  C:7332H         LINE#         26
  C:7332H         LINE#         27
  C:7332H         LINE#         28
  C:7333H         LINE#         29
  C:7342H         LINE#         30
  C:7342H         LINE#         31
  -------         ENDPROC       ADC_READ12
  -------         PROC          ADCINTERRUPT
  C:6F81H         LINE#         33
  C:6F94H         LINE#         35
  C:6F9FH         LINE#         36
  C:6FA1H         LINE#         37
  -------         ENDPROC       ADCINTERRUPT
  -------         ENDMOD        ADC

  -------         MODULE        UV
  C:0000H         SYMBOL        _ICE_DUMMY_
  D:00D6H         PUBLIC        P2M0
  D:0080H         PUBLIC        P0
  D:00D7H         PUBLIC        P2M1
  D:0090H         PUBLIC        P1
  D:00A0H         PUBLIC        P2
  D:00B0H         PUBLIC        P3
  D:00B8H         PUBLIC        IEN1
  D:00A8H         PUBLIC        IE
  B:00A0H.2       PUBLIC        P2_2
  C:72FEH         PUBLIC        UV_Off
  C:73E1H         PUBLIC        UV_Pin_Init
  C:745CH         PUBLIC        Get_UV_ADC_Data
  C:754EH         PUBLIC        UV_ADC_Start
  D:00E0H         PUBLIC        ACC
  C:70D9H         PUBLIC        UV_On
  D:00F8H         PUBLIC        IIC0S
  D:00E8H         PUBLIC        IIC1S
  D:0098H         PUBLIC        S0CON
  D:0088H         PUBLIC        TCON0
  D:00D8H         PUBLIC        TCON1
  C:6B57H         PUBLIC        UV_Check
  D:00D0H         PUBLIC        PSW
  D:00C0H         PUBLIC        IRCON
  -------         PROC          UV_PIN_INIT
  C:73E1H         LINE#         15
  C:73E1H         LINE#         16
  C:73E1H         LINE#         18
  C:73E4H         LINE#         19
  C:73E7H         LINE#         21
  C:73E9H         LINE#         23
  -------         ENDPROC       UV_PIN_INIT
  -------         PROC          UV_ON
  C:70D9H         LINE#         27
BL51 BANKED LINKER/LOCATER V6.22                                                      12/29/2017  16:22:32  PAGE 67


  C:70D9H         LINE#         28
  C:70D9H         LINE#         31
  C:70DBH         LINE#         32
  C:70DDH         LINE#         35
  C:70E3H         LINE#         38
  C:70ECH         LINE#         40
  C:70F3H         LINE#         42
  C:70F5H         LINE#         47
  -------         ENDPROC       UV_ON
  -------         PROC          UV_OFF
  C:72FEH         LINE#         49
  C:72FEH         LINE#         50
  C:72FEH         LINE#         51
  C:7300H         LINE#         52
  C:7302H         LINE#         53
  C:7309H         LINE#         54
  C:730BH         LINE#         56
  C:730DH         LINE#         57
  C:730FH         LINE#         58
  -------         ENDPROC       UV_OFF
  -------         PROC          UV_ADC_START
  C:754EH         LINE#         60
  C:754EH         LINE#         61
  C:754EH         LINE#         62
  C:7550H         LINE#         63
  -------         ENDPROC       UV_ADC_START
  -------         PROC          GET_UV_ADC_DATA
  C:745CH         LINE#         66
  C:745CH         LINE#         67
  C:745CH         LINE#         71
  C:7463H         LINE#         72
  C:7465H         LINE#         74
  C:7467H         LINE#         75
  -------         ENDPROC       GET_UV_ADC_DATA
  -------         PROC          UV_CHECK
  -------         DO            
  D:0006H         SYMBOL        uv_adc_data
  -------         ENDDO         
  C:6B57H         LINE#         78
  C:6B57H         LINE#         79
  C:6B57H         LINE#         84
  C:6B5AH         LINE#         85
  C:6B5AH         LINE#         86
  C:6B60H         LINE#         87
  C:6B60H         LINE#         88
  C:6B63H         LINE#         90
  C:6B77H         LINE#         91
  C:6B77H         LINE#         92
  C:6B79H         LINE#         93
  C:6B79H         LINE#         94
  C:6B82H         LINE#         95
  C:6B82H         LINE#         96
  C:6B84H         LINE#         97
  C:6B86H         LINE#         98
  C:6B88H         LINE#         99
  C:6B88H         LINE#         106
  C:6B88H         LINE#         109
BL51 BANKED LINKER/LOCATER V6.22                                                      12/29/2017  16:22:32  PAGE 68


  C:6B8BH         LINE#         110
  C:6B8BH         LINE#         111
  C:6B8EH         LINE#         112
  C:6B8EH         LINE#         113
  C:6B91H         LINE#         114
  C:6B93H         LINE#         115
  C:6B93H         LINE#         116
  C:6B93H         LINE#         120
  C:6BA2H         LINE#         121
  C:6BA2H         LINE#         122
  C:6BA4H         LINE#         123
  C:6BA8H         LINE#         124
  C:6BA8H         LINE#         127
  C:6BABH         LINE#         128
  C:6BABH         LINE#         129
  C:6BAEH         LINE#         130
  C:6BAEH         LINE#         131
  C:6BAEH         LINE#         132
  -------         ENDPROC       UV_CHECK
  -------         ENDMOD        UV

  -------         MODULE        ION
  C:0000H         SYMBOL        _ICE_DUMMY_
  D:00D6H         PUBLIC        P2M0
  D:0080H         PUBLIC        P0
  D:00D7H         PUBLIC        P2M1
  D:0090H         PUBLIC        P1
  D:00A0H         PUBLIC        P2
  D:00B0H         PUBLIC        P3
  C:741CH         PUBLIC        ION_On
  D:00B8H         PUBLIC        IEN1
  D:00A8H         PUBLIC        IE
  B:00A0H.3       PUBLIC        P2_3
  D:00E0H         PUBLIC        ACC
  D:00F8H         PUBLIC        IIC0S
  D:00E8H         PUBLIC        IIC1S
  C:742AH         PUBLIC        ION_Off
  D:0098H         PUBLIC        S0CON
  D:0088H         PUBLIC        TCON0
  C:74FDH         PUBLIC        ION_Pin_Init
  D:00D8H         PUBLIC        TCON1
  D:00D0H         PUBLIC        PSW
  D:00C0H         PUBLIC        IRCON
  -------         PROC          ION_PIN_INIT
  C:74FDH         LINE#         7
  C:74FDH         LINE#         8
  C:74FDH         LINE#         9
  C:7500H         LINE#         10
  C:7503H         LINE#         12
  C:7505H         LINE#         13
  -------         ENDPROC       ION_PIN_INIT
  -------         PROC          ION_ON
  C:741CH         LINE#         16
  C:741CH         LINE#         17
  C:741CH         LINE#         18
  C:741EH         LINE#         19
  C:7420H         LINE#         20
BL51 BANKED LINKER/LOCATER V6.22                                                      12/29/2017  16:22:32  PAGE 69


  C:7427H         LINE#         22
  C:7429H         LINE#         24
  -------         ENDPROC       ION_ON
  -------         PROC          ION_OFF
  C:742AH         LINE#         26
  C:742AH         LINE#         27
  C:742AH         LINE#         28
  C:742CH         LINE#         29
  C:742EH         LINE#         30
  C:7435H         LINE#         32
  C:7437H         LINE#         33
  -------         ENDPROC       ION_OFF
  -------         ENDMOD        ION

  -------         MODULE        CHARGE
  C:0000H         SYMBOL        _ICE_DUMMY_
  D:0080H         PUBLIC        P0
  D:0090H         PUBLIC        P1
  D:00A0H         PUBLIC        P2
  D:00B0H         PUBLIC        P3
  C:2F85H         PUBLIC        charge_init
  D:00B8H         PUBLIC        IEN1
  D:00A8H         PUBLIC        IE
  C:61F7H         PUBLIC        charge_lefttime_flash_write
  C:4957H         PUBLIC        charge_lefttime_count
  C:5ED8H         SYMBOL        _?ix1000
  C:5EE2H         SYMBOL        _?ix1001
  D:00E0H         PUBLIC        ACC
  D:00F8H         PUBLIC        IIC0S
  D:00E8H         PUBLIC        IIC1S
  D:0098H         PUBLIC        S0CON
  D:0088H         PUBLIC        TCON0
  D:00D8H         PUBLIC        TCON1
  D:00D0H         PUBLIC        PSW
  X:02B8H         PUBLIC        charge_info
  D:00C0H         PUBLIC        IRCON
  -------         PROC          CHARGE_INIT
  -------         DO            
  X:0201H         SYMBOL        readbuff
  X:020BH         SYMBOL        eeprom_addr
  C:3371H         SYMBOL        exit
  -------         ENDDO         
  C:2F85H         LINE#         27
  C:2F85H         LINE#         28
  C:2F85H         LINE#         30
  C:2F98H         LINE#         31
  C:2F9FH         LINE#         33
  C:2FA8H         LINE#         35
  C:2FB9H         LINE#         36
  C:2FD0H         LINE#         50
  C:2FD0H         LINE#         51
  C:2FD0H         LINE#         60
  C:2FD0H         LINE#         62
  C:2FDAH         LINE#         63
  C:2FDAH         LINE#         65
  C:2FEBH         LINE#         66
  C:3002H         LINE#         67
BL51 BANKED LINKER/LOCATER V6.22                                                      12/29/2017  16:22:32  PAGE 70


  C:3016H         LINE#         70
  C:301DH         LINE#         72
  C:302EH         LINE#         73
  C:3041H         LINE#         77
  C:3052H         LINE#         78
  C:3065H         LINE#         81
  C:3076H         LINE#         83
  C:30DBH         LINE#         84
  C:30EFH         LINE#         86
  C:30F4H         LINE#         87
  C:30FCH         LINE#         88
  C:3110H         LINE#         90
  C:3113H         LINE#         92
  C:3113H         LINE#         94
  C:3113H         LINE#         95
  C:3121H         LINE#         97
  C:3121H         LINE#         98
  C:3132H         LINE#         99
  C:3149H         LINE#         100
  C:315DH         LINE#         102
  C:316EH         LINE#         104
  C:3185H         LINE#         106
  C:3197H         LINE#         107
  C:3197H         LINE#         108
  C:319BH         LINE#         109
  C:319BH         LINE#         110
  C:31ACH         LINE#         111
  C:31C9H         LINE#         113
  C:31D8H         LINE#         115
  C:31E9H         LINE#         116
  C:31F6H         LINE#         117
  C:31F6H         LINE#         118
  C:31F8H         LINE#         120
  C:31F8H         LINE#         121
  C:320CH         LINE#         123
  C:321DH         LINE#         124
  C:3234H         LINE#         125
  C:3248H         LINE#         126
  C:3248H         LINE#         128
  C:3250H         LINE#         129
  C:3258H         LINE#         130
  C:3260H         LINE#         131
  C:3268H         LINE#         132
  C:3270H         LINE#         134
  C:3273H         LINE#         135
  C:3273H         LINE#         137
  C:3283H         LINE#         138
  C:3283H         LINE#         139
  C:328EH         LINE#         140
  C:3291H         LINE#         141
  C:329BH         LINE#         142
  C:329BH         LINE#         144
  C:32A3H         LINE#         145
  C:32ABH         LINE#         146
  C:32B3H         LINE#         147
  C:32BBH         LINE#         148
  C:32C3H         LINE#         150
BL51 BANKED LINKER/LOCATER V6.22                                                      12/29/2017  16:22:32  PAGE 71


  C:32CCH         LINE#         152
  C:32DDH         LINE#         153
  C:32F4H         LINE#         154
  C:3308H         LINE#         156
  C:330AH         LINE#         157
  C:330AH         LINE#         159
  C:330AH         LINE#         161
  C:331BH         LINE#         162
  C:3332H         LINE#         163
  C:3346H         LINE#         165
  C:334CH         LINE#         166
  C:3354H         LINE#         168
  C:335DH         LINE#         170
  C:335FH         LINE#         171
  C:335FH         LINE#         173
  C:3371H         LINE#         174
  C:3371H         LINE#         175
  C:3371H         LINE#         177
  C:3387H         LINE#         179
  C:3398H         LINE#         180
  C:33BEH         LINE#         181
  C:33D2H         LINE#         183
  C:33E3H         LINE#         184
  C:3400H         LINE#         185
  C:3411H         LINE#         187
  C:3476H         LINE#         188
  C:348AH         LINE#         190
  C:349BH         LINE#         191
  C:34D0H         LINE#         192
  -------         ENDPROC       CHARGE_INIT
  -------         PROC          CHARGE_LEFTTIME_FLASH_WRITE
  -------         DO            
  X:025DH         SYMBOL        i
  -------         ENDDO         
  C:61F7H         LINE#         198
  C:61F7H         LINE#         199
  C:61F7H         LINE#         200
  C:61FCH         LINE#         202
  C:6208H         LINE#         203
  C:6208H         LINE#         204
  C:620FH         LINE#         205
  C:620FH         LINE#         207
  C:621EH         LINE#         208
  C:621EH         LINE#         209
  C:6221H         LINE#         210
  C:6221H         LINE#         211
  C:622CH         LINE#         212
  C:622EH         LINE#         214
  C:622EH         LINE#         215
  C:6259H         LINE#         216
  C:6259H         LINE#         217
  C:6261H         LINE#         219
  C:6270H         LINE#         220
  C:6270H         LINE#         221
  C:6276H         LINE#         222
  C:6277H         LINE#         224
  C:6277H         LINE#         225
BL51 BANKED LINKER/LOCATER V6.22                                                      12/29/2017  16:22:32  PAGE 72


  C:6285H         LINE#         226
  C:6285H         LINE#         227
  -------         ENDPROC       CHARGE_LEFTTIME_FLASH_WRITE
  -------         PROC          CHARGE_LEFTTIME_COUNT
  -------         DO            
  X:0201H         SYMBOL        readbuff
  -------         ENDDO         
  C:4957H         LINE#         230
  C:4957H         LINE#         231
  C:4957H         LINE#         232
  C:496AH         LINE#         233
  C:4973H         LINE#         234
  C:4973H         LINE#         236
  C:4973H         LINE#         238
  C:498FH         LINE#         239
  C:498FH         LINE#         241
  C:498FH         LINE#         243
  C:4998H         LINE#         245
  C:49CCH         LINE#         246
  C:49CCH         LINE#         247
  C:49EBH         LINE#         248
  C:49EBH         LINE#         249
  C:4A10H         LINE#         250
  C:4A10H         LINE#         251
  C:4A32H         LINE#         252
  C:4A51H         LINE#         254
  C:4A6AH         LINE#         255
  C:4A6AH         LINE#         256
  C:4A6DH         LINE#         257
  C:4A6DH         LINE#         259
  C:4A7EH         LINE#         260
  C:4AA6H         LINE#         261
  C:4ABAH         LINE#         270
  C:4ABAH         LINE#         271
  -------         ENDPROC       CHARGE_LEFTTIME_COUNT
  -------         ENDMOD        CHARGE

  -------         MODULE        EEPROM
  C:0000H         SYMBOL        _ICE_DUMMY_
  C:7489H         PUBLIC        Check_ISPFAH
  C:709CH         PUBLIC        _EEPROM_Byte_Program
  D:00F7H         PUBLIC        TAKEY
  D:0080H         PUBLIC        P0
  D:0090H         PUBLIC        P1
  D:00A0H         PUBLIC        P2
  D:00B0H         PUBLIC        P3
  B:00A8H.7       PUBLIC        EA
  D:00B8H         PUBLIC        IEN1
  D:00A8H         PUBLIC        IE
  C:67E4H         PUBLIC        _EEPROM_Read_Bytes
  D:00E7H         PUBLIC        SWRES
  C:7530H         PUBLIC        _EEPROM_Byte_Read
  C:64ABH         PUBLIC        _EEPROM_Write_Bytes
  C:73F0H         PUBLIC        Software_Reset
  D:00E1H         PUBLIC        ISPFAH
  D:00E2H         PUBLIC        ISPFAL
  D:00E0H         PUBLIC        ACC
BL51 BANKED LINKER/LOCATER V6.22                                                      12/29/2017  16:22:32  PAGE 73


  D:00F8H         PUBLIC        IIC0S
  D:00E8H         PUBLIC        IIC1S
  C:6EB7H         PUBLIC        _EEPROM_Sector_Program
  C:7354H         PUBLIC        EEPROM_Disable
  D:0098H         PUBLIC        S0CON
  D:0088H         PUBLIC        TCON0
  D:00D8H         PUBLIC        TCON1
  D:008FH         PUBLIC        IFCON
  C:7343H         PUBLIC        EEPROM_Enable
  D:00E4H         PUBLIC        ISPFC
  D:00E3H         PUBLIC        ISPFD
  D:00D0H         PUBLIC        PSW
  D:00C0H         PUBLIC        IRCON
  C:712EH         PUBLIC        _EEPROM_Page_Erase
  -------         PROC          SOFTWARE_RESET
  C:73F0H         LINE#         23
  C:73F0H         LINE#         24
  C:73F0H         LINE#         25
  C:73F2H         LINE#         26
  C:73F5H         LINE#         27
  C:73F8H         LINE#         28
  C:73FBH         LINE#         29
  C:73FEH         LINE#         30
  -------         ENDPROC       SOFTWARE_RESET
  -------         PROC          CHECK_ISPFAH
  C:7489H         LINE#         32
  C:7489H         LINE#         33
  C:7489H         LINE#         34
  C:7490H         LINE#         35
  C:7493H         LINE#         36
  -------         ENDPROC       CHECK_ISPFAH
  -------         PROC          EEPROM_ENABLE
  C:7343H         LINE#         38
  C:7343H         LINE#         39
  C:7343H         LINE#         40
  C:7345H         LINE#         41
  C:7348H         LINE#         42
  C:734BH         LINE#         43
  C:734EH         LINE#         44
  C:7351H         LINE#         45
  C:7353H         LINE#         46
  -------         ENDPROC       EEPROM_ENABLE
  -------         PROC          EEPROM_DISABLE
  C:7354H         LINE#         48
  C:7354H         LINE#         49
  C:7354H         LINE#         50
  C:7356H         LINE#         51
  C:7359H         LINE#         52
  C:735CH         LINE#         53
  C:735FH         LINE#         54
  C:7362H         LINE#         55
  C:7364H         LINE#         56
  -------         ENDPROC       EEPROM_DISABLE
  -------         PROC          _EEPROM_BYTE_PROGRAM
  D:0002H         SYMBOL        Addr
  D:0005H         SYMBOL        Data
  -------         DO            
BL51 BANKED LINKER/LOCATER V6.22                                                      12/29/2017  16:22:32  PAGE 74


  C:70B8H         SYMBOL        exit
  -------         ENDDO         
  C:709CH         LINE#         58
  C:70A0H         LINE#         59
  C:70A0H         LINE#         60
  C:70A3H         LINE#         61
  C:70A7H         LINE#         62
  C:70AAH         LINE#         63
  C:70AEH         LINE#         64
  C:70B5H         LINE#         65
  C:70B8H         LINE#         68
  C:70B8H         LINE#         70
  C:70B8H         LINE#         71
  -------         ENDPROC       _EEPROM_BYTE_PROGRAM
  -------         PROC          _EEPROM_PAGE_ERASE
  D:0004H         SYMBOL        Addr
  -------         DO            
  C:7146H         SYMBOL        exit
  -------         ENDDO         
  C:712EH         LINE#         74
  C:7132H         LINE#         75
  C:7132H         LINE#         76
  C:7135H         LINE#         77
  C:7138H         LINE#         78
  C:713CH         LINE#         79
  C:7143H         LINE#         80
  C:7146H         LINE#         83
  C:7146H         LINE#         85
  C:7146H         LINE#         86
  -------         ENDPROC       _EEPROM_PAGE_ERASE
  -------         PROC          _EEPROM_SECTOR_PROGRAM
  D:0006H         SYMBOL        Addr_start
  X:02DDH         SYMBOL        Addr_end
  D:0001H         SYMBOL        Data
  -------         DO            
  X:02DFH         SYMBOL        i
  -------         ENDDO         
  C:6EB7H         LINE#         89
  C:6EC1H         LINE#         90
  C:6EC1H         LINE#         92
  C:6EDBH         LINE#         93
  C:6EDBH         LINE#         94
  C:6EE0H         LINE#         95
  C:6EEDH         LINE#         96
  -------         ENDPROC       _EEPROM_SECTOR_PROGRAM
  -------         PROC          _EEPROM_BYTE_READ
  D:0006H         SYMBOL        Addr
  C:7530H         LINE#         98
  C:7530H         LINE#         99
  C:7530H         LINE#         100
  C:7537H         LINE#         101
  -------         ENDPROC       _EEPROM_BYTE_READ
  -------         PROC          _EEPROM_READ_BYTES
  X:020DH         SYMBOL        buff
  D:0004H         SYMBOL        Addr
  X:0212H         SYMBOL        length
  -------         DO            
BL51 BANKED LINKER/LOCATER V6.22                                                      12/29/2017  16:22:32  PAGE 75


  X:0213H         SYMBOL        i
  -------         ENDDO         
  C:67E4H         LINE#         104
  C:67EFH         LINE#         105
  C:67EFH         LINE#         106
  C:67F4H         LINE#         107
  C:6802H         LINE#         108
  C:6802H         LINE#         110
  C:6802H         LINE#         112
  C:6811H         LINE#         113
  C:6811H         LINE#         115
  C:6811H         LINE#         121
  C:6822H         LINE#         122
  C:6822H         LINE#         123
  C:6843H         LINE#         124
  C:684BH         LINE#         125
  -------         ENDPROC       _EEPROM_READ_BYTES
  -------         PROC          _EEPROM_WRITE_BYTES
  X:020DH         SYMBOL        buff
  D:0004H         SYMBOL        Addr
  X:0212H         SYMBOL        length
  -------         DO            
  X:0213H         SYMBOL        i
  X:0214H         SYMBOL        eeprom_addr
  -------         ENDDO         
  C:64ABH         LINE#         128
  C:64B6H         LINE#         129
  C:64B6H         LINE#         130
  C:64BBH         LINE#         131
  C:64BFH         LINE#         132
  C:64CDH         LINE#         133
  C:64CDH         LINE#         138
  C:64CDH         LINE#         140
  C:64DCH         LINE#         141
  C:64DCH         LINE#         146
  C:64DCH         LINE#         152
  C:64E6H         LINE#         154
  C:64F7H         LINE#         155
  C:64F7H         LINE#         156
  C:6521H         LINE#         157
  C:6529H         LINE#         158
  -------         ENDPROC       _EEPROM_WRITE_BYTES
  -------         ENDMOD        EEPROM

  -------         MODULE        M26
  C:0000H         SYMBOL        _ICE_DUMMY_
  C:670DH         PUBLIC        M26_Restart
  D:0080H         PUBLIC        P0
  C:7276H         PUBLIC        M26_Device_Activate
  D:00DAH         PUBLIC        P3M0
  D:0090H         PUBLIC        P1
  D:00DBH         PUBLIC        P3M1
  D:00A0H         PUBLIC        P2
  D:00B0H         PUBLIC        P3
  C:0056H         PUBLIC        Wifi_Led_Off
  C:717DH         PUBLIC        M26_Wakeup
  C:750FH         PUBLIC        M26_Wakeup_Pin_Init
BL51 BANKED LINKER/LOCATER V6.22                                                      12/29/2017  16:22:32  PAGE 76


  C:700CH         PUBLIC        device_get_ccid
  D:00B8H         PUBLIC        IEN1
  D:00A8H         PUBLIC        IE
  B:00B0H.2       PUBLIC        P3_2
  C:2259H         PUBLIC        m26_http_loop
  B:00B0H.3       PUBLIC        P3_3
  C:71F7H         PUBLIC        M26_Charge_Confirm
  C:6163H         PUBLIC        m26_signal_check
  C:6919H         PUBLIC        m26_fogcloud_init_and_check
  C:5CCFH         PUBLIC        M26_Status_Sync
  C:3E08H         PUBLIC        _M26_Send_data
  C:464EH         PUBLIC        M26_wait_response
  C:7395H         PUBLIC        M26_Power_Off
  C:0046H         PUBLIC        Wifi_Led_On
  C:7506H         PUBLIC        M26_Power_Pin_Init
  X:0145H         PUBLIC        M26_register_net
  C:70BBH         PUBLIC        device_activate
  C:6D18H         PUBLIC        M26_Get_CCID
  C:582EH         PUBLIC        M26_Register_to_Net
  X:0147H         PUBLIC        m26_action
  C:52D3H         PUBLIC        _string_get_string
  C:71E0H         PUBLIC        clear_wifi_uart_buff
  C:2F63H         SYMBOL        _?ix1000
  C:7582H         PUBLIC        M26_Power_On
  D:00E0H         PUBLIC        ACC
  C:6CD5H         PUBLIC        M26_Get_Signal_Quality
  C:5903H         PUBLIC        _string_get_long
  C:0066H         PUBLIC        check_m26_cmd_result
  D:00F8H         PUBLIC        IIC0S
  D:00E8H         PUBLIC        IIC1S
  C:69E0H         PUBLIC        M26_Upload_Data
  C:55B8H         PUBLIC        _make_m26_send_string
  B:0027H.7       SYMBOL        Is_http
  X:0148H         SYMBOL        http_step
  D:0098H         PUBLIC        S0CON
  D:0088H         PUBLIC        TCON0
  D:00D8H         PUBLIC        TCON1
  C:4E9DH         PUBLIC        _string_get_int
  X:0149H         PUBLIC        m26_cmd_info
  D:00D0H         PUBLIC        PSW
  C:71B0H         PUBLIC        M26_Ota_Check
  D:00C0H         PUBLIC        IRCON
  -------         PROC          M26_POWER_PIN_INIT
  C:7506H         LINE#         32
  C:7506H         LINE#         33
  C:7506H         LINE#         34
  C:7509H         LINE#         35
  C:750CH         LINE#         37
  C:750EH         LINE#         38
  -------         ENDPROC       M26_POWER_PIN_INIT
  -------         PROC          M26_POWER_ON
  C:7582H         LINE#         40
  C:7582H         LINE#         41
  C:7582H         LINE#         42
  C:7584H         LINE#         43
  -------         ENDPROC       M26_POWER_ON
  -------         PROC          M26_POWER_OFF
BL51 BANKED LINKER/LOCATER V6.22                                                      12/29/2017  16:22:32  PAGE 77


  C:7395H         LINE#         45
  C:7395H         LINE#         46
  C:7395H         LINE#         47
  C:7397H         LINE#         49
  C:739AH         LINE#         50
  C:739AH         LINE#         51
  C:739CH         LINE#         52
  C:739CH         LINE#         53
  C:739FH         LINE#         55
  C:73A1H         LINE#         56
  C:73A4H         LINE#         57
  -------         ENDPROC       M26_POWER_OFF
  -------         PROC          M26_WAKEUP_PIN_INIT
  C:750FH         LINE#         60
  C:750FH         LINE#         61
  C:750FH         LINE#         62
  C:7512H         LINE#         63
  C:7515H         LINE#         65
  C:7517H         LINE#         66
  -------         ENDPROC       M26_WAKEUP_PIN_INIT
  -------         PROC          M26_WAKEUP
  -------         DO            
  D:0007H         SYMBOL        times_s
  -------         ENDDO         
  C:717DH         LINE#         68
  C:717DH         LINE#         69
  C:717DH         LINE#         70
  C:717FH         LINE#         71
  C:7181H         LINE#         73
  C:7184H         LINE#         74
  C:7184H         LINE#         75
  C:7186H         LINE#         76
  C:7186H         LINE#         79
  C:718CH         LINE#         80
  C:718CH         LINE#         81
  C:718FH         LINE#         82
  C:718FH         LINE#         83
  C:7191H         LINE#         84
  C:7192H         LINE#         85
  C:7192H         LINE#         86
  C:7194H         LINE#         88
  C:7196H         LINE#         90
  -------         ENDPROC       M26_WAKEUP
  -------         PROC          M26_RESTART
  C:670DH         LINE#         92
  C:670DH         LINE#         93
  C:670DH         LINE#         95
  C:6710H         LINE#         96
  C:6713H         LINE#         99
  C:6716H         LINE#         100
  C:6716H         LINE#         101
  C:6718H         LINE#         102
  C:6718H         LINE#         103
  C:671BH         LINE#         105
  C:671EH         LINE#         107
  C:6723H         LINE#         108
  C:6727H         LINE#         109
BL51 BANKED LINKER/LOCATER V6.22                                                      12/29/2017  16:22:32  PAGE 78


  C:6729H         LINE#         110
  C:672DH         LINE#         112
  C:672FH         LINE#         113
  C:6731H         LINE#         114
  C:6735H         LINE#         116
  C:6739H         LINE#         117
  C:673BH         LINE#         119
  C:673DH         LINE#         121
  C:674EH         LINE#         122
  C:6765H         LINE#         123
  -------         ENDPROC       M26_RESTART
  C:55A2H         SYMBOL        L?0530
  C:55B1H         SYMBOL        L?0531
  -------         PROC          L?0529
  -------         ENDPROC       L?0529
  C:55A2H         SYMBOL        L?0530
  C:55B1H         SYMBOL        L?0531
  -------         PROC          _MAKE_M26_SEND_STRING
  X:0203H         SYMBOL        str_buff
  X:0206H         SYMBOL        cmd
  X:0209H         SYMBOL        cmd_para
  C:55B8H         LINE#         127
  C:55C3H         LINE#         128
  C:55C3H         LINE#         129
  C:55D1H         LINE#         130
  C:55D1H         LINE#         131
  C:55D4H         LINE#         132
  C:55D4H         LINE#         134
  C:55EEH         LINE#         135
  C:55EEH         LINE#         136
  C:55F1H         LINE#         137
  C:55F1H         LINE#         139
  C:55FFH         LINE#         140
  C:55FFH         LINE#         141
  C:560FH         LINE#         142
  C:560FH         LINE#         145
  C:560FH         LINE#         147
  C:560FH         LINE#         148
  C:562AH         LINE#         149
  C:562AH         LINE#         152
  C:562AH         LINE#         155
  C:5638H         LINE#         156
  C:5638H         LINE#         157
  C:5658H         LINE#         158
  C:5658H         LINE#         160
  C:5674H         LINE#         162
  C:5676H         LINE#         163
  -------         ENDPROC       _MAKE_M26_SEND_STRING
  -------         PROC          M26_WAIT_RESPONSE
  -------         DO            
  X:0201H         SYMBOL        res
  X:0203H         SYMBOL        cmd_position
  C:47D2H         SYMBOL        exit
  C:47D1H         SYMBOL        cmd_failed
  C:47CFH         SYMBOL        cmd_sucess
  -------         ENDDO         
  C:464EH         LINE#         166
BL51 BANKED LINKER/LOCATER V6.22                                                      12/29/2017  16:22:32  PAGE 79


  C:464EH         LINE#         167
  C:464EH         LINE#         168
  C:4656H         LINE#         171
  C:465FH         LINE#         176
  C:4665H         LINE#         177
  C:4665H         LINE#         178
  C:466BH         LINE#         179
  C:4671H         LINE#         180
  C:4674H         LINE#         181
  C:4674H         LINE#         183
  C:467DH         LINE#         187
  C:46B0H         LINE#         188
  C:46B0H         LINE#         189
  C:46C4H         LINE#         190
  C:46C4H         LINE#         194
  C:46F2H         LINE#         195
  C:46F2H         LINE#         196
  C:46FBH         LINE#         198
  C:4704H         LINE#         199
  C:4707H         LINE#         200
  C:4707H         LINE#         202
  C:4723H         LINE#         203
  C:4723H         LINE#         204
  C:472CH         LINE#         205
  C:4735H         LINE#         206
  C:4738H         LINE#         207
  C:4738H         LINE#         209
  C:473EH         LINE#         210
  C:473EH         LINE#         212
  C:475AH         LINE#         213
  C:475AH         LINE#         214
  C:4763H         LINE#         215
  C:4766H         LINE#         216
  C:4768H         LINE#         217
  C:4768H         LINE#         219
  C:4768H         LINE#         220
  C:4770H         LINE#         221
  C:4770H         LINE#         224
  C:4792H         LINE#         225
  C:47BDH         LINE#         227
  C:47BDH         LINE#         228
  C:47C6H         LINE#         229
  C:47CFH         LINE#         231
  C:47CFH         LINE#         232
  C:47CFH         LINE#         235
  C:47CFH         LINE#         238
  C:47CFH         LINE#         241
  C:47CFH         LINE#         243
  C:47D1H         LINE#         246
  C:47D1H         LINE#         248
  C:47D9H         LINE#         250
  -------         ENDPROC       M26_WAIT_RESPONSE
  -------         PROC          CHECK_M26_CMD_RESULT
  -------         DO            
  X:0201H         SYMBOL        position
  X:0204H         SYMBOL        value_int
  X:0206H         SYMBOL        value_long
BL51 BANKED LINKER/LOCATER V6.22                                                      12/29/2017  16:22:32  PAGE 80


  X:020AH         SYMBOL        status
  X:020CH         SYMBOL        ordnum_cmp_result
  X:020DH         SYMBOL        i
  -------         ENDDO         
  C:0066H         LINE#         253
  C:0066H         LINE#         254
  C:0066H         LINE#         255
  C:006FH         LINE#         256
  C:0075H         LINE#         257
  C:007DH         LINE#         258
  C:0085H         LINE#         259
  C:0088H         LINE#         262
  C:008AH         LINE#         266
  C:0091H         LINE#         267
  C:0092H         LINE#         269
  C:0092H         LINE#         270
  C:009AH         LINE#         271
  C:009AH         LINE#         272
  C:00A7H         LINE#         273
  C:00A8H         LINE#         275
  C:00A8H         LINE#         276
  C:00B1H         LINE#         277
  C:00B1H         LINE#         280
  C:00B5H         LINE#         283
  C:00C5H         LINE#         284
  C:00C5H         LINE#         285
  C:00C8H         LINE#         287
  C:00C8H         LINE#         290
  C:00DDH         LINE#         291
  C:00DDH         LINE#         293
  C:00DDH         LINE#         294
  C:00F2H         LINE#         295
  C:00F2H         LINE#         298
  C:0105H         LINE#         300
  C:0127H         LINE#         301
  C:0138H         LINE#         302
  C:0138H         LINE#         303
  C:0158H         LINE#         304
  C:0158H         LINE#         305
  C:0183H         LINE#         306
  C:0183H         LINE#         307
  C:018CH         LINE#         308
  C:018CH         LINE#         309
  C:019DH         LINE#         310
  C:01CEH         LINE#         311
  C:01DFH         LINE#         313
  C:01F0H         LINE#         314
  C:0223H         LINE#         315
  C:0237H         LINE#         317
  C:0241H         LINE#         318
  C:0241H         LINE#         319
  C:0243H         LINE#         320
  C:0244H         LINE#         322
  C:0244H         LINE#         323
  C:0255H         LINE#         324
  C:0262H         LINE#         325
  C:0262H         LINE#         326
BL51 BANKED LINKER/LOCATER V6.22                                                      12/29/2017  16:22:32  PAGE 81


  C:0262H         LINE#         327
  C:0265H         LINE#         329
  C:0265H         LINE#         330
  C:0276H         LINE#         331
  C:0283H         LINE#         332
  C:0283H         LINE#         333
  C:0283H         LINE#         334
  C:0286H         LINE#         335
  C:0286H         LINE#         336
  C:028FH         LINE#         337
  C:028FH         LINE#         338
  C:028FH         LINE#         339
  C:02A4H         LINE#         340
  C:02A4H         LINE#         351
  C:02A4H         LINE#         352
  C:02B9H         LINE#         353
  C:02B9H         LINE#         355
  C:02CAH         LINE#         356
  C:02ECH         LINE#         357
  C:0317H         LINE#         359
  C:0328H         LINE#         360
  C:034BH         LINE#         361
  C:035FH         LINE#         363
  C:0361H         LINE#         364
  C:0362H         LINE#         365
  C:0374H         LINE#         366
  C:0374H         LINE#         368
  C:0385H         LINE#         369
  C:039CH         LINE#         370
  C:03B0H         LINE#         372
  C:03B6H         LINE#         373
  C:03B7H         LINE#         374
  C:03C9H         LINE#         375
  C:03C9H         LINE#         377
  C:03DAH         LINE#         378
  C:03F1H         LINE#         379
  C:0405H         LINE#         381
  C:040BH         LINE#         382
  C:040CH         LINE#         383
  C:041EH         LINE#         384
  C:041EH         LINE#         386
  C:042FH         LINE#         387
  C:0446H         LINE#         388
  C:045AH         LINE#         391
  C:0460H         LINE#         392
  C:0461H         LINE#         393
  C:0473H         LINE#         394
  C:0473H         LINE#         396
  C:0484H         LINE#         397
  C:049BH         LINE#         398
  C:04AFH         LINE#         401
  C:04B5H         LINE#         402
  C:04B6H         LINE#         403
  C:04C8H         LINE#         404
  C:04C8H         LINE#         406
  C:04D9H         LINE#         407
  C:04F0H         LINE#         408
BL51 BANKED LINKER/LOCATER V6.22                                                      12/29/2017  16:22:32  PAGE 82


  C:0504H         LINE#         410
  C:050AH         LINE#         411
  C:050DH         LINE#         412
  C:050EH         LINE#         413
  C:0520H         LINE#         414
  C:0520H         LINE#         421
  C:0520H         LINE#         422
  C:0522H         LINE#         423
  C:0534H         LINE#         424
  C:0534H         LINE#         430
  C:053AH         LINE#         431
  C:053BH         LINE#         432
  C:0550H         LINE#         433
  C:0550H         LINE#         434
  C:0554H         LINE#         435
  C:0556H         LINE#         441
  C:0569H         LINE#         442
  C:0569H         LINE#         444
  C:0592H         LINE#         445
  C:0592H         LINE#         446
  C:05A3H         LINE#         447
  C:05CEH         LINE#         449
  C:05DFH         LINE#         450
  C:0602H         LINE#         451
  C:0616H         LINE#         452
  C:0616H         LINE#         453
  C:0618H         LINE#         454
  C:061BH         LINE#         455
  C:062BH         LINE#         456
  C:062BH         LINE#         459
  C:062DH         LINE#         461
  C:0641H         LINE#         463
  C:0652H         LINE#         464
  C:065FH         LINE#         465
  C:065FH         LINE#         466
  C:0661H         LINE#         467
  C:0671H         LINE#         468
  C:0671H         LINE#         469
  C:0682H         LINE#         470
  C:0699H         LINE#         471
  C:06ADH         LINE#         472
  C:06B0H         LINE#         473
  C:06C3H         LINE#         474
  C:06C3H         LINE#         477
  C:06C5H         LINE#         478
  C:06C8H         LINE#         479
  C:06C8H         LINE#         480
  C:06CAH         LINE#         481
  C:06CAH         LINE#         489
  C:06F0H         LINE#         490
  C:06F0H         LINE#         491
  C:0701H         LINE#         492
  C:0718H         LINE#         493
  C:072CH         LINE#         494
  C:072FH         LINE#         496
  C:072FH         LINE#         497
  C:0737H         LINE#         498
BL51 BANKED LINKER/LOCATER V6.22                                                      12/29/2017  16:22:32  PAGE 83


  C:074DH         LINE#         503
  C:0755H         LINE#         504
  C:0755H         LINE#         506
  C:0777H         LINE#         507
  C:0785H         LINE#         508
  C:0785H         LINE#         510
  C:0785H         LINE#         511
  C:0790H         LINE#         513
  C:07A1H         LINE#         514
  C:07C7H         LINE#         515
  C:07DBH         LINE#         517
  C:07EAH         LINE#         518
  C:07EAH         LINE#         519
  C:07EDH         LINE#         520
  C:07EFH         LINE#         521
  C:07FCH         LINE#         522
  C:07FCH         LINE#         523
  C:07FFH         LINE#         524
  C:07FFH         LINE#         525
  C:07FFH         LINE#         526
  C:0821H         LINE#         527
  C:082FH         LINE#         528
  C:082FH         LINE#         530
  C:082FH         LINE#         531
  C:083AH         LINE#         533
  C:084BH         LINE#         534
  C:0871H         LINE#         535
  C:0885H         LINE#         537
  C:088EH         LINE#         539
  C:088EH         LINE#         540
  C:08B0H         LINE#         541
  C:08BEH         LINE#         542
  C:08BEH         LINE#         544
  C:08BEH         LINE#         545
  C:08C9H         LINE#         547
  C:08DAH         LINE#         548
  C:0900H         LINE#         549
  C:0914H         LINE#         551
  C:0923H         LINE#         552
  C:0923H         LINE#         553
  C:0926H         LINE#         554
  C:0928H         LINE#         555
  C:0935H         LINE#         556
  C:0935H         LINE#         557
  C:0938H         LINE#         558
  C:0938H         LINE#         560
  C:0938H         LINE#         561
  C:095AH         LINE#         562
  C:0968H         LINE#         563
  C:0968H         LINE#         565
  C:0968H         LINE#         566
  C:0973H         LINE#         568
  C:0984H         LINE#         569
  C:09AAH         LINE#         570
  C:09BEH         LINE#         572
  C:09CDH         LINE#         573
  C:09CDH         LINE#         574
BL51 BANKED LINKER/LOCATER V6.22                                                      12/29/2017  16:22:32  PAGE 84


  C:09D0H         LINE#         575
  C:09D2H         LINE#         576
  C:09DFH         LINE#         577
  C:09DFH         LINE#         578
  C:09E2H         LINE#         579
  C:09E2H         LINE#         581
  C:09E2H         LINE#         582
  C:0A04H         LINE#         583
  C:0A12H         LINE#         584
  C:0A12H         LINE#         586
  C:0A12H         LINE#         587
  C:0A1DH         LINE#         589
  C:0A2EH         LINE#         590
  C:0A54H         LINE#         591
  C:0A68H         LINE#         593
  C:0A6AH         LINE#         596
  C:0A73H         LINE#         598
  C:0A76H         LINE#         599
  C:0A76H         LINE#         600
  C:0A98H         LINE#         601
  C:0AA6H         LINE#         602
  C:0AA6H         LINE#         604
  C:0AA6H         LINE#         605
  C:0AB1H         LINE#         607
  C:0AC2H         LINE#         608
  C:0AE8H         LINE#         609
  C:0AFCH         LINE#         611
  C:0AFFH         LINE#         612
  C:0AFFH         LINE#         613
  C:0B21H         LINE#         614
  C:0B2FH         LINE#         615
  C:0B2FH         LINE#         617
  C:0B2FH         LINE#         618
  C:0B3AH         LINE#         620
  C:0B4BH         LINE#         621
  C:0B71H         LINE#         622
  C:0B85H         LINE#         624
  C:0B88H         LINE#         625
  C:0B88H         LINE#         626
  C:0BAAH         LINE#         627
  C:0BB8H         LINE#         628
  C:0BB8H         LINE#         630
  C:0BB8H         LINE#         631
  C:0BC3H         LINE#         633
  C:0BD4H         LINE#         634
  C:0BFAH         LINE#         635
  C:0C0EH         LINE#         637
  C:0C11H         LINE#         638
  C:0C11H         LINE#         639
  C:0C33H         LINE#         640
  C:0C41H         LINE#         641
  C:0C41H         LINE#         643
  C:0C41H         LINE#         644
  C:0C4CH         LINE#         646
  C:0C5DH         LINE#         647
  C:0C83H         LINE#         648
  C:0C97H         LINE#         650
BL51 BANKED LINKER/LOCATER V6.22                                                      12/29/2017  16:22:32  PAGE 85


  C:0C9AH         LINE#         651
  C:0C9AH         LINE#         653
  C:0C9AH         LINE#         654
  C:0C9AH         LINE#         656
  C:0CC0H         LINE#         657
  C:0CC0H         LINE#         658
  C:0CD1H         LINE#         659
  C:0CE8H         LINE#         660
  C:0CFCH         LINE#         661
  C:0CFFH         LINE#         663
  C:0CFFH         LINE#         664
  C:0D07H         LINE#         665
  C:0D1DH         LINE#         671
  C:0D25H         LINE#         672
  C:0D25H         LINE#         676
  C:0D47H         LINE#         677
  C:0D55H         LINE#         678
  C:0D55H         LINE#         679
  C:0D5FH         LINE#         680
  C:0D73H         LINE#         682
  C:0D84H         LINE#         683
  C:0DAAH         LINE#         684
  C:0DBEH         LINE#         685
  C:0DBEH         LINE#         687
  C:0DE0H         LINE#         688
  C:0DEEH         LINE#         689
  C:0DEEH         LINE#         690
  C:0DEEH         LINE#         691
  C:0DF9H         LINE#         696
  C:0DF9H         LINE#         698
  C:0E1BH         LINE#         699
  C:0E29H         LINE#         700
  C:0E29H         LINE#         701
  C:0E2CH         LINE#         702
  C:0E37H         LINE#         707
  C:0E37H         LINE#         709
  C:0E59H         LINE#         710
  C:0E6AH         LINE#         711
  C:0E6AH         LINE#         712
  C:0E83H         LINE#         713
  C:0E9AH         LINE#         714
  C:0EAEH         LINE#         717
  C:0EBFH         LINE#         718
  C:0EDBH         LINE#         720
  C:0EEFH         LINE#         724
  C:0F03H         LINE#         725
  C:0F17H         LINE#         726
  C:0F17H         LINE#         727
  C:0F26H         LINE#         728
  C:0F28H         LINE#         730
  C:0F28H         LINE#         731
  C:0F41H         LINE#         732
  C:0F58H         LINE#         733
  C:0F6CH         LINE#         736
  C:0F6CH         LINE#         740
  C:0F6CH         LINE#         742
  C:0F7BH         LINE#         743
BL51 BANKED LINKER/LOCATER V6.22                                                      12/29/2017  16:22:32  PAGE 86


  C:0F7BH         LINE#         744
  C:0FA1H         LINE#         745
  C:0FA1H         LINE#         746
  C:0FA5H         LINE#         747
  C:0FA5H         LINE#         749
  C:0FA9H         LINE#         750
  C:0FB1H         LINE#         751
  C:0FB4H         LINE#         752
  C:0FB7H         LINE#         754
  C:0FB7H         LINE#         755
  C:0FC0H         LINE#         756
  C:0FC0H         LINE#         757
  C:0FC3H         LINE#         759
  C:0FCBH         LINE#         760
  C:0FCBH         LINE#         761
  C:0FCEH         LINE#         762
  C:0FDCH         LINE#         763
  C:0FDEH         LINE#         765
  C:0FDEH         LINE#         766
  C:100CH         LINE#         767
  C:100CH         LINE#         768
  C:1022H         LINE#         769
  C:1025H         LINE#         771
  C:1043H         LINE#         772
  C:1043H         LINE#         773
  C:1046H         LINE#         774
  C:1046H         LINE#         776
  C:1049H         LINE#         777
  C:1049H         LINE#         778
  C:104BH         LINE#         779
  C:104BH         LINE#         780
  C:104EH         LINE#         781
  C:1051H         LINE#         782
  C:1054H         LINE#         783
  C:1054H         LINE#         784
  C:1054H         LINE#         786
  C:1065H         LINE#         788
  C:10B0H         LINE#         789
  C:10C4H         LINE#         792
  C:10C4H         LINE#         793
  C:10C4H         LINE#         795
  C:10C6H         LINE#         797
  C:10DFH         LINE#         799
  C:10DFH         LINE#         800
  C:10DFH         LINE#         802
  C:10DFH         LINE#         804
  C:10DFH         LINE#         806
  C:10E5H         LINE#         807
  C:10E5H         LINE#         808
  C:10E7H         LINE#         809
  C:10E9H         LINE#         810
  C:10E9H         LINE#         815
  C:10ECH         LINE#         816
  C:10FFH         LINE#         817
  C:10FFH         LINE#         819
  C:1110H         LINE#         820
  C:1127H         LINE#         821
BL51 BANKED LINKER/LOCATER V6.22                                                      12/29/2017  16:22:32  PAGE 87


  C:113BH         LINE#         822
  C:114CH         LINE#         823
  C:116EH         LINE#         824
  C:1182H         LINE#         826
  C:1184H         LINE#         827
  C:1184H         LINE#         830
  C:1189H         LINE#         831
  C:118BH         LINE#         832
  C:118FH         LINE#         835
  C:1195H         LINE#         836
  C:1195H         LINE#         837
  C:1198H         LINE#         838
  C:1198H         LINE#         839
  C:1198H         LINE#         841
  C:1198H         LINE#         842
  C:11A7H         LINE#         843
  C:11A7H         LINE#         844
  C:11ADH         LINE#         845
  C:11B2H         LINE#         848
  C:11B5H         LINE#         849
  C:11B5H         LINE#         850
  C:11BBH         LINE#         851
  C:11BBH         LINE#         853
  C:11CCH         LINE#         854
  C:11CCH         LINE#         855
  C:11DDH         LINE#         856
  C:11F4H         LINE#         857
  C:1208H         LINE#         859
  C:120EH         LINE#         861
  C:120EH         LINE#         864
  C:1223H         LINE#         865
  C:1223H         LINE#         867
  C:1223H         LINE#         868
  C:1235H         LINE#         869
  C:1235H         LINE#         871
  C:1246H         LINE#         872
  C:1253H         LINE#         873
  C:1253H         LINE#         875
  C:1253H         LINE#         876
  C:1256H         LINE#         877
  C:1268H         LINE#         878
  C:1268H         LINE#         880
  C:1279H         LINE#         881
  C:1286H         LINE#         882
  C:1286H         LINE#         884
  C:1286H         LINE#         885
  C:1289H         LINE#         886
  C:129EH         LINE#         887
  C:129EH         LINE#         890
  C:129EH         LINE#         891
  C:12B0H         LINE#         892
  C:12B0H         LINE#         894
  C:12C1H         LINE#         895
  C:12CEH         LINE#         896
  C:12CEH         LINE#         898
  C:12CEH         LINE#         899
  C:12D0H         LINE#         900
BL51 BANKED LINKER/LOCATER V6.22                                                      12/29/2017  16:22:32  PAGE 88


  C:12E2H         LINE#         901
  C:12E2H         LINE#         903
  C:12F3H         LINE#         904
  C:1300H         LINE#         905
  C:1300H         LINE#         907
  C:1300H         LINE#         908
  C:1302H         LINE#         909
  C:1314H         LINE#         910
  C:1314H         LINE#         912
  C:1325H         LINE#         913
  C:133CH         LINE#         914
  C:1350H         LINE#         917
  C:1350H         LINE#         918
  C:1353H         LINE#         919
  C:1377H         LINE#         920
  C:1377H         LINE#         922
  C:1392H         LINE#         923
  C:1392H         LINE#         924
  C:139AH         LINE#         925
  C:13A7H         LINE#         926
  C:13A7H         LINE#         927
  C:13A9H         LINE#         929
  C:13A9H         LINE#         931
  C:13B1H         LINE#         932
  C:13C8H         LINE#         933
  C:13DCH         LINE#         934
  C:13DCH         LINE#         936
  C:13DFH         LINE#         937
  C:13E4H         LINE#         938
  C:13E7H         LINE#         939
  C:13F9H         LINE#         940
  C:13F9H         LINE#         942
  C:140AH         LINE#         943
  C:1417H         LINE#         944
  C:1417H         LINE#         947
  C:1417H         LINE#         948
  C:1419H         LINE#         949
  C:142BH         LINE#         950
  C:142BH         LINE#         952
  C:143CH         LINE#         953
  C:1449H         LINE#         954
  C:1449H         LINE#         957
  C:1449H         LINE#         958
  C:144BH         LINE#         959
  C:145DH         LINE#         960
  C:145DH         LINE#         962
  C:146EH         LINE#         963
  C:1485H         LINE#         964
  C:1499H         LINE#         967
  C:149EH         LINE#         968
  C:149EH         LINE#         971
  C:14B1H         LINE#         972
  C:14B1H         LINE#         974
  C:14B4H         LINE#         975
  C:14B4H         LINE#         976
  C:14B6H         LINE#         977
  C:14B6H         LINE#         984
BL51 BANKED LINKER/LOCATER V6.22                                                      12/29/2017  16:22:32  PAGE 89


  C:14B6H         LINE#         985
  C:14B6H         LINE#         986
  C:14B6H         LINE#         989
  C:14B9H         LINE#         990
  C:14C8H         LINE#         991
  C:14C8H         LINE#         992
  C:14CEH         LINE#         993
  C:14D3H         LINE#         996
  C:14D6H         LINE#         997
  C:14D6H         LINE#         998
  C:14DCH         LINE#         999
  C:14DCH         LINE#         1001
  C:14DFH         LINE#         1002
  C:14DFH         LINE#         1003
  C:14E4H         LINE#         1004
  C:14E4H         LINE#         1006
  C:14F6H         LINE#         1007
  C:14F6H         LINE#         1009
  C:1507H         LINE#         1010
  C:1514H         LINE#         1011
  C:1514H         LINE#         1013
  C:1514H         LINE#         1014
  C:1516H         LINE#         1015
  C:1528H         LINE#         1016
  C:1528H         LINE#         1018
  C:1539H         LINE#         1019
  C:1550H         LINE#         1020
  C:1564H         LINE#         1022
  C:1569H         LINE#         1023
  C:1569H         LINE#         1025
  C:159FH         LINE#         1026
  C:159FH         LINE#         1028
  C:15BAH         LINE#         1029
  C:15BAH         LINE#         1030
  C:15C2H         LINE#         1031
  C:15CFH         LINE#         1032
  C:15CFH         LINE#         1033
  C:15D1H         LINE#         1035
  C:15D1H         LINE#         1037
  C:15D9H         LINE#         1038
  C:15F0H         LINE#         1039
  C:1604H         LINE#         1040
  C:1604H         LINE#         1042
  C:1607H         LINE#         1044
  C:1607H         LINE#         1047
  C:1617H         LINE#         1048
  C:1617H         LINE#         1049
  C:161AH         LINE#         1050
  C:161AH         LINE#         1051
  C:161CH         LINE#         1052
  C:161CH         LINE#         1059
  C:161EH         LINE#         1060
  C:1620H         LINE#         1061
  C:1620H         LINE#         1062
  C:1620H         LINE#         1064
  C:1620H         LINE#         1066
  -------         ENDPROC       CHECK_M26_CMD_RESULT
BL51 BANKED LINKER/LOCATER V6.22                                                      12/29/2017  16:22:32  PAGE 90


  -------         PROC          CLEAR_WIFI_UART_BUFF
  C:71E0H         LINE#         1071
  C:71E0H         LINE#         1072
  C:71E0H         LINE#         1073
  C:71F2H         LINE#         1074
  C:71F6H         LINE#         1076
  -------         ENDPROC       CLEAR_WIFI_UART_BUFF
  C:3DEFH         SYMBOL        L?0528
  -------         PROC          L?0527
  -------         ENDPROC       L?0527
  C:3DEFH         SYMBOL        L?0528
  -------         PROC          _M26_SEND_DATA
  X:0203H         SYMBOL        type
  X:0204H         SYMBOL        cmd
  X:0207H         SYMBOL        str
  -------         DO            
  X:020AH         SYMBOL        debug_buff
  -------         ENDDO         
  C:3E08H         LINE#         1079
  C:3E16H         LINE#         1080
  C:3E16H         LINE#         1082
  C:3E29H         LINE#         1085
  C:3E30H         LINE#         1086
  C:3E30H         LINE#         1087
  C:3E35H         LINE#         1088
  C:3E35H         LINE#         1090
  C:3E4FH         LINE#         1091
  C:3E4FH         LINE#         1092
  C:3E54H         LINE#         1093
  C:3E54H         LINE#         1095
  C:3E57H         LINE#         1097
  C:3E68H         LINE#         1099
  C:3E70H         LINE#         1103
  C:3E8EH         LINE#         1105
  C:3E97H         LINE#         1108
  C:3E9FH         LINE#         1109
  C:3E9FH         LINE#         1111
  C:3EB0H         LINE#         1112
  C:3ED3H         LINE#         1113
  C:3EE7H         LINE#         1115
  C:3EE7H         LINE#         1117
  C:3EE7H         LINE#         1119
  C:3EE7H         LINE#         1122
  C:3EEDH         LINE#         1123
  C:3EEDH         LINE#         1124
  C:3EEDH         LINE#         1125
  C:3EF0H         LINE#         1127
  C:3EF0H         LINE#         1128
  C:3F0BH         LINE#         1129
  C:3F0BH         LINE#         1130
  C:3F1AH         LINE#         1131
  C:3F1AH         LINE#         1132
  C:3F35H         LINE#         1133
  C:3F35H         LINE#         1134
  C:3F35H         LINE#         1135
  C:3F38H         LINE#         1136
  C:3F53H         LINE#         1137
BL51 BANKED LINKER/LOCATER V6.22                                                      12/29/2017  16:22:32  PAGE 91


  C:3F53H         LINE#         1138
  C:3F53H         LINE#         1139
  C:3F56H         LINE#         1140
  C:3F71H         LINE#         1141
  C:3F71H         LINE#         1142
  C:3F71H         LINE#         1143
  C:3F74H         LINE#         1144
  C:3F8FH         LINE#         1145
  C:3F8FH         LINE#         1146
  C:3F8FH         LINE#         1147
  C:3F92H         LINE#         1148
  C:3FADH         LINE#         1149
  C:3FADH         LINE#         1150
  C:3FADH         LINE#         1151
  C:3FB0H         LINE#         1152
  C:3FCBH         LINE#         1153
  C:3FCBH         LINE#         1154
  C:3FCBH         LINE#         1155
  C:3FCEH         LINE#         1156
  C:3FE9H         LINE#         1157
  C:3FE9H         LINE#         1158
  C:3FE9H         LINE#         1159
  C:3FEBH         LINE#         1160
  C:4006H         LINE#         1161
  C:4006H         LINE#         1162
  C:4006H         LINE#         1163
  C:4008H         LINE#         1164
  C:4023H         LINE#         1165
  C:4023H         LINE#         1166
  C:4023H         LINE#         1167
  C:4025H         LINE#         1168
  C:4040H         LINE#         1169
  C:4040H         LINE#         1170
  C:404CH         LINE#         1171
  C:404EH         LINE#         1172
  C:4069H         LINE#         1173
  C:4069H         LINE#         1174
  C:4078H         LINE#         1175
  C:4078H         LINE#         1176
  C:4078H         LINE#         1180
  C:407EH         LINE#         1183
  C:4081H         LINE#         1186
  -------         ENDPROC       _M26_SEND_DATA
  -------         PROC          M26_REGISTER_TO_NET
  -------         DO            
  X:0201H         SYMBOL        res
  -------         ENDDO         
  C:582EH         LINE#         1189
  C:582EH         LINE#         1190
  C:582EH         LINE#         1191
  C:5833H         LINE#         1198
  C:583EH         LINE#         1199
  C:583EH         LINE#         1201
  C:583EH         LINE#         1203
  C:5849H         LINE#         1204
  C:5849H         LINE#         1206
  C:5849H         LINE#         1209
BL51 BANKED LINKER/LOCATER V6.22                                                      12/29/2017  16:22:32  PAGE 92


  C:585AH         LINE#         1210
  C:586BH         LINE#         1212
  C:5871H         LINE#         1213
  C:5871H         LINE#         1214
  C:5876H         LINE#         1215
  C:5881H         LINE#         1217
  C:5883H         LINE#         1218
  C:588AH         LINE#         1219
  C:588AH         LINE#         1220
  C:5890H         LINE#         1221
  C:589BH         LINE#         1222
  C:589DH         LINE#         1223
  C:58A4H         LINE#         1224
  C:58A4H         LINE#         1225
  C:58AAH         LINE#         1226
  C:58B5H         LINE#         1227
  C:58B7H         LINE#         1228
  C:58BEH         LINE#         1229
  C:58BEH         LINE#         1231
  C:58C4H         LINE#         1232
  C:58CFH         LINE#         1233
  C:58D1H         LINE#         1234
  C:58D8H         LINE#         1235
  C:58D8H         LINE#         1237
  C:58DEH         LINE#         1238
  C:58ECH         LINE#         1241
  C:58F2H         LINE#         1243
  C:58FDH         LINE#         1244
  C:58FFH         LINE#         1245
  C:58FFH         LINE#         1246
  C:5902H         LINE#         1247
  C:5902H         LINE#         1255
  -------         ENDPROC       M26_REGISTER_TO_NET
  -------         PROC          M26_HTTP_LOOP
  -------         DO            
  X:0201H         SYMBOL        res
  X:0202H         SYMBOL        string_length
  -------         ENDDO         
  C:2259H         LINE#         1258
  C:2259H         LINE#         1259
  C:2259H         LINE#         1260
  C:225EH         LINE#         1261
  C:2260H         LINE#         1264
  C:2266H         LINE#         1265
  C:2266H         LINE#         1267
  C:2266H         LINE#         1270
  C:2271H         LINE#         1271
  C:2271H         LINE#         1273
  C:2271H         LINE#         1275
  C:2282H         LINE#         1276
  C:2293H         LINE#         1277
  C:229BH         LINE#         1278
  C:229BH         LINE#         1279
  C:22ACH         LINE#         1280
  C:22ACH         LINE#         1284
  C:22BFH         LINE#         1285
  C:22BFH         LINE#         1286
BL51 BANKED LINKER/LOCATER V6.22                                                      12/29/2017  16:22:32  PAGE 93


  C:22C5H         LINE#         1287
  C:22C5H         LINE#         1289
  C:22C5H         LINE#         1290
  C:22C5H         LINE#         1291
  C:22C5H         LINE#         1292
  C:22C8H         LINE#         1293
  C:22CFH         LINE#         1294
  C:22CFH         LINE#         1296
  C:22D4H         LINE#         1297
  C:22E3H         LINE#         1299
  C:22F0H         LINE#         1300
  C:22F3H         LINE#         1301
  C:2301H         LINE#         1302
  C:2301H         LINE#         1304
  C:234DH         LINE#         1308
  C:2355H         LINE#         1309
  C:2355H         LINE#         1310
  C:2355H         LINE#         1311
  C:2355H         LINE#         1313
  C:2355H         LINE#         1314
  C:2355H         LINE#         1316
  C:2355H         LINE#         1317
  C:2358H         LINE#         1319
  C:2358H         LINE#         1320
  C:2358H         LINE#         1321
  C:2358H         LINE#         1322
  C:235BH         LINE#         1323
  C:2366H         LINE#         1324
  C:2366H         LINE#         1326
  C:2366H         LINE#         1327
  C:2366H         LINE#         1328
  C:2366H         LINE#         1329
  C:2366H         LINE#         1330
  C:2369H         LINE#         1331
  C:237CH         LINE#         1332
  C:237CH         LINE#         1333
  C:2382H         LINE#         1334
  C:2382H         LINE#         1336
  C:2387H         LINE#         1337
  C:2395H         LINE#         1338
  C:23A1H         LINE#         1339
  C:23A4H         LINE#         1340
  C:23ACH         LINE#         1341
  C:23ACH         LINE#         1343
  C:23B0H         LINE#         1344
  C:23BFH         LINE#         1346
  C:23D6H         LINE#         1349
  C:23D6H         LINE#         1350
  C:23D8H         LINE#         1351
  C:23E6H         LINE#         1352
  C:23E6H         LINE#         1354
  C:2421H         LINE#         1358
  C:2429H         LINE#         1359
  C:2429H         LINE#         1360
  C:2429H         LINE#         1361
  C:2429H         LINE#         1363
  C:2429H         LINE#         1364
BL51 BANKED LINKER/LOCATER V6.22                                                      12/29/2017  16:22:32  PAGE 94


  C:2429H         LINE#         1370
  C:2429H         LINE#         1371
  C:242CH         LINE#         1373
  C:242CH         LINE#         1374
  C:2431H         LINE#         1376
  C:243AH         LINE#         1377
  C:243AH         LINE#         1378
  C:243DH         LINE#         1379
  C:2448H         LINE#         1380
  C:2448H         LINE#         1382
  C:244DH         LINE#         1383
  C:245BH         LINE#         1384
  C:2467H         LINE#         1385
  C:2467H         LINE#         1386
  C:246AH         LINE#         1387
  C:247DH         LINE#         1388
  C:247DH         LINE#         1389
  C:2483H         LINE#         1390
  C:2483H         LINE#         1392
  C:2488H         LINE#         1393
  C:2496H         LINE#         1394
  C:24A2H         LINE#         1395
  C:24A5H         LINE#         1396
  C:24ACH         LINE#         1397
  C:24ACH         LINE#         1399
  C:24B1H         LINE#         1400
  C:24C0H         LINE#         1402
  C:24CDH         LINE#         1403
  C:24D0H         LINE#         1404
  C:24E1H         LINE#         1405
  C:24E1H         LINE#         1407
  C:24E8H         LINE#         1408
  C:24E8H         LINE#         1409
  C:24FAH         LINE#         1410
  C:24FAH         LINE#         1415
  C:2580H         LINE#         1417
  C:2588H         LINE#         1418
  C:2588H         LINE#         1419
  C:2588H         LINE#         1420
  C:2588H         LINE#         1426
  C:2588H         LINE#         1427
  C:2588H         LINE#         1429
  C:2588H         LINE#         1430
  C:258BH         LINE#         1432
  C:258BH         LINE#         1433
  C:2590H         LINE#         1435
  C:2599H         LINE#         1436
  C:2599H         LINE#         1438
  C:259CH         LINE#         1439
  C:25A7H         LINE#         1440
  C:25A7H         LINE#         1442
  C:25ACH         LINE#         1443
  C:25BAH         LINE#         1444
  C:25C6H         LINE#         1445
  C:25C6H         LINE#         1446
  C:25C9H         LINE#         1447
  C:25DCH         LINE#         1448
BL51 BANKED LINKER/LOCATER V6.22                                                      12/29/2017  16:22:32  PAGE 95


  C:25DCH         LINE#         1449
  C:25E2H         LINE#         1450
  C:25E2H         LINE#         1452
  C:25E7H         LINE#         1453
  C:25F5H         LINE#         1454
  C:2601H         LINE#         1455
  C:2604H         LINE#         1456
  C:260BH         LINE#         1457
  C:260BH         LINE#         1459
  C:2610H         LINE#         1460
  C:261FH         LINE#         1461
  C:262CH         LINE#         1462
  C:262FH         LINE#         1463
  C:2640H         LINE#         1464
  C:2640H         LINE#         1466
  C:2647H         LINE#         1467
  C:2647H         LINE#         1468
  C:2659H         LINE#         1471
  C:265CH         LINE#         1472
  C:265CH         LINE#         1473
  C:265EH         LINE#         1474
  C:2660H         LINE#         1475
  C:2662H         LINE#         1477
  C:2662H         LINE#         1478
  C:2664H         LINE#         1479
  C:2664H         LINE#         1482
  C:2667H         LINE#         1483
  C:2667H         LINE#         1484
  C:2669H         LINE#         1485
  C:2669H         LINE#         1487
  C:2669H         LINE#         1505
  C:266CH         LINE#         1506
  C:266CH         LINE#         1507
  C:2674H         LINE#         1508
  C:2674H         LINE#         1511
  C:267CH         LINE#         1512
  C:267EH         LINE#         1514
  C:267EH         LINE#         1517
  C:26C4H         LINE#         1518
  C:26C4H         LINE#         1520
  C:26C7H         LINE#         1522
  C:26C7H         LINE#         1523
  C:26CFH         LINE#         1524
  C:26CFH         LINE#         1530
  C:26D7H         LINE#         1531
  C:26D9H         LINE#         1533
  C:26D9H         LINE#         1539
  C:275AH         LINE#         1540
  C:275AH         LINE#         1541
  C:275AH         LINE#         1545
  C:2762H         LINE#         1546
  C:2762H         LINE#         1549
  C:2762H         LINE#         1550
  C:2762H         LINE#         1556
  C:2762H         LINE#         1557
  C:2762H         LINE#         1559
  C:2762H         LINE#         1561
BL51 BANKED LINKER/LOCATER V6.22                                                      12/29/2017  16:22:32  PAGE 96


  C:2765H         LINE#         1563
  C:2765H         LINE#         1564
  C:276AH         LINE#         1566
  C:277EH         LINE#         1567
  C:277EH         LINE#         1569
  C:2781H         LINE#         1570
  C:278CH         LINE#         1571
  C:278CH         LINE#         1573
  C:2791H         LINE#         1574
  C:279FH         LINE#         1575
  C:27ABH         LINE#         1576
  C:27ABH         LINE#         1577
  C:27AEH         LINE#         1578
  C:27C1H         LINE#         1579
  C:27C1H         LINE#         1580
  C:27C7H         LINE#         1581
  C:27C7H         LINE#         1583
  C:27CCH         LINE#         1584
  C:27DAH         LINE#         1585
  C:27E6H         LINE#         1586
  C:27E9H         LINE#         1587
  C:27F0H         LINE#         1588
  C:27F0H         LINE#         1590
  C:27F5H         LINE#         1591
  C:2804H         LINE#         1592
  C:281BH         LINE#         1593
  C:281EH         LINE#         1594
  C:282FH         LINE#         1595
  C:282FH         LINE#         1597
  C:285EH         LINE#         1599
  C:2866H         LINE#         1600
  C:2866H         LINE#         1601
  C:286BH         LINE#         1602
  C:2879H         LINE#         1604
  C:2887H         LINE#         1605
  C:28A4H         LINE#         1607
  C:28B5H         LINE#         1609
  C:28B7H         LINE#         1611
  C:28B7H         LINE#         1612
  C:28BCH         LINE#         1613
  C:28BCH         LINE#         1615
  C:28BEH         LINE#         1616
  C:28C5H         LINE#         1617
  C:28C5H         LINE#         1619
  C:28CBH         LINE#         1620
  C:28D9H         LINE#         1621
  C:28E8H         LINE#         1622
  C:28E8H         LINE#         1623
  C:28E8H         LINE#         1625
  C:2909H         LINE#         1626
  C:290BH         LINE#         1627
  C:290BH         LINE#         1628
  C:290EH         LINE#         1629
  C:290EH         LINE#         1632
  -------         ENDPROC       M26_HTTP_LOOP
  -------         PROC          M26_GET_SIGNAL_QUALITY
  -------         DO            
BL51 BANKED LINKER/LOCATER V6.22                                                      12/29/2017  16:22:32  PAGE 97


  D:0007H         SYMBOL        res
  -------         ENDDO         
  C:6CD5H         LINE#         1664
  C:6CD5H         LINE#         1665
  C:6CD5H         LINE#         1666
  C:6CD7H         LINE#         1668
  C:6CE2H         LINE#         1669
  C:6CE2H         LINE#         1671
  C:6CE2H         LINE#         1673
  C:6CF3H         LINE#         1674
  C:6D04H         LINE#         1676
  C:6D0AH         LINE#         1677
  C:6D0EH         LINE#         1679
  C:6D11H         LINE#         1680
  C:6D14H         LINE#         1681
  C:6D14H         LINE#         1682
  C:6D17H         LINE#         1683
  C:6D17H         LINE#         1685
  -------         ENDPROC       M26_GET_SIGNAL_QUALITY
  -------         PROC          M26_GET_CCID
  -------         DO            
  D:0007H         SYMBOL        res
  -------         ENDDO         
  C:6D18H         LINE#         1711
  C:6D18H         LINE#         1712
  C:6D18H         LINE#         1713
  C:6D1AH         LINE#         1715
  C:6D25H         LINE#         1716
  C:6D25H         LINE#         1718
  C:6D25H         LINE#         1720
  C:6D36H         LINE#         1721
  C:6D47H         LINE#         1723
  C:6D4DH         LINE#         1724
  C:6D51H         LINE#         1726
  C:6D54H         LINE#         1727
  C:6D57H         LINE#         1728
  C:6D57H         LINE#         1729
  C:6D5AH         LINE#         1730
  C:6D5AH         LINE#         1732
  -------         ENDPROC       M26_GET_CCID
  -------         PROC          M26_DEVICE_ACTIVATE
  C:7276H         LINE#         1735
  C:7276H         LINE#         1736
  C:7276H         LINE#         1738
  C:7281H         LINE#         1739
  C:7281H         LINE#         1741
  C:7281H         LINE#         1743
  C:7286H         LINE#         1744
  C:7288H         LINE#         1746
  C:728AH         LINE#         1747
  -------         ENDPROC       M26_DEVICE_ACTIVATE
  -------         PROC          DEVICE_ACTIVATE
  C:70BBH         LINE#         1750
  C:70BBH         LINE#         1751
  C:70BBH         LINE#         1752
  C:70BEH         LINE#         1753
  C:70C1H         LINE#         1754
BL51 BANKED LINKER/LOCATER V6.22                                                      12/29/2017  16:22:32  PAGE 98


  C:70C1H         LINE#         1755
  C:70CDH         LINE#         1756
  C:70CDH         LINE#         1757
  C:70D0H         LINE#         1758
  C:70D3H         LINE#         1759
  C:70D6H         LINE#         1760
  C:70D6H         LINE#         1761
  C:70D8H         LINE#         1763
  -------         ENDPROC       DEVICE_ACTIVATE
  -------         PROC          M26_OTA_CHECK
  C:71B0H         LINE#         1765
  C:71B0H         LINE#         1766
  C:71B0H         LINE#         1767
  C:71B3H         LINE#         1768
  C:71B3H         LINE#         1770
  C:71B3H         LINE#         1772
  C:71BEH         LINE#         1773
  C:71BEH         LINE#         1775
  C:71BEH         LINE#         1777
  C:71C3H         LINE#         1778
  C:71C6H         LINE#         1780
  C:71C8H         LINE#         1781
  -------         ENDPROC       M26_OTA_CHECK
  -------         PROC          M26_UPLOAD_DATA
  C:69E0H         LINE#         1785
  C:69E0H         LINE#         1786
  C:69E0H         LINE#         1787
  C:69E3H         LINE#         1788
  C:69E3H         LINE#         1790
  C:69E3H         LINE#         1792
  C:69EEH         LINE#         1793
  C:69EEH         LINE#         1795
  C:69EEH         LINE#         1797
  C:69F7H         LINE#         1798
  C:6A19H         LINE#         1799
  C:6A19H         LINE#         1800
  C:6A1EH         LINE#         1801
  C:6A21H         LINE#         1803
  C:6A23H         LINE#         1805
  C:6A42H         LINE#         1806
  C:6A42H         LINE#         1807
  -------         ENDPROC       M26_UPLOAD_DATA
  -------         PROC          M26_STATUS_SYNC
  -------         DO            
  C:2F81H         SYMBOL        sync_mstime_interval
  -------         ENDDO         
  C:5CCFH         LINE#         1810
  C:5CCFH         LINE#         1811
  C:5CCFH         LINE#         1816
  C:5CD5H         LINE#         1817
  C:5CD5H         LINE#         1819
  C:5CD5H         LINE#         1821
  C:5CE6H         LINE#         1822
  C:5CE6H         LINE#         1824
  C:5CE6H         LINE#         1826
  C:5CEFH         LINE#         1828
  C:5D22H         LINE#         1829
BL51 BANKED LINKER/LOCATER V6.22                                                      12/29/2017  16:22:32  PAGE 99


  C:5D22H         LINE#         1830
  C:5D36H         LINE#         1831
  C:5D36H         LINE#         1834
  C:5D58H         LINE#         1835
  C:5D58H         LINE#         1837
  C:5D58H         LINE#         1839
  C:5D5DH         LINE#         1840
  C:5D60H         LINE#         1842
  C:5D62H         LINE#         1844
  C:5D86H         LINE#         1845
  -------         ENDPROC       M26_STATUS_SYNC
  -------         PROC          M26_CHARGE_CONFIRM
  C:71F7H         LINE#         1848
  C:71F7H         LINE#         1849
  C:71F7H         LINE#         1850
  C:7202H         LINE#         1851
  C:7202H         LINE#         1853
  C:7202H         LINE#         1855
  C:7207H         LINE#         1856
  C:720AH         LINE#         1858
  C:720CH         LINE#         1859
  -------         ENDPROC       M26_CHARGE_CONFIRM
  -------         PROC          DEVICE_GET_CCID
  C:700CH         LINE#         1861
  C:700CH         LINE#         1862
  C:700CH         LINE#         1863
  C:700FH         LINE#         1864
  C:700FH         LINE#         1865
  C:701BH         LINE#         1866
  C:701BH         LINE#         1867
  C:701DH         LINE#         1868
  C:7020H         LINE#         1869
  C:7020H         LINE#         1870
  C:702CH         LINE#         1871
  C:702CH         LINE#         1872
  C:702FH         LINE#         1873
  C:7032H         LINE#         1874
  C:7032H         LINE#         1875
  C:7034H         LINE#         1877
  -------         ENDPROC       DEVICE_GET_CCID
  C:4E90H         SYMBOL        L?0525
  C:4E91H         SYMBOL        L?0526
  -------         PROC          L?0524
  -------         ENDPROC       L?0524
  C:4E90H         SYMBOL        L?0525
  C:4E91H         SYMBOL        L?0526
  -------         PROC          _STRING_GET_INT
  X:020EH         SYMBOL        string
  -------         DO            
  X:0211H         SYMBOL        index_start
  X:0212H         SYMBOL        index_end
  D:0005H         SYMBOL        i
  -------         ENDDO         
  C:4E9DH         LINE#         1880
  C:4EA8H         LINE#         1881
  C:4EA8H         LINE#         1882
  C:4EABH         LINE#         1883
BL51 BANKED LINKER/LOCATER V6.22                                                      12/29/2017  16:22:32  PAGE 100


  C:4EADH         LINE#         1884
  C:4EAEH         LINE#         1888
  C:4EAEH         LINE#         1889
  C:4EAEH         LINE#         1890
  C:4EC6H         LINE#         1891
  C:4EC6H         LINE#         1892
  C:4EDEH         LINE#         1893
  C:4EDEH         LINE#         1894
  C:4EE0H         LINE#         1895
  C:4EE2H         LINE#         1897
  C:4EE2H         LINE#         1898
  C:4EE9H         LINE#         1899
  C:4EE9H         LINE#         1901
  C:4EE9H         LINE#         1902
  C:4F05H         LINE#         1903
  C:4F05H         LINE#         1904
  C:4F24H         LINE#         1905
  C:4F24H         LINE#         1906
  C:4F26H         LINE#         1907
  C:4F28H         LINE#         1909
  C:4F28H         LINE#         1910
  C:4F2FH         LINE#         1911
  C:4F2FH         LINE#         1913
  C:4F31H         LINE#         1914
  C:4F31H         LINE#         1915
  C:4F3AH         LINE#         1917
  C:4F46H         LINE#         1918
  C:4F46H         LINE#         1919
  C:4F48H         LINE#         1920
  C:4F48H         LINE#         1922
  C:4F48H         LINE#         1923
  C:4F50H         LINE#         1924
  C:4F50H         LINE#         1925
  C:4F55H         LINE#         1926
  C:4F55H         LINE#         1927
  C:4F55H         LINE#         1929
  C:4F66H         LINE#         1930
  C:4FA6H         LINE#         1933
  C:4FAFH         LINE#         1935
  -------         ENDPROC       _STRING_GET_INT
  -------         PROC          _STRING_GET_LONG
  X:020EH         SYMBOL        string
  -------         DO            
  X:0211H         SYMBOL        index_start
  X:0212H         SYMBOL        index_end
  D:0005H         SYMBOL        i
  -------         ENDDO         
  C:5903H         LINE#         1937
  C:590EH         LINE#         1938
  C:590EH         LINE#         1939
  C:5911H         LINE#         1940
  C:5913H         LINE#         1941
  C:5914H         LINE#         1945
  C:5914H         LINE#         1946
  C:5914H         LINE#         1947
  C:592DH         LINE#         1948
  C:592DH         LINE#         1949
BL51 BANKED LINKER/LOCATER V6.22                                                      12/29/2017  16:22:32  PAGE 101


  C:5933H         LINE#         1950
  C:5933H         LINE#         1951
  C:594EH         LINE#         1952
  C:594EH         LINE#         1953
  C:5954H         LINE#         1954
  C:5956H         LINE#         1955
  C:5956H         LINE#         1956
  C:595BH         LINE#         1958
  C:5967H         LINE#         1959
  C:5967H         LINE#         1960
  C:5969H         LINE#         1961
  C:5969H         LINE#         1963
  C:5969H         LINE#         1964
  C:5971H         LINE#         1965
  C:5971H         LINE#         1966
  C:5978H         LINE#         1967
  C:5978H         LINE#         1968
  C:5978H         LINE#         1970
  C:5989H         LINE#         1971
  C:59C9H         LINE#         1974
  C:59D2H         LINE#         1976
  -------         ENDPROC       _STRING_GET_LONG
  -------         PROC          _STRING_GET_STRING
  X:020EH         SYMBOL        string
  X:0211H         SYMBOL        dest
  -------         DO            
  X:0214H         SYMBOL        index_start
  X:0215H         SYMBOL        index_end
  D:0005H         SYMBOL        i
  -------         ENDDO         
  C:52D3H         LINE#         1979
  C:52DEH         LINE#         1980
  C:52DEH         LINE#         1982
  C:52E3H         LINE#         1983
  C:52E5H         LINE#         1984
  C:52E6H         LINE#         1986
  C:52E6H         LINE#         1987
  C:52E6H         LINE#         1988
  C:52FFH         LINE#         1989
  C:52FFH         LINE#         1990
  C:5306H         LINE#         1991
  C:5306H         LINE#         1992
  C:532FH         LINE#         1993
  C:532FH         LINE#         1994
  C:5335H         LINE#         1995
  C:5337H         LINE#         1996
  C:5337H         LINE#         1997
  C:533CH         LINE#         2001
  C:534DH         LINE#         2002
  C:534DH         LINE#         2004
  C:534DH         LINE#         2006
  C:534DH         LINE#         2007
  C:5355H         LINE#         2008
  C:5355H         LINE#         2010
  C:5355H         LINE#         2011
  C:5355H         LINE#         2012
  C:5378H         LINE#         2013
BL51 BANKED LINKER/LOCATER V6.22                                                      12/29/2017  16:22:32  PAGE 102


  C:53BFH         LINE#         2023
  -------         ENDPROC       _STRING_GET_STRING
  -------         PROC          WIFI_LED_ON
  C:0046H         LINE#         2026
  C:0046H         LINE#         2027
  C:0046H         LINE#         2028
  C:0049H         LINE#         2029
  C:0049H         LINE#         2030
  C:0050H         LINE#         2031
  C:0052H         LINE#         2032
  C:0052H         LINE#         2033
  -------         ENDPROC       WIFI_LED_ON
  -------         PROC          WIFI_LED_OFF
  C:0056H         LINE#         2035
  C:0056H         LINE#         2036
  C:0056H         LINE#         2037
  C:0059H         LINE#         2038
  C:0059H         LINE#         2039
  C:0060H         LINE#         2040
  C:0062H         LINE#         2041
  C:0062H         LINE#         2042
  -------         ENDPROC       WIFI_LED_OFF
  -------         PROC          M26_FOGCLOUD_INIT_AND_CHECK
  C:6919H         LINE#         2046
  C:6919H         LINE#         2047
  C:6919H         LINE#         2048
  C:6929H         LINE#         2049
  C:6929H         LINE#         2051
  C:692CH         LINE#         2053
  C:692CH         LINE#         2055
  C:6939H         LINE#         2056
  C:6939H         LINE#         2057
  C:693CH         LINE#         2058
  C:693CH         LINE#         2060
  C:693FH         LINE#         2061
  C:693FH         LINE#         2062
  C:6941H         LINE#         2063
  C:694EH         LINE#         2064
  C:694EH         LINE#         2065
  C:6951H         LINE#         2066
  C:6951H         LINE#         2068
  C:6954H         LINE#         2069
  C:6954H         LINE#         2070
  C:6954H         LINE#         2072
  C:6957H         LINE#         2073
  C:6957H         LINE#         2074
  C:695AH         LINE#         2075
  C:695AH         LINE#         2077
  C:6963H         LINE#         2078
  C:6963H         LINE#         2079
  C:6966H         LINE#         2080
  C:6966H         LINE#         2082
  C:6970H         LINE#         2083
  C:6970H         LINE#         2084
  C:6973H         LINE#         2085
  C:6973H         LINE#         2087
  C:6979H         LINE#         2088
BL51 BANKED LINKER/LOCATER V6.22                                                      12/29/2017  16:22:32  PAGE 103


  C:6979H         LINE#         2089
  C:697CH         LINE#         2090
  C:697CH         LINE#         2093
  -------         ENDPROC       M26_FOGCLOUD_INIT_AND_CHECK
  -------         PROC          M26_SIGNAL_CHECK
  -------         DO            
  X:0141H         SYMBOL        signal_check_stimes
  -------         ENDDO         
  C:6163H         LINE#         2153
  C:6163H         LINE#         2154
  C:6163H         LINE#         2157
  C:6166H         LINE#         2158
  C:6166H         LINE#         2159
  C:6170H         LINE#         2160
  C:6176H         LINE#         2162
  C:6176H         LINE#         2170
  C:6195H         LINE#         2172
  C:61A9H         LINE#         2174
  C:61D7H         LINE#         2175
  C:61D7H         LINE#         2176
  C:61DAH         LINE#         2177
  C:61DAH         LINE#         2179
  C:61F4H         LINE#         2180
  C:61F4H         LINE#         2181
  C:61F6H         LINE#         2182
  C:61F6H         LINE#         2187
  -------         ENDPROC       M26_SIGNAL_CHECK
  -------         ENDMOD        M26

  -------         MODULE        LVI_LVR
  C:0000H         SYMBOL        _ICE_DUMMY_
  D:0080H         PUBLIC        P0
  D:0090H         PUBLIC        P1
  D:00A0H         PUBLIC        P2
  D:00B0H         PUBLIC        P3
  B:00A8H.7       PUBLIC        EA
  C:003EH         PUBLIC        LVR_Disable
  D:00B8H         PUBLIC        IEN1
  D:00A8H         PUBLIC        IE
  C:7129H         SYMBOL        _?ix1000
  D:00E0H         PUBLIC        ACC
  D:00F8H         PUBLIC        IIC0S
  D:00E8H         PUBLIC        IIC1S
  C:7538H         PUBLIC        LVI_EN
  D:0098H         PUBLIC        S0CON
  D:0088H         PUBLIC        TCON0
  D:00E6H         PUBLIC        LVC
  D:00D8H         PUBLIC        TCON1
  C:5D87H         PUBLIC        LVI
  B:00B8H.4       PUBLIC        IELVI
  D:00D0H         PUBLIC        PSW
  D:00C0H         PUBLIC        IRCON
  -------         PROC          LVI_EN
  C:7538H         LINE#         15
  C:7538H         LINE#         16
  C:7538H         LINE#         20
  C:753BH         LINE#         21
BL51 BANKED LINKER/LOCATER V6.22                                                      12/29/2017  16:22:32  PAGE 104


  C:753DH         LINE#         22
  C:753FH         LINE#         23
  -------         ENDPROC       LVI_EN
  -------         PROC          LVR_DISABLE
  C:003EH         LINE#         25
  C:003EH         LINE#         26
  C:003EH         LINE#         27
  C:0041H         LINE#         28
  -------         ENDPROC       LVR_DISABLE
  -------         PROC          LVI
  -------         DO            
  X:0258H         SYMBOL        readbuff
  -------         ENDDO         
  C:5D87H         LINE#         30
  C:5DA4H         LINE#         32
  C:5DB7H         LINE#         33
  C:5DD4H         LINE#         34
  C:5DD4H         LINE#         36
  C:5DD4H         LINE#         38
  C:5DD4H         LINE#         40
  C:5DE5H         LINE#         41
  C:5DE5H         LINE#         42
  C:5DE8H         LINE#         44
  C:5DF9H         LINE#         45
  C:5E10H         LINE#         46
  C:5E24H         LINE#         47
  C:5E24H         LINE#         49
  C:5E24H         LINE#         65
  -------         ENDPROC       LVI
  -------         ENDMOD        LVI_LVR

  -------         MODULE        ?C?FPADD
  C:1628H         PUBLIC        ?C?FPADD
  C:1624H         PUBLIC        ?C?FPSUB
  -------         ENDMOD        ?C?FPADD

  -------         MODULE        ?C?FPMUL
  C:1719H         PUBLIC        ?C?FPMUL
  -------         ENDMOD        ?C?FPMUL

  -------         MODULE        ?C?FPDIV
  C:1822H         PUBLIC        ?C?FPDIV
  -------         ENDMOD        ?C?FPDIV

  -------         MODULE        ?C?FPCMP
  C:18C1H         PUBLIC        ?C?FPCMP
  C:18BFH         PUBLIC        ?C?FPCMP3
  -------         ENDMOD        ?C?FPCMP

  -------         MODULE        ?C?FCAST
  C:1942H         PUBLIC        ?C?FCASTC
  C:193DH         PUBLIC        ?C?FCASTI
  C:1938H         PUBLIC        ?C?FCASTL
  -------         ENDMOD        ?C?FCAST

  -------         MODULE        ?C?CASTF
  C:1976H         PUBLIC        ?C?CASTF
BL51 BANKED LINKER/LOCATER V6.22                                                      12/29/2017  16:22:32  PAGE 105


  -------         ENDMOD        ?C?CASTF

  -------         MODULE        PRINTF
  X:025DH         PUBLIC        ?_PRINTF?BYTE
  X:025DH         PUBLIC        ?_SPRINTF?BYTE
  C:39D7H         PUBLIC        _PRINTF
  C:39D1H         PUBLIC        _SPRINTF
  -------         ENDMOD        PRINTF

  -------         MODULE        ?C?FPROUND
  C:19F7H         PUBLIC        ?C?FPROUND
  -------         ENDMOD        ?C?FPROUND

  -------         MODULE        ?C?FPCONVERT
  C:1A34H         PUBLIC        ?C?FPCONVERT
  -------         ENDMOD        ?C?FPCONVERT

  -------         MODULE        ?C?FTNPWR
  C:1B69H         PUBLIC        ?C?FTNPWR
  -------         ENDMOD        ?C?FTNPWR

  -------         MODULE        ?C?COPY
  C:1C79H         PUBLIC        ?C?COPY
  -------         ENDMOD        ?C?COPY

  -------         MODULE        ?C?CLDPTR
  C:1C9FH         PUBLIC        ?C?CLDPTR
  -------         ENDMOD        ?C?CLDPTR

  -------         MODULE        ?C?CLDOPTR
  C:1CB8H         PUBLIC        ?C?CLDOPTR
  -------         ENDMOD        ?C?CLDOPTR

  -------         MODULE        ?C?CSTPTR
  C:1CE5H         PUBLIC        ?C?CSTPTR
  -------         ENDMOD        ?C?CSTPTR

  -------         MODULE        ?C?CSTOPTR
  C:1CF7H         PUBLIC        ?C?CSTOPTR
  -------         ENDMOD        ?C?CSTOPTR

  -------         MODULE        ?C?IMUL
  C:1D19H         PUBLIC        ?C?IMUL
  -------         ENDMOD        ?C?IMUL

  -------         MODULE        ?C?UIDIV
  C:1D2BH         PUBLIC        ?C?UIDIV
  -------         ENDMOD        ?C?UIDIV

  -------         MODULE        ?C?IILDX
  C:1D80H         PUBLIC        ?C?IILDX
  -------         ENDMOD        ?C?IILDX

  -------         MODULE        ?C?ILDIX
  C:1D96H         PUBLIC        ?C?ILDIX
  -------         ENDMOD        ?C?ILDIX

BL51 BANKED LINKER/LOCATER V6.22                                                      12/29/2017  16:22:32  PAGE 106


  -------         MODULE        ?C?LMUL
  C:1DACH         PUBLIC        ?C?LMUL
  -------         ENDMOD        ?C?LMUL

  -------         MODULE        ?C?ULDIV
  C:1E37H         PUBLIC        ?C?ULDIV
  -------         ENDMOD        ?C?ULDIV

  -------         MODULE        ?C?SLDIV
  C:6C91H         PUBLIC        ?C?SLDIV
  -------         ENDMOD        ?C?SLDIV

  -------         MODULE        ?C?LNEG
  C:1EC9H         PUBLIC        ?C?LNEG
  -------         ENDMOD        ?C?LNEG

  -------         MODULE        ?C?SLCMP
  C:1ED7H         PUBLIC        ?C?SLCMP
  -------         ENDMOD        ?C?SLCMP

  -------         MODULE        ?C?ULCMP
  C:1EEDH         PUBLIC        ?C?ULCMP
  -------         ENDMOD        ?C?ULCMP

  -------         MODULE        ?C?LLDIDATA
  C:1EFEH         PUBLIC        ?C?LLDIDATA
  -------         ENDMOD        ?C?LLDIDATA

  -------         MODULE        ?C?LLDCODE
  C:1F0AH         PUBLIC        ?C?LLDCODE
  -------         ENDMOD        ?C?LLDCODE

  -------         MODULE        ?C?LLDIDATA0
  C:1F1AH         PUBLIC        ?C?LLDIDATA0
  -------         ENDMOD        ?C?LLDIDATA0

  -------         MODULE        ?C?LSTIDATA
  C:1F27H         PUBLIC        ?C?LSTIDATA
  -------         ENDMOD        ?C?LSTIDATA

  -------         MODULE        ?C?LSTXDATA
  C:1F33H         PUBLIC        ?C?LSTXDATA
  -------         ENDMOD        ?C?LSTXDATA

  -------         MODULE        ?C?LSTKIDATA
  C:1F3FH         PUBLIC        ?C?LSTKIDATA
  -------         ENDMOD        ?C?LSTKIDATA

  -------         MODULE        ?C?LSTKXDATA
  C:1F58H         PUBLIC        ?C?LSTKXDATA
  -------         ENDMOD        ?C?LSTKXDATA

  -------         MODULE        ?C?PLDIXDATA
  C:1F89H         PUBLIC        ?C?PLDIXDATA
  -------         ENDMOD        ?C?PLDIXDATA

  -------         MODULE        ?C?PSTXDATA
BL51 BANKED LINKER/LOCATER V6.22                                                      12/29/2017  16:22:32  PAGE 107


  C:1FA0H         PUBLIC        ?C?PSTXDATA
  -------         ENDMOD        ?C?PSTXDATA

  -------         MODULE        ?C?CCASE
  C:1FA9H         PUBLIC        ?C?CCASE
  -------         ENDMOD        ?C?CCASE

  -------         MODULE        ?C?ICALL
  C:1FCFH         PUBLIC        ?C?ICALL
  C:1FD3H         PUBLIC        ?C?ICALL2
  -------         ENDMOD        ?C?ICALL

  -------         MODULE        PUTCHAR
  C:7035H         PUBLIC        _PUTCHAR
  -------         ENDMOD        PUTCHAR

  -------         MODULE        STRCAT
  X:020CH         PUBLIC        ?_strcat?BYTE
  C:6779H         PUBLIC        _strcat
  -------         ENDMOD        STRCAT

  -------         MODULE        ?C?STRCMP
  C:2153H         PUBLIC        ?C?STRCMP
  -------         ENDMOD        ?C?STRCMP

  -------         MODULE        ?C?STRCPY
  C:223CH         PUBLIC        ?C?STRCPY
  -------         ENDMOD        ?C?STRCPY

  -------         MODULE        STRNCPY
  X:0216H         PUBLIC        ?_strncpy?BYTE
  C:684CH         PUBLIC        _strncpy
  -------         ENDMOD        STRNCPY

  -------         MODULE        STRLEN
  C:728BH         PUBLIC        _STRLEN
  -------         ENDMOD        STRLEN

  -------         MODULE        STRSTR
  X:020EH         PUBLIC        ?_strstr?BYTE
  C:5A9BH         PUBLIC        _strstr
  -------         ENDMOD        STRSTR

  -------         MODULE        ATOL
  C:50C7H         PUBLIC        _atol
  -------         ENDMOD        ATOL

  -------         MODULE        ATOI
  C:5753H         PUBLIC        _atoi
  -------         ENDMOD        ATOI

  -------         MODULE        ISDIGIT
  C:73FFH         PUBLIC        _isdigit
  -------         ENDMOD        ISDIGIT

  -------         MODULE        ISSPACE
  C:72A0H         PUBLIC        _isspace
BL51 BANKED LINKER/LOCATER V6.22                                                      12/29/2017  16:22:32  PAGE 108


  -------         ENDMOD        ISSPACE

*** WARNING L16: UNCALLED SEGMENT, IGNORED FOR OVERLAY PROCESS
    SEGMENT: ?PR?SENSOR_POWER_ON?SENSOR

*** WARNING L16: UNCALLED SEGMENT, IGNORED FOR OVERLAY PROCESS
    SEGMENT: ?PR?SENSOR_POWER_OFF?SENSOR

*** WARNING L16: UNCALLED SEGMENT, IGNORED FOR OVERLAY PROCESS
    SEGMENT: ?PR?CHECK_ISPFAH?EEPROM

*** WARNING L16: UNCALLED SEGMENT, IGNORED FOR OVERLAY PROCESS
    SEGMENT: ?PR?_EEPROM_SECTOR_PROGRAM?EEPROM

*** WARNING L16: UNCALLED SEGMENT, IGNORED FOR OVERLAY PROCESS
    SEGMENT: ?PR?DEVICE_ACTIVATE?M26

*** WARNING L16: UNCALLED SEGMENT, IGNORED FOR OVERLAY PROCESS
    SEGMENT: ?PR?LVR_DISABLE?LVI_LVR

*** WARNING L15: MULTIPLE CALL TO SEGMENT
    SEGMENT: ?PR?CHARGE_LEFTTIME_FLASH_WRITE?CHARGE
    CALLER1: ?C_C51STARTUP
    CALLER2: ?PR?LVI?LVI_LVR

*** WARNING L15: MULTIPLE CALL TO SEGMENT
    SEGMENT: ?PR?_MYMEMSET?COMMON
    CALLER1: ?C_C51STARTUP
    CALLER2: ?PR?LVI?LVI_LVR

*** WARNING L15: MULTIPLE CALL TO SEGMENT
    SEGMENT: ?PR?PRINTF?PRINTF
    CALLER1: ?C_C51STARTUP
    CALLER2: ?PR?LVI?LVI_LVR

*** WARNING L15: MULTIPLE CALL TO SEGMENT
    SEGMENT: ?PR?_MYSTRLEN?COMMON
    CALLER1: ?C_C51STARTUP
    CALLER2: ?PR?LVI?LVI_LVR

*** WARNING L15: MULTIPLE CALL TO SEGMENT
    SEGMENT: ?PR?_DEBUG_UART_SENDBYTES?DEBUG_UART
    CALLER1: ?C_C51STARTUP
    CALLER2: ?PR?LVI?LVI_LVR

Program Size: data=192.0 xdata=745 code=30087
LINK/LOCATE RUN COMPLETE.  11 WARNING(S),  0 ERROR(S)
