###############################################################################
#
# IAR ELF Linker V7.30.3.8024/W32 for ARM                 25/Jul/2018  13:37:50
# Copyright 2007-2014 IAR Systems AB.
#
#    Output file  =  
#        E:\工作\stm32开发\WIFI\MX3165-MODBUS-1\Build\modbus\\MiCOKit-3165\modbus.out
#    Map file     =  
#        E:\工作\stm32开发\WIFI\MX3165-MODBUS-1\Build\modbus\\MiCOKit-3165\list_EWARM\modbus.map
#    Command line =  
#        E:\工作\stm32开发\WIFI\MX3165-MODBUS-1\Build\modbus\MiCOKit-3165\obj_EWARM\AESUtils.o
#        E:\工作\stm32开发\WIFI\MX3165-MODBUS-1\Build\modbus\MiCOKit-3165\obj_EWARM\airkiss_discovery.o
#        E:\工作\stm32开发\WIFI\MX3165-MODBUS-1\Build\modbus\MiCOKit-3165\obj_EWARM\APDS9930.o
#        E:\工作\stm32开发\WIFI\MX3165-MODBUS-1\Build\modbus\MiCOKit-3165\obj_EWARM\arraylist.o
#        E:\工作\stm32开发\WIFI\MX3165-MODBUS-1\Build\modbus\MiCOKit-3165\obj_EWARM\AsciiLib.o
#        E:\工作\stm32开发\WIFI\MX3165-MODBUS-1\Build\modbus\MiCOKit-3165\obj_EWARM\base64.o
#        E:\工作\stm32开发\WIFI\MX3165-MODBUS-1\Build\modbus\MiCOKit-3165\obj_EWARM\bma2x2.o
#        E:\工作\stm32开发\WIFI\MX3165-MODBUS-1\Build\modbus\MiCOKit-3165\obj_EWARM\bma2x2_user.o
#        E:\工作\stm32开发\WIFI\MX3165-MODBUS-1\Build\modbus\MiCOKit-3165\obj_EWARM\bme280.o
#        E:\工作\stm32开发\WIFI\MX3165-MODBUS-1\Build\modbus\MiCOKit-3165\obj_EWARM\bme280_user.o
#        E:\工作\stm32开发\WIFI\MX3165-MODBUS-1\Build\modbus\MiCOKit-3165\obj_EWARM\bmg160.o
#        E:\工作\stm32开发\WIFI\MX3165-MODBUS-1\Build\modbus\MiCOKit-3165\obj_EWARM\bmg160_user.o
#        E:\工作\stm32开发\WIFI\MX3165-MODBUS-1\Build\modbus\MiCOKit-3165\obj_EWARM\bmm050.o
#        E:\工作\stm32开发\WIFI\MX3165-MODBUS-1\Build\modbus\MiCOKit-3165\obj_EWARM\bmm050_user.o
#        E:\工作\stm32开发\WIFI\MX3165-MODBUS-1\Build\modbus\MiCOKit-3165\obj_EWARM\button.o
#        E:\工作\stm32开发\WIFI\MX3165-MODBUS-1\Build\modbus\MiCOKit-3165\obj_EWARM\CheckSumUtils.o
#        E:\工作\stm32开发\WIFI\MX3165-MODBUS-1\Build\modbus\MiCOKit-3165\obj_EWARM\config_server.o
#        E:\工作\stm32开发\WIFI\MX3165-MODBUS-1\Build\modbus\MiCOKit-3165\obj_EWARM\config_server_menu.o
#        E:\工作\stm32开发\WIFI\MX3165-MODBUS-1\Build\modbus\MiCOKit-3165\obj_EWARM\croutine.o
#        E:\工作\stm32开发\WIFI\MX3165-MODBUS-1\Build\modbus\MiCOKit-3165\obj_EWARM\crt0_EWARM.o
#        E:\工作\stm32开发\WIFI\MX3165-MODBUS-1\Build\modbus\MiCOKit-3165\obj_EWARM\curve25519-donna.o
#        E:\工作\stm32开发\WIFI\MX3165-MODBUS-1\Build\modbus\MiCOKit-3165\obj_EWARM\dc_motor.o
#        E:\工作\stm32开发\WIFI\MX3165-MODBUS-1\Build\modbus\MiCOKit-3165\obj_EWARM\DHT11.o
#        E:\工作\stm32开发\WIFI\MX3165-MODBUS-1\Build\modbus\MiCOKit-3165\obj_EWARM\event_groups.o
#        E:\工作\stm32开发\WIFI\MX3165-MODBUS-1\Build\modbus\MiCOKit-3165\obj_EWARM\fog2_ota_notification.o
#        E:\工作\stm32开发\WIFI\MX3165-MODBUS-1\Build\modbus\MiCOKit-3165\obj_EWARM\fog_bonjour.o
#        E:\工作\stm32开发\WIFI\MX3165-MODBUS-1\Build\modbus\MiCOKit-3165\obj_EWARM\fog_http_client.o
#        E:\工作\stm32开发\WIFI\MX3165-MODBUS-1\Build\modbus\MiCOKit-3165\obj_EWARM\fog_mqtt.o
#        E:\工作\stm32开发\WIFI\MX3165-MODBUS-1\Build\modbus\MiCOKit-3165\obj_EWARM\fog_ota.o
#        E:\工作\stm32开发\WIFI\MX3165-MODBUS-1\Build\modbus\MiCOKit-3165\obj_EWARM\fog_process_mqtt_cmd.o
#        E:\工作\stm32开发\WIFI\MX3165-MODBUS-1\Build\modbus\MiCOKit-3165\obj_EWARM\fog_tcp_server.o
#        E:\工作\stm32开发\WIFI\MX3165-MODBUS-1\Build\modbus\MiCOKit-3165\obj_EWARM\fog_v2.o
#        E:\工作\stm32开发\WIFI\MX3165-MODBUS-1\Build\modbus\MiCOKit-3165\obj_EWARM\fog_v2_sub.o
#        E:\工作\stm32开发\WIFI\MX3165-MODBUS-1\Build\modbus\MiCOKit-3165\obj_EWARM\fog_v2_sub_device_management.o
#        E:\工作\stm32开发\WIFI\MX3165-MODBUS-1\Build\modbus\MiCOKit-3165\obj_EWARM\fog_v2_user_notification.o
#        E:\工作\stm32开发\WIFI\MX3165-MODBUS-1\Build\modbus\MiCOKit-3165\obj_EWARM\hardfault.o
#        E:\工作\stm32开发\WIFI\MX3165-MODBUS-1\Build\modbus\MiCOKit-3165\obj_EWARM\heap_3.o
#        E:\工作\stm32开发\WIFI\MX3165-MODBUS-1\Build\modbus\MiCOKit-3165\obj_EWARM\hkdf.o
#        E:\工作\stm32开发\WIFI\MX3165-MODBUS-1\Build\modbus\MiCOKit-3165\obj_EWARM\hmac.o
#        E:\工作\stm32开发\WIFI\MX3165-MODBUS-1\Build\modbus\MiCOKit-3165\obj_EWARM\hsb2rgb_led.o
#        E:\工作\stm32开发\WIFI\MX3165-MODBUS-1\Build\modbus\MiCOKit-3165\obj_EWARM\hts221.o
#        E:\工作\stm32开发\WIFI\MX3165-MODBUS-1\Build\modbus\MiCOKit-3165\obj_EWARM\http-strings.o
#        E:\工作\stm32开发\WIFI\MX3165-MODBUS-1\Build\modbus\MiCOKit-3165\obj_EWARM\http_parse.o
#        E:\工作\stm32开发\WIFI\MX3165-MODBUS-1\Build\modbus\MiCOKit-3165\obj_EWARM\httpd.o
#        E:\工作\stm32开发\WIFI\MX3165-MODBUS-1\Build\modbus\MiCOKit-3165\obj_EWARM\httpd_handle.o
#        E:\工作\stm32开发\WIFI\MX3165-MODBUS-1\Build\modbus\MiCOKit-3165\obj_EWARM\httpd_ssi.o
#        E:\工作\stm32开发\WIFI\MX3165-MODBUS-1\Build\modbus\MiCOKit-3165\obj_EWARM\httpd_sys.o
#        E:\工作\stm32开发\WIFI\MX3165-MODBUS-1\Build\modbus\MiCOKit-3165\obj_EWARM\httpd_wsgi.o
#        E:\工作\stm32开发\WIFI\MX3165-MODBUS-1\Build\modbus\MiCOKit-3165\obj_EWARM\HTTPUtils.o
#        E:\工作\stm32开发\WIFI\MX3165-MODBUS-1\Build\modbus\MiCOKit-3165\obj_EWARM\infrared_reflective.o
#        E:\工作\stm32开发\WIFI\MX3165-MODBUS-1\Build\modbus\MiCOKit-3165\obj_EWARM\json_debug.o
#        E:\工作\stm32开发\WIFI\MX3165-MODBUS-1\Build\modbus\MiCOKit-3165\obj_EWARM\json_object.o
#        E:\工作\stm32开发\WIFI\MX3165-MODBUS-1\Build\modbus\MiCOKit-3165\obj_EWARM\json_tokener.o
#        E:\工作\stm32开发\WIFI\MX3165-MODBUS-1\Build\modbus\MiCOKit-3165\obj_EWARM\json_util.o
#        E:\工作\stm32开发\WIFI\MX3165-MODBUS-1\libraries\daemons\homekit_server\Lib_HomeKit_Server.Cortex-M4F.IAR.release.a
#        E:\工作\stm32开发\WIFI\MX3165-MODBUS-1\MiCO\system\easylink\MFi_WAC\Lib_MFi_WAC.Cortex-M4F.IAR.release.a
#        E:\工作\stm32开发\WIFI\MX3165-MODBUS-1\MiCO\security\Sodium\Lib_Sodium.IAR.release.a
#        E:\工作\stm32开发\WIFI\MX3165-MODBUS-1\MiCO\security\SRP_6a\Lib_SRP6a.IAR.release.a
#        E:\工作\stm32开发\WIFI\MX3165-MODBUS-1\MiCO\security\TLS\wolfSSL\Lib_wolfSSL.Cortex-M4F.IAR.release.a
#        E:\工作\stm32开发\WIFI\MX3165-MODBUS-1\MiCO\system\easylink\airkiss_discovery\lib_airkiss\libairkiss.a
#        E:\工作\stm32开发\WIFI\MX3165-MODBUS-1\Build\modbus\MiCOKit-3165\obj_EWARM\light_sensor.o
#        E:\工作\stm32开发\WIFI\MX3165-MODBUS-1\Build\modbus\MiCOKit-3165\obj_EWARM\linkhash.o
#        E:\工作\stm32开发\WIFI\MX3165-MODBUS-1\Build\modbus\MiCOKit-3165\obj_EWARM\LinkListUtils.o
#        E:\工作\stm32开发\WIFI\MX3165-MODBUS-1\Build\modbus\MiCOKit-3165\obj_EWARM\list.o
#        E:\工作\stm32开发\WIFI\MX3165-MODBUS-1\Build\modbus\MiCOKit-3165\obj_EWARM\lps25hb.o
#        E:\工作\stm32开发\WIFI\MX3165-MODBUS-1\Build\modbus\MiCOKit-3165\obj_EWARM\lsm9ds1_acc_gyr.o
#        E:\工作\stm32开发\WIFI\MX3165-MODBUS-1\Build\modbus\MiCOKit-3165\obj_EWARM\lsm9ds1_mag.o
#        E:\工作\stm32开发\WIFI\MX3165-MODBUS-1\MiCO\core\MiCO.1062.SDIO.Cortex-M4.IAR.a
#        E:\工作\stm32开发\WIFI\MX3165-MODBUS-1\Build\modbus\MiCOKit-3165\obj_EWARM\mico_cli.o
#        E:\工作\stm32开发\WIFI\MX3165-MODBUS-1\Build\modbus\MiCOKit-3165\obj_EWARM\mico_config.o
#        E:\工作\stm32开发\WIFI\MX3165-MODBUS-1\Build\modbus\MiCOKit-3165\obj_EWARM\mico_mdns.o
#        E:\工作\stm32开发\WIFI\MX3165-MODBUS-1\Build\modbus\MiCOKit-3165\obj_EWARM\mico_platform_common.o
#        E:\工作\stm32开发\WIFI\MX3165-MODBUS-1\Build\modbus\MiCOKit-3165\obj_EWARM\mico_rtos.o
#        E:\工作\stm32开发\WIFI\MX3165-MODBUS-1\Build\modbus\MiCOKit-3165\obj_EWARM\mico_rtos_common.o
#        E:\工作\stm32开发\WIFI\MX3165-MODBUS-1\Build\modbus\MiCOKit-3165\obj_EWARM\mico_socket.o
#        E:\工作\stm32开发\WIFI\MX3165-MODBUS-1\Build\modbus\MiCOKit-3165\obj_EWARM\mico_system_init.o
#        E:\工作\stm32开发\WIFI\MX3165-MODBUS-1\Build\modbus\MiCOKit-3165\obj_EWARM\mico_system_monitor.o
#        E:\工作\stm32开发\WIFI\MX3165-MODBUS-1\Build\modbus\MiCOKit-3165\obj_EWARM\mico_system_notification.o
#        E:\工作\stm32开发\WIFI\MX3165-MODBUS-1\Build\modbus\MiCOKit-3165\obj_EWARM\mico_system_para_storage.o
#        E:\工作\stm32开发\WIFI\MX3165-MODBUS-1\Build\modbus\MiCOKit-3165\obj_EWARM\mico_system_power_daemon.o
#        E:\工作\stm32开发\WIFI\MX3165-MODBUS-1\Build\modbus\MiCOKit-3165\obj_EWARM\mico_system_time.o
#        E:\工作\stm32开发\WIFI\MX3165-MODBUS-1\Build\modbus\MiCOKit-3165\obj_EWARM\MICOAppEntrance.o
#        E:\工作\stm32开发\WIFI\MX3165-MODBUS-1\libraries\drivers\MiCODriverMFiAuth\MiCODriverMFiAuth.a
#        E:\工作\stm32开发\WIFI\MX3165-MODBUS-1\Build\modbus\MiCOKit-3165\obj_EWARM\micokit_ext.o
#        E:\工作\stm32开发\WIFI\MX3165-MODBUS-1\Build\modbus\MiCOKit-3165\obj_EWARM\micokit_ext_mfg.o
#        E:\工作\stm32开发\WIFI\MX3165-MODBUS-1\Build\modbus\MiCOKit-3165\obj_EWARM\MiCOKit_STmems.o
#        E:\工作\stm32开发\WIFI\MX3165-MODBUS-1\Build\modbus\MiCOKit-3165\obj_EWARM\misc.o
#        E:\工作\stm32开发\WIFI\MX3165-MODBUS-1\Build\modbus\MiCOKit-3165\obj_EWARM\motion_sensor.o
#        E:\工作\stm32开发\WIFI\MX3165-MODBUS-1\Build\modbus\MiCOKit-3165\obj_EWARM\MQTTClient.o
#        E:\工作\stm32开发\WIFI\MX3165-MODBUS-1\Build\modbus\MiCOKit-3165\obj_EWARM\MQTTConnectClient.o
#        E:\工作\stm32开发\WIFI\MX3165-MODBUS-1\Build\modbus\MiCOKit-3165\obj_EWARM\MQTTConnectServer.o
#        E:\工作\stm32开发\WIFI\MX3165-MODBUS-1\Build\modbus\MiCOKit-3165\obj_EWARM\MQTTDeserializePublish.o
#        E:\工作\stm32开发\WIFI\MX3165-MODBUS-1\Build\modbus\MiCOKit-3165\obj_EWARM\MQTTFormat.o
#        E:\工作\stm32开发\WIFI\MX3165-MODBUS-1\Build\modbus\MiCOKit-3165\obj_EWARM\MQTTMiCO.o
#        E:\工作\stm32开发\WIFI\MX3165-MODBUS-1\Build\modbus\MiCOKit-3165\obj_EWARM\MQTTPacket.o
#        E:\工作\stm32开发\WIFI\MX3165-MODBUS-1\Build\modbus\MiCOKit-3165\obj_EWARM\MQTTSerializePublish.o
#        E:\工作\stm32开发\WIFI\MX3165-MODBUS-1\Build\modbus\MiCOKit-3165\obj_EWARM\MQTTSubscribeClient.o
#        E:\工作\stm32开发\WIFI\MX3165-MODBUS-1\Build\modbus\MiCOKit-3165\obj_EWARM\MQTTSubscribeServer.o
#        E:\工作\stm32开发\WIFI\MX3165-MODBUS-1\Build\modbus\MiCOKit-3165\obj_EWARM\MQTTUnsubscribeClient.o
#        E:\工作\stm32开发\WIFI\MX3165-MODBUS-1\Build\modbus\MiCOKit-3165\obj_EWARM\MQTTUnsubscribeServer.o
#        E:\工作\stm32开发\WIFI\MX3165-MODBUS-1\Build\modbus\MiCOKit-3165\obj_EWARM\oled.o
#        E:\工作\stm32开发\WIFI\MX3165-MODBUS-1\Build\modbus\MiCOKit-3165\obj_EWARM\platform.o
#        E:\工作\stm32开发\WIFI\MX3165-MODBUS-1\Build\modbus\MiCOKit-3165\obj_EWARM\platform_adc.o
#        E:\工作\stm32开发\WIFI\MX3165-MODBUS-1\Build\modbus\MiCOKit-3165\obj_EWARM\platform_core.o
#        E:\工作\stm32开发\WIFI\MX3165-MODBUS-1\Build\modbus\MiCOKit-3165\obj_EWARM\platform_flash.o
#        E:\工作\stm32开发\WIFI\MX3165-MODBUS-1\Build\modbus\MiCOKit-3165\obj_EWARM\platform_gpio.o
#        E:\工作\stm32开发\WIFI\MX3165-MODBUS-1\Build\modbus\MiCOKit-3165\obj_EWARM\platform_i2c.o
#        E:\工作\stm32开发\WIFI\MX3165-MODBUS-1\Build\modbus\MiCOKit-3165\obj_EWARM\platform_init.o
#        E:\工作\stm32开发\WIFI\MX3165-MODBUS-1\Build\modbus\MiCOKit-3165\obj_EWARM\platform_mcu_powersave.o
#        E:\工作\stm32开发\WIFI\MX3165-MODBUS-1\Build\modbus\MiCOKit-3165\obj_EWARM\platform_nsclock.o
#        E:\工作\stm32开发\WIFI\MX3165-MODBUS-1\Build\modbus\MiCOKit-3165\obj_EWARM\platform_pwm.o
#        E:\工作\stm32开发\WIFI\MX3165-MODBUS-1\Build\modbus\MiCOKit-3165\obj_EWARM\platform_rng.o
#        E:\工作\stm32开发\WIFI\MX3165-MODBUS-1\Build\modbus\MiCOKit-3165\obj_EWARM\platform_rtc.o
#        E:\工作\stm32开发\WIFI\MX3165-MODBUS-1\Build\modbus\MiCOKit-3165\obj_EWARM\platform_spi.o
#        E:\工作\stm32开发\WIFI\MX3165-MODBUS-1\Build\modbus\MiCOKit-3165\obj_EWARM\platform_uart.o
#        E:\工作\stm32开发\WIFI\MX3165-MODBUS-1\Build\modbus\MiCOKit-3165\obj_EWARM\platform_watchdog.o
#        E:\工作\stm32开发\WIFI\MX3165-MODBUS-1\Build\modbus\MiCOKit-3165\obj_EWARM\port.o
#        E:\工作\stm32开发\WIFI\MX3165-MODBUS-1\Build\modbus\MiCOKit-3165\obj_EWARM\portasm.o
#        E:\工作\stm32开发\WIFI\MX3165-MODBUS-1\Build\modbus\MiCOKit-3165\obj_EWARM\printbuf.o
#        E:\工作\stm32开发\WIFI\MX3165-MODBUS-1\Build\modbus\MiCOKit-3165\obj_EWARM\qc_test.o
#        E:\工作\stm32开发\WIFI\MX3165-MODBUS-1\Build\modbus\MiCOKit-3165\obj_EWARM\qc_test_cli.o
#        E:\工作\stm32开发\WIFI\MX3165-MODBUS-1\Build\modbus\MiCOKit-3165\obj_EWARM\qc_test_gpio.o
#        E:\工作\stm32开发\WIFI\MX3165-MODBUS-1\Build\modbus\MiCOKit-3165\obj_EWARM\qc_test_tcpip.o
#        E:\工作\stm32开发\WIFI\MX3165-MODBUS-1\Build\modbus\MiCOKit-3165\obj_EWARM\queue.o
#        E:\工作\stm32开发\WIFI\MX3165-MODBUS-1\Build\modbus\MiCOKit-3165\obj_EWARM\Retarget.o
#        E:\工作\stm32开发\WIFI\MX3165-MODBUS-1\Build\modbus\MiCOKit-3165\obj_EWARM\rgb_led.o
#        E:\工作\stm32开发\WIFI\MX3165-MODBUS-1\Build\modbus\MiCOKit-3165\obj_EWARM\RingBufferUtils.o
#        E:\工作\stm32开发\WIFI\MX3165-MODBUS-1\Build\modbus\MiCOKit-3165\obj_EWARM\SecurityUtils.o
#        E:\工作\stm32开发\WIFI\MX3165-MODBUS-1\Build\modbus\MiCOKit-3165\obj_EWARM\sha1.o
#        E:\工作\stm32开发\WIFI\MX3165-MODBUS-1\Build\modbus\MiCOKit-3165\obj_EWARM\sha224-256.o
#        E:\工作\stm32开发\WIFI\MX3165-MODBUS-1\Build\modbus\MiCOKit-3165\obj_EWARM\sha384-512.o
#        E:\工作\stm32开发\WIFI\MX3165-MODBUS-1\Build\modbus\MiCOKit-3165\obj_EWARM\SHAUtils.o
#        E:\工作\stm32开发\WIFI\MX3165-MODBUS-1\Build\modbus\MiCOKit-3165\obj_EWARM\SocketUtils.o
#        E:\工作\stm32开发\WIFI\MX3165-MODBUS-1\Build\modbus\MiCOKit-3165\obj_EWARM\spi_flash.o
#        E:\工作\stm32开发\WIFI\MX3165-MODBUS-1\Build\modbus\MiCOKit-3165\obj_EWARM\spi_flash_platform.o
#        E:\工作\stm32开发\WIFI\MX3165-MODBUS-1\Build\modbus\MiCOKit-3165\obj_EWARM\startup_stm32f411xe_IAR.o
#        E:\工作\stm32开发\WIFI\MX3165-MODBUS-1\Build\modbus\MiCOKit-3165\obj_EWARM\stm32f4xx_adc.o
#        E:\工作\stm32开发\WIFI\MX3165-MODBUS-1\Build\modbus\MiCOKit-3165\obj_EWARM\stm32f4xx_can.o
#        E:\工作\stm32开发\WIFI\MX3165-MODBUS-1\Build\modbus\MiCOKit-3165\obj_EWARM\stm32f4xx_crc.o
#        E:\工作\stm32开发\WIFI\MX3165-MODBUS-1\Build\modbus\MiCOKit-3165\obj_EWARM\stm32f4xx_cryp.o
#        E:\工作\stm32开发\WIFI\MX3165-MODBUS-1\Build\modbus\MiCOKit-3165\obj_EWARM\stm32f4xx_cryp_aes.o
#        E:\工作\stm32开发\WIFI\MX3165-MODBUS-1\Build\modbus\MiCOKit-3165\obj_EWARM\stm32f4xx_cryp_des.o
#        E:\工作\stm32开发\WIFI\MX3165-MODBUS-1\Build\modbus\MiCOKit-3165\obj_EWARM\stm32f4xx_cryp_tdes.o
#        E:\工作\stm32开发\WIFI\MX3165-MODBUS-1\Build\modbus\MiCOKit-3165\obj_EWARM\stm32f4xx_dac.o
#        E:\工作\stm32开发\WIFI\MX3165-MODBUS-1\Build\modbus\MiCOKit-3165\obj_EWARM\stm32f4xx_dbgmcu.o
#        E:\工作\stm32开发\WIFI\MX3165-MODBUS-1\Build\modbus\MiCOKit-3165\obj_EWARM\stm32f4xx_dcmi.o
#        E:\工作\stm32开发\WIFI\MX3165-MODBUS-1\Build\modbus\MiCOKit-3165\obj_EWARM\stm32f4xx_dma.o
#        E:\工作\stm32开发\WIFI\MX3165-MODBUS-1\Build\modbus\MiCOKit-3165\obj_EWARM\stm32f4xx_dma2d.o
#        E:\工作\stm32开发\WIFI\MX3165-MODBUS-1\Build\modbus\MiCOKit-3165\obj_EWARM\stm32f4xx_exti.o
#        E:\工作\stm32开发\WIFI\MX3165-MODBUS-1\Build\modbus\MiCOKit-3165\obj_EWARM\stm32f4xx_flash.o
#        E:\工作\stm32开发\WIFI\MX3165-MODBUS-1\Build\modbus\MiCOKit-3165\obj_EWARM\stm32f4xx_flash_ramfunc.o
#        E:\工作\stm32开发\WIFI\MX3165-MODBUS-1\Build\modbus\MiCOKit-3165\obj_EWARM\stm32f4xx_gpio.o
#        E:\工作\stm32开发\WIFI\MX3165-MODBUS-1\Build\modbus\MiCOKit-3165\obj_EWARM\stm32f4xx_hash.o
#        E:\工作\stm32开发\WIFI\MX3165-MODBUS-1\Build\modbus\MiCOKit-3165\obj_EWARM\stm32f4xx_hash_md5.o
#        E:\工作\stm32开发\WIFI\MX3165-MODBUS-1\Build\modbus\MiCOKit-3165\obj_EWARM\stm32f4xx_hash_sha1.o
#        E:\工作\stm32开发\WIFI\MX3165-MODBUS-1\Build\modbus\MiCOKit-3165\obj_EWARM\stm32f4xx_i2c.o
#        E:\工作\stm32开发\WIFI\MX3165-MODBUS-1\Build\modbus\MiCOKit-3165\obj_EWARM\stm32f4xx_iwdg.o
#        E:\工作\stm32开发\WIFI\MX3165-MODBUS-1\Build\modbus\MiCOKit-3165\obj_EWARM\stm32f4xx_ltdc.o
#        E:\工作\stm32开发\WIFI\MX3165-MODBUS-1\Build\modbus\MiCOKit-3165\obj_EWARM\stm32f4xx_pwr.o
#        E:\工作\stm32开发\WIFI\MX3165-MODBUS-1\Build\modbus\MiCOKit-3165\obj_EWARM\stm32f4xx_qspi.o
#        E:\工作\stm32开发\WIFI\MX3165-MODBUS-1\Build\modbus\MiCOKit-3165\obj_EWARM\stm32f4xx_rcc.o
#        E:\工作\stm32开发\WIFI\MX3165-MODBUS-1\Build\modbus\MiCOKit-3165\obj_EWARM\stm32f4xx_rng.o
#        E:\工作\stm32开发\WIFI\MX3165-MODBUS-1\Build\modbus\MiCOKit-3165\obj_EWARM\stm32f4xx_rtc.o
#        E:\工作\stm32开发\WIFI\MX3165-MODBUS-1\Build\modbus\MiCOKit-3165\obj_EWARM\stm32f4xx_sai.o
#        E:\工作\stm32开发\WIFI\MX3165-MODBUS-1\Build\modbus\MiCOKit-3165\obj_EWARM\stm32f4xx_sdio.o
#        E:\工作\stm32开发\WIFI\MX3165-MODBUS-1\Build\modbus\MiCOKit-3165\obj_EWARM\stm32f4xx_spi.o
#        E:\工作\stm32开发\WIFI\MX3165-MODBUS-1\Build\modbus\MiCOKit-3165\obj_EWARM\stm32f4xx_syscfg.o
#        E:\工作\stm32开发\WIFI\MX3165-MODBUS-1\Build\modbus\MiCOKit-3165\obj_EWARM\stm32f4xx_tim.o
#        E:\工作\stm32开发\WIFI\MX3165-MODBUS-1\Build\modbus\MiCOKit-3165\obj_EWARM\stm32f4xx_usart.o
#        E:\工作\stm32开发\WIFI\MX3165-MODBUS-1\Build\modbus\MiCOKit-3165\obj_EWARM\stm32f4xx_wwdg.o
#        E:\工作\stm32开发\WIFI\MX3165-MODBUS-1\Build\modbus\MiCOKit-3165\obj_EWARM\StringUtils.o
#        E:\工作\stm32开发\WIFI\MX3165-MODBUS-1\Build\modbus\MiCOKit-3165\obj_EWARM\system_discovery.o
#        E:\工作\stm32开发\WIFI\MX3165-MODBUS-1\Build\modbus\MiCOKit-3165\obj_EWARM\system_easylink.o
#        E:\工作\stm32开发\WIFI\MX3165-MODBUS-1\Build\modbus\MiCOKit-3165\obj_EWARM\system_easylink_delegate.o
#        E:\工作\stm32开发\WIFI\MX3165-MODBUS-1\Build\modbus\MiCOKit-3165\obj_EWARM\system_easylink_wac.o
#        E:\工作\stm32开发\WIFI\MX3165-MODBUS-1\Build\modbus\MiCOKit-3165\obj_EWARM\system_misc.o
#        E:\工作\stm32开发\WIFI\MX3165-MODBUS-1\Build\modbus\MiCOKit-3165\obj_EWARM\system_stm32f4xx.o
#        E:\工作\stm32开发\WIFI\MX3165-MODBUS-1\Build\modbus\MiCOKit-3165\obj_EWARM\tasks.o
#        E:\工作\stm32开发\WIFI\MX3165-MODBUS-1\Build\modbus\MiCOKit-3165\obj_EWARM\temp_hum_sensor.o
#        E:\工作\stm32开发\WIFI\MX3165-MODBUS-1\Build\modbus\MiCOKit-3165\obj_EWARM\tftp_ota.o
#        E:\工作\stm32开发\WIFI\MX3165-MODBUS-1\Build\modbus\MiCOKit-3165\obj_EWARM\tftpc.o
#        E:\工作\stm32开发\WIFI\MX3165-MODBUS-1\Build\modbus\MiCOKit-3165\obj_EWARM\timers.o
#        E:\工作\stm32开发\WIFI\MX3165-MODBUS-1\Build\modbus\MiCOKit-3165\obj_EWARM\TimeUtils.o
#        E:\工作\stm32开发\WIFI\MX3165-MODBUS-1\Build\modbus\MiCOKit-3165\obj_EWARM\TLVUtils.o
#        E:\工作\stm32开发\WIFI\MX3165-MODBUS-1\Build\modbus\MiCOKit-3165\obj_EWARM\url.o
#        E:\工作\stm32开发\WIFI\MX3165-MODBUS-1\Build\modbus\MiCOKit-3165\obj_EWARM\URLUtils.o
#        E:\工作\stm32开发\WIFI\MX3165-MODBUS-1\Build\modbus\MiCOKit-3165\obj_EWARM\user_device_control.o
#        E:\工作\stm32开发\WIFI\MX3165-MODBUS-1\Build\modbus\MiCOKit-3165\obj_EWARM\user_downstream.o
#        E:\工作\stm32开发\WIFI\MX3165-MODBUS-1\Build\modbus\MiCOKit-3165\obj_EWARM\user_main.o
#        E:\工作\stm32开发\WIFI\MX3165-MODBUS-1\Build\modbus\MiCOKit-3165\obj_EWARM\user_modbus.o
#        E:\工作\stm32开发\WIFI\MX3165-MODBUS-1\Build\modbus\MiCOKit-3165\obj_EWARM\user_stack.o
#        E:\工作\stm32开发\WIFI\MX3165-MODBUS-1\Build\modbus\MiCOKit-3165\obj_EWARM\user_uart.o
#        E:\工作\stm32开发\WIFI\MX3165-MODBUS-1\Build\modbus\MiCOKit-3165\obj_EWARM\user_uart_data_process.o
#        E:\工作\stm32开发\WIFI\MX3165-MODBUS-1\Build\modbus\MiCOKit-3165\obj_EWARM\user_upstream.o
#        E:\工作\stm32开发\WIFI\MX3165-MODBUS-1\Build\modbus\MiCOKit-3165\obj_EWARM\usha.o
#        E:\工作\stm32开发\WIFI\MX3165-MODBUS-1\Build\modbus\MiCOKit-3165\obj_EWARM\uvis25.o
#        E:\工作\stm32开发\WIFI\MX3165-MODBUS-1\Build\modbus\MiCOKit-3165\obj_EWARM\wlan_bus_SDIO.o
#        E:\工作\stm32开发\WIFI\MX3165-MODBUS-1\Build\modbus\MiCOKit-3165\obj_EWARM\wlan_firmware.o
#        E:\工作\stm32开发\WIFI\MX3165-MODBUS-1\Build\modbus\MiCOKit-3165\obj_EWARM\wlan_platform.o
#        E:\工作\stm32开发\WIFI\MX3165-MODBUS-1\Build\modbus\MiCOKit-3165\obj_EWARM\wlan_platform_common.o
#        --redirect _Printf=_PrintfFull --redirect _Scanf=_ScanfFull -o
#        E:\工作\stm32开发\WIFI\MX3165-MODBUS-1\Build\modbus\\MiCOKit-3165\modbus.out
#        --map
#        E:\工作\stm32开发\WIFI\MX3165-MODBUS-1\Build\modbus\\MiCOKit-3165\list_EWARM\modbus.map
#        --config
#        E:\工作\stm32开发\WIFI\MX3165-MODBUS-1\Projects\STM32F4xx\modbus\EWARM\..\..\..\..\Board\MK3165\micoLinkerForIAR.icf
#        --semihosting --entry __iar_program_start --vfe --threaded_lib
#
###############################################################################

*******************************************************************************
*** MESSAGES
***

Warning[Lt009]: Inconsistent wchar_t size
          E:\工作\stm32开发\WIFI\MX3165-MODBUS-1\Build\modbus\MiCOKit-3165\obj_
                    EWARM\AESUtils.o and 376 other objects have wchar_t size 16
                    bits
          airlink.o(libairkiss.a) has wchar_t size 32 bits


*******************************************************************************
*** RUNTIME MODEL ATTRIBUTES
***

CppFlavor                     = *
__Heap_Handler                = DLMalloc
__SystemLibrary               = DLib
__dlib_dynamic_initialization = normal


*******************************************************************************
*** PLACEMENT SUMMARY
***

"A1":  place at 0x0800c000 { ro section .intvec };
"P1":  place in [from 0x0800c000 to 0x0807ffff] { ro };
"P2":  place in [from 0x20000000 to 0x2001ffff] { rw, block CSTACK, block HEAP };

  Section             Kind        Address     Size  Object
  -------             ----        -------     ----  ------
"A1":                                        0x198
  .intvec                      0x0800c000    0x198  <Block>
    .intvec           ro code  0x0800c000    0x198  startup_stm32f411xe_IAR.o [1]
                             - 0x0800c198    0x198

"P1":                                      0x693bd
  .text               ro code  0x0800c198   0x7ee4  internal.o [4]
  .text               ro code  0x0801407c      0x6  ABImemclr.o [10]
  .text               ro code  0x08014082     0x22  zero_init3.o [10]
  .text               ro code  0x080140a4      0x6  ABImemclr4.o [10]
  .text               ro code  0x080140aa     0x1e  xsscin.o [7]
  .text               ro code  0x080140c8     0x3c  wc_port.o [4]
  .text               ro code  0x08014104     0xdc  logging.o [4]
  .text               ro code  0x080141e0   0x2330  ssl.o [4]
  .text               ro code  0x08016510    0x9a0  mico_rtos.o [1]
  .text               ro code  0x08016eb0    0x3b4  rsa.o [4]
  .text               ro code  0x08017264     0x76  ABImemcpy_unaligned.o [10]
  .text               ro code  0x080172da     0x1a  xsnprout.o [7]
  .text               ro code  0x080172f4     0x62  memcmp_unaligned.o [10]
  .text               ro code  0x08017356      0xa  xsprout.o [7]
  .text               ro code  0x08017360   0x180c  ecc.o [4]
  .text               ro code  0x08018b6c     0x6c  strncpy_unaligned.o [10]
  .text               ro code  0x08018bd8    0x7ec  md5.o [4]
  .text               ro code  0x080193c4    0xca4  sha.o [4]
  .text               ro code  0x0801a068    0x6f4  sha256.o [4]
  .rodata             const    0x0801a75c     0x5c  integer.o [4]
  .text               ro code  0x0801a7b8   0x24e8  sha512.o [4]
  .text               ro code  0x0801cca0    0x760  random.o [4]
  .text               ro code  0x0801d400    0x624  tls.o [4]
  .text               ro code  0x0801da24     0x14  tolower.o [7]
  .text               ro code  0x0801da38   0x2a7c  asn.o [4]
  .text               ro code  0x080204b4     0x36  strlen.o [10]
  .rodata             const    0x080204ea      0x1  smart_config.o [5]
  .rodata             const    0x080204eb      0x1  smart_config.o [5]
  .text               ro code  0x080204ec   0x2260  aes.o [4]
  .text               ro code  0x0802274c    0xf80  hc128.o [4]
  .text               ro code  0x080236cc     0x78  ABImemmove_unaligned.o [10]
  .text               ro code  0x08023744    0x98c  keys.o [4]
  .text               ro code  0x080240d0    0x308  hash.o [4]
  .text               ro code  0x080243d8     0x2a  strncmp.o [7]
  .text               ro code  0x08024402      0x4  internal.o [4]
  .rodata             const    0x08024406      0x1  smart_config.o [5]
  .rodata             const    0x08024407      0x1  smart_config.o [5]
  .text               ro code  0x08024408     0x66  ABImemset.o [10]
  .text               ro code  0x08024470     0x3a  ABImemset48.o [10]
  .text               ro code  0x080244ac     0x34  sprintf.o [7]
  .text               ro code  0x080244e0    0x1f4  coding.o [4]
  .text               ro code  0x080246d4    0x158  platform_init.o [1]
  .text               ro code  0x0802482c    0x174  platform.o [1]
  .text               ro code  0x080249a0    0xba4  tasks.o [1]
  .text               ro code  0x08025544    0x3d4  qc_test.o [1]
  .text               ro code  0x08025918    0x99c  MICOAppEntrance.o [1]
  .text               ro code  0x080262b4     0x54  heap_3.o [1]
  .text               ro code  0x08026308     0x44  snprintf.o [7]
  .text               ro code  0x0802634c     0x44  strcpy_unaligned.o [10]
  .text               ro code  0x08026390    0x614  queue.o [1]
  .text               ro code  0x080269a4     0x20  platform_core.o [1]
  .text               ro code  0x080269c4     0xe4  port.o [1]
  .text               ro code  0x08026aa8     0x18  strrchr.o [7]
  .text               ro code  0x08026ac0     0x24  printf.o [7]
  .text               ro code  0x08026ae4    0x31c  timers.o [1]
  .text               ro code  0x08026e00    0x3e0  mico_system_notification.o [1]
  .text               ro code  0x080271e0   0x2380  integer.o [4]
  .text               ro code  0x08029560     0x1e  U64Shr.o [10]
  .text               ro code  0x08029580     0x22  I64Shl.o [10]
  .text               ro code  0x080295a4     0xe0  rand.o [7]
  .text               ro code  0x08029684    0x336  hmac.o [4]
  .text               ro code  0x080299bc     0x24  setlocale.o [7]
  .text               ro code  0x080299e0      0xc  xlocale_c.o [7]
  .text               ro code  0x080299ec    0x1b0  ssl_wrap.o [4]
  .text               ro code  0x08029b9c     0x2c  strstr.o [7]
  .text               ro code  0x08029bc8   0x114e  xprintffull.o [7]
  .text               ro code  0x0802ad18    0x230  stm32f4xx_rcc.o [1]
  .text               ro code  0x0802af48    0x25c  stm32f4xx_flash.o [1]
  .text               ro code  0x0802b1a4     0x98  misc.o [1]
  .text               ro code  0x0802b23c     0x60  stm32f4xx_pwr.o [1]
  .text               ro code  0x0802b29c    0x5cc  platform_gpio.o [1]
  .text               ro code  0x0802b868     0x76  RingBufferUtils.o [1]
  .text               ro code  0x0802b8e0    0x748  platform_uart.o [1]
  .text               ro code  0x0802c028     0xe0  wlan_platform_common.o [1]
  .text               ro code  0x0802c108     0xf6  platform_nsclock.o [1]
  .text               ro code  0x0802c200    0x13c  platform_rtc.o [1]
  .text               ro code  0x0802c33c    0x30c  platform_mcu_powersave.o [1]
  .text               ro code  0x0802c648    0xa48  mico_platform_common.o [1]
  .text               ro code  0x0802d090     0xd0  button.o [1]
  .text               ro code  0x0802d160     0x1e  dc_motor.o [1]
  .text               ro code  0x0802d17e     0x98  rgb_led.o [1]
  .text               ro code  0x0802d216     0x90  list.o [1]
  .text               ro code  0x0802d2a8    0x46a  mxchipWNET.o [5]
  .text               ro code  0x0802d714   0x25f0  dlmalloc.o [5]
  .text               ro code  0x0802fd04     0xa0  qc_test_cli.o [1]
  .text               ro code  0x0802fda4     0x78  CheckSumUtils.o [1]
  .text               ro code  0x0802fe1c    0xd78  system_misc.o [1]
  .text               ro code  0x08030b94   0x2624  wifimgr.o [5]
  .text               ro code  0x080331b8    0x3a8  mftest.o [5]
  .text               ro code  0x08033560    0x144  qc_test_tcpip.o [1]
  .text               ro code  0x080336a4    0x420  mico_rtos_common.o [1]
  .text               ro code  0x08033ac4    0x4e8  user_main.o [1]
  .text               ro code  0x08033fac    0x3a8  mico_system_power_daemon.o [1]
  .text               ro code  0x08034354    0x138  micokit_ext.o [1]
  .text               ro code  0x0803448c    0xdfc  mico_system_para_storage.o [1]
  .text               ro code  0x08035288   0x5cac  fog_v2.o [1]
  .text               ro code  0x0803af34    0x5f4  mico_system_init.o [1]
  .text               ro code  0x0803b528   0x1920  sockets.o [5]
  CODE                ro code  0x0803ce48     0xa8  portasm.o [1]
  .text               ro code  0x0803cef0      0x2  xtls.o [7]
  .text               ro code  0x0803cef4     0x9c  mico_socket.o [1]
  .text               ro code  0x0803cf90     0x16  strchr.o [10]
  .text               ro code  0x0803cfa6     0x20  xmbtowc.o [7]
  .text               ro code  0x0803cfc8     0x58  memchr.o [10]
  .text               ro code  0x0803d020      0xa  xmbcurmax.o [7]
  .text               ro code  0x0803d02a     0x1a  xwctomb.o [7]
  .text               ro code  0x0803d044     0xee  I64DivMod.o [10]
  .text               ro code  0x0803d132     0x42  xdnorm.o [9]
  .text               ro code  0x0803d174     0x2e  DblCmpLe.o [9]
  .text               ro code  0x0803d1a4     0x2e  DblCmpGe.o [9]
  .text               ro code  0x0803d1d4    0x118  xdscale.o [9]
  .text               ro code  0x0803d2ec     0x58  DblToI32.o [9]
  .text               ro code  0x0803d344     0x30  I32ToDbl.o [9]
  .text               ro code  0x0803d374    0x180  DblSub.o [9]
  .text               ro code  0x0803d4f4    0x1a2  DblMul.o [9]
  .text               ro code  0x0803d698    0x246  DblDiv.o [9]
  .text               ro code  0x0803d8e0     0x6c  localeconv.o [7]
  .text               ro code  0x0803d94c      0xe  div.o [7]
  .text               ro code  0x0803d95c     0x9a  stm32f4xx_gpio.o [1]
  .text               ro code  0x0803d9f8     0x28  stm32f4xx_syscfg.o [1]
  .text               ro code  0x0803da20     0x7c  stm32f4xx_exti.o [1]
  .text               ro code  0x0803da9c    0x1ea  stm32f4xx_usart.o [1]
  .text               ro code  0x0803dc88    0x1c8  stm32f4xx_dma.o [1]
  .text               ro code  0x0803de50    0x5be  stm32f4xx_rtc.o [1]
  .text               ro code  0x0803e410    0x2d0  platform_watchdog.o [1]
  .text               ro code  0x0803e6e0    0x1f4  platform_adc.o [1]
  .text               ro code  0x0803e8d4    0x770  platform_i2c.o [1]
  .text               ro code  0x0803f044    0x598  platform_spi.o [1]
  .text               ro code  0x0803f5dc    0xc34  platform_flash.o [1]
  .text               ro code  0x08040210    0x450  wifi.o [5]
  .text               ro code  0x08040660    0x6a4  tcpip.o [5]
  .text               ro code  0x08040d04    0x7e8  dns.o [5]
  .text               ro code  0x080414ec     0x58  wwd_rtos.o [5]
  .text               ro code  0x08041544     0x20  srand.o [7]
  .text               ro code  0x08041564    0xe80  tcp.o [5]
  .text               ro code  0x080423e4   0x15c0  wwd_wifi.o [5]
  .text               ro code  0x080439a4   0x2b14  smart_config.o [5]
  .text               ro code  0x080464b8     0x36  def.o [5]
  .text               ro code  0x080464f0    0x270  wwd_management.o [5]
  .text               ro code  0x08046760      0x6  abort.o [7]
  .text               ro code  0x08046766     0x20  xsyslock.o [7]
  .text               ro code  0x08046788     0x2c  xgetmemchunk.o [7]
  .text               ro code  0x080467b4    0x99a  StringUtils.o [1]
  .text               ro code  0x08047150     0x14  mxchip_debug.o [5]
  .text               ro code  0x08047164    0x5c2  pbuf.o [5]
  .text               ro code  0x08047728    0x458  ip.o [5]
  .text               ro code  0x08047b80    0x25a  ip_addr.o [5]
  .text               ro code  0x08047ddc     0x8c  crypto_wrap.o [4]
  .text               ro code  0x08047e68    0x404  wiced_network.o [5]
  .text               ro code  0x0804826c    0x1ec  dns_redirect.o [5]
  .text               ro code  0x08048458    0x5da  wwd_ap.o [5]
  .text               ro code  0x08048a32     0xcc  wiced_rtos.o [5]
  .text               ro code  0x08048b00     0x64  dnsclient.o [5]
  .text               ro code  0x08048b64    0xd3c  wwd_sdpcm.o [5]
  .text               ro code  0x080498a0    0x9e0  etharp.o [5]
  .text               ro code  0x0804a280     0x46  strcasecmp.o [7]
  .text               ro code  0x0804a2c8    0x648  api_lib.o [5]
  .text               ro code  0x0804a910   0x1a10  tcp_in.o [5]
  .text               ro code  0x0804c320    0x80c  udp.o [5]
  .text               ro code  0x0804cb2c      0x4  strtoul.o [7]
  .text               ro code  0x0804cb30    0x9e0  oled.o [1]
  .text               ro code  0x0804d510    0x5e8  APDS9930.o [1]
  .text               ro code  0x0804daf8     0x12  light_sensor.o [1]
  .text               ro code  0x0804db0a     0x12  infrared_reflective.o [1]
  .text               ro code  0x0804db1c     0x30  temp_hum_sensor.o [1]
  .text               ro code  0x0804db4c     0x42  strcmp_unaligned.o [10]
  .text               ro code  0x0804db90    0xf2c  json_tokener.o [1]
  .text               ro code  0x0804eabc    0x5fc  json_object.o [1]
  .text               ro code  0x0804f0b8    0x430  fog_bonjour.o [1]
  .text               ro code  0x0804f4e8   0x1714  fog_http_client.o [1]
  .text               ro code  0x08050bfc   0x23f0  fog_ota.o [1]
  .text               ro code  0x08052fec   0x1690  fog_mqtt.o [1]
  .text               ro code  0x0805467c   0x104c  fog_tcp_server.o [1]
  .text               ro code  0x080556c8   0x164c  system_easylink.o [1]
  .text               ro code  0x08056d14    0x318  mico_system_monitor.o [1]
  .text               ro code  0x0805702c   0x1024  mico_cli.o [1]
  .text               ro code  0x08058050   0x1a20  config_server.o [1]
  .text               ro code  0x08059a70    0x1e6  sys_arch.o [5]
  .text               ro code  0x08059c56     0xda  netbuf.o [5]
  .text               ro code  0x08059d30    0x304  lwiptcpip.o [5]
  .text               ro code  0x0805a034    0x568  igmp.o [5]
  .text               ro code  0x0805a59c     0x64  netdb.o [5]
  .text               ro code  0x0805a600     0x60  xencoding_sb.o [7]
  .text               ro code  0x0805a660      0x2  I64DivZer.o [10]
  .text               ro code  0x0805a664     0xe8  DblAdd.o [9]
  .text               ro code  0x0805a74c     0x34  stm32f4xx_iwdg.o [1]
  .text               ro code  0x0805a780    0x2de  stm32f4xx_tim.o [1]
  .text               ro code  0x0805aa60    0x11c  stm32f4xx_adc.o [1]
  .text               ro code  0x0805ab7c    0x144  stm32f4xx_i2c.o [1]
  .text               ro code  0x0805acc0    0x13e  stm32f4xx_spi.o [1]
  .text               ro code  0x0805ae00    0x480  spi_flash.o [1]
  .text               ro code  0x0805b280    0x190  wiced_ping.o [5]
  .text               ro code  0x0805b410      0xc  mxchipbesl.o [5]
  .text               ro code  0x0805b41c    0xcbe  tcp_out.o [5]
  .text               ro code  0x0805c0dc    0x300  lwiptimers.o [5]
  .text               ro code  0x0805c3dc    0x1e8  memp.o [5]
  .text               ro code  0x0805c5c4     0xf4  wwd_buffer.o [5]
  .text               ro code  0x0805c6b8    0x8c0  wlan_bus_SDIO.o [1]
  .text               ro code  0x0805cf78    0x988  wwd_bus_protocol.o [5]
  .text               ro code  0x0805d900    0x284  wwd_thread.o [5]
  .text               ro code  0x0805db84      0x4  wlan_platform.o [1]
  .text               ro code  0x0805db88     0x14  exit.o [11]
  .text               ro code  0x0805db9c    0x15c  xsyslock_mtx.o [7]
  .text               ro code  0x0805dcf8     0x18  toupper.o [7]
  .text               ro code  0x0805dd10     0x3c  isxxx.o [7]
  .text               ro code  0x0805dd4c     0x16  strnlen.o [7]
  .text               ro code  0x0805dd62    0x170  inet_chksum.o [5]
  .text               ro code  0x0805ded4    0x1cc  raw.o [5]
  .text               ro code  0x0805e0a0    0x184  icmp.o [5]
  .text               ro code  0x0805e224    0x358  netif.o [5]
  .text               ro code  0x0805e57c     0x86  arc4.o [4]
  .text               ro code  0x0805e604    0xf54  dhcp.o [5]
  .text               ro code  0x0805f558     0x28  sys.o [5]
  .text               ro code  0x0805f580    0x650  dhcp_server.o [5]
  .text               ro code  0x0805fbd0     0x48  netifapi.o [5]
  .text               ro code  0x0805fc18     0x60  wwd_ap_common.o [5]
  .text               ro code  0x0805fc78    0x190  wwd_network.o [5]
  .text               ro code  0x0805fe08    0xf08  api_msg.o [5]
  .text               ro code  0x08060d10    0x198  xstoul.o [7]
  .text               ro code  0x08060ea8    0x4d0  bme280_user.o [1]
  .text               ro code  0x08061378     0x8a  DHT11.o [1]
  .text               ro code  0x08061404    0x146  printbuf.o [1]
  .text               ro code  0x0806154a     0x4e  strncasecmp.o [7]
  .text               ro code  0x08061598     0xe4  json_util.o [1]
  .text               ro code  0x0806167c     0x24  sscanf.o [7]
  .text               ro code  0x080616a0     0x18  strdup.o [7]
  .text               ro code  0x080616b8    0x358  linkhash.o [1]
  .text               ro code  0x08061a10     0x20  DblCmpEq.o [9]
  .text               ro code  0x08061a30     0xd4  arraylist.o [1]
  .text               ro code  0x08061b04   0x1020  mico_mdns.o [1]
  .text               ro code  0x08062b24   0x2314  HTTPUtils.o [1]
  .text               ro code  0x08064e38    0x394  SocketUtils.o [1]
  .text               ro code  0x080651cc    0x3bc  url.o [1]
  .text               ro code  0x08065588    0x7b0  MQTTClient.o [1]
  .text               ro code  0x08065d38    0x52c  MQTTMiCO.o [1]
  .text               ro code  0x08066264    0x780  fog_process_mqtt_cmd.o [1]
  .text               ro code  0x080669e4     0x98  system_easylink_delegate.o [1]
  .text               ro code  0x08066a7c    0x738  tftpc.o [1]
  .text               ro code  0x080671b4    0xa78  tftp_ota.o [1]
  .text               ro code  0x08067c2c     0x3c  vsnprint.o [7]
  .text               ro code  0x08067c68    0x184  config_server_menu.o [1]
  .text               ro code  0x08067dec     0x20  init.o [5]
  .text               ro code  0x08067e0c     0x30  spi_flash_platform.o [1]
  .text               ro code  0x08067e3c     0x64  stm32f4xx_sdio.o [1]
  .text               ro code  0x08067ea0     0xbc  wwd_chip_specific_functions.o [5]
  .text               ro code  0x08067f5c    0x260  wwd_internal.o [5]
  .text               ro code  0x080681bc    0x2f4  wwd_firmware.o [5]
  .text               ro code  0x080684b0     0x1c  iar_mutex.o [5]
  .text               ro code  0x080684cc     0x16  xlocale_c.o [7]
  .text               ro code  0x080684e2     0x24  xlocale_c.o [7]
  .text               ro code  0x08068506     0x14  xlocale_c.o [7]
  .text               ro code  0x0806851c     0x8c  wiced_lib.o [5]
  .text               ro code  0x080685a8     0x4c  wps_host.o [5]
  .text               ro code  0x080685f4      0xc  errno.o [7]
  .text               ro code  0x08068600    0x570  bme280.o [1]
  .text               ro code  0x08068b70     0x2c  vsprintf.o [7]
  .text               ro code  0x08068b9c    0xcf4  xscanffull.o [7]
  .text               ro code  0x08069890     0x18  vprintf.o [7]
  .text               ro code  0x080698a8      0x4  exit.o [7]
  .text               ro code  0x080698ac    0x16a  URLUtils.o [1]
  .text               ro code  0x08069a18    0x1f4  MQTTPacket.o [1]
  .text               ro code  0x08069c0c    0x2e8  MQTTConnectClient.o [1]
  .text               ro code  0x08069ef4     0xf8  MQTTDeserializePublish.o [1]
  .text               ro code  0x08069fec     0x70  MQTTSerializePublish.o [1]
  .text               ro code  0x0806a05c    0x138  MQTTSubscribeClient.o [1]
  .text               ro code  0x0806a194     0x18  read_wifi_firmware.o [5]
  .text               ro code  0x0806a1ac     0x40  xwctob.o [7]
  .text               ro code  0x0806a1ec     0xa4  xstoll.o [7]
  .text               ro code  0x0806a290    0x1b0  xstoull.o [7]
  .text               ro code  0x0806a440    0x168  xstold.o [9]
  .text               ro code  0x0806a5a8     0x90  DblToFlt.o [9]
  .text               ro code  0x0806a638     0x12  cexit.o [10]
  .text               ro code  0x0806a64a    0x134  xstopfx.o [7]
  .text               ro code  0x0806a780    0x1b8  xstoflt.o [7]
  .text               ro code  0x0806a938    0x200  xdtento.o [9]
  .text               ro code  0x0806ab38    0x218  xstoxflt.o [7]
  .text               ro code  0x0806ad50     0x58  xcloseall.o [7]
  .text               ro code  0x0806ada8     0x56  xdunscal.o [9]
  .text               ro code  0x0806adfe     0x7a  fclose.o [7]
  .text               ro code  0x0806ae78     0x14  Retarget.o [1]
  .text               ro code  0x0806ae8c     0x7c  xfofind.o [7]
  .text               ro code  0x0806af08     0xb0  fflush.o [7]
  .text               ro code  0x0806afb8     0x1a  close.o [11]
  .text               ro code  0x0806afd2     0x16  remove.o [11]
  .text               ro code  0x0806afe8     0xe0  XShHandles.o [7]
  .text               ro code  0x0806b0c8   0x1768  user_uart_data_process.o [1]
  .text               ro code  0x0806c830     0x72  user_stack.o [1]
  .text               ro code  0x0806c8a4    0x554  user_uart.o [1]
  .rodata             const    0x0806cdf8   0x1488  aes.o [4]
  .rodata             const    0x0806e280    0xe74  ecc.o [4]
  .text               ro code  0x0806f0f4    0xdbc  user_downstream.o [1]
  .rodata             const    0x0806feb0    0x9c4  fog_ota.o [1]
  .rodata             const    0x08070874    0x8a8  fog_http_client.o [1]
  .rodata             const    0x0807111c    0x6c4  fog_v2.o [1]
  .text               ro code  0x080717e0    0x664  user_upstream.o [1]
  .text               ro code  0x08071e44    0x3b8  hardfault.o [1]
  .rodata             const    0x080721fc    0x378  platform.o [1]
  .rodata             const    0x08072574    0x30c  wwd_firmware.o [5]
  .rodata             const    0x08072880    0x26c  asn.o [4]
  .rodata             const    0x08072aec    0x244  mico_cli.o [1]
  .text               ro code  0x08072d30    0x228  io.o [4]
  .rodata             const    0x08072f58    0x1d4  internal.o [4]
  .text               ro code  0x0807312c    0x1c2  lz77_init.o [10]
  .rodata             const    0x080732f0    0x100  smart_config.o [5]
  .rodata             const    0x080733f0    0x100  wwd_wifi.o [5]
  .text               ro code  0x080734f0     0xd6  xfspos.o [7]
  .text               ro code  0x080735c6      0xc  xfgpos.o [7]
  .text               ro code  0x080735d2     0x4c  lseek.o [11]
  .text               ro code  0x0807361e     0xb6  xfwprep.o [7]
  .text               ro code  0x080736d4     0x22  fseek.o [7]
  .rodata             const    0x080736f8     0xac  fog_tcp_server.o [1]
  .rodata             const    0x080737a4     0x68  wifimgr.o [5]
  .rodata             const    0x0807380c     0x58  smart_config.o [5]
  .text               ro code  0x08073864     0x56  fputc.o [7]
  .text               ro code  0x080738bc     0x50  micokit_ext_mfg.o [1]
  .rodata             const    0x0807390c     0x4c  dns.o [5]
  .rodata             const    0x08073958     0x4c  dns.o [5]
  .rodata             const    0x080739a4     0x48  tcp_in.o [5]
  .rodata             const    0x080739ec     0x44  tcp_in.o [5]
  .rodata             const    0x08073a30     0x40  sockets.o [5]
  .rodata             const    0x08073a70     0x40  wifimgr.o [5]
  .rodata             const    0x08073ab0     0x40  wifimgr.o [5]
  .rodata             const    0x08073af0     0x40  udp.o [5]
  .rodata             const    0x08073b30     0x40  udp.o [5]
  .rodata             const    0x08073b70     0x3c  wifimgr.o [5]
  .rodata             const    0x08073bac     0x3c  wifimgr.o [5]
  .rodata             const    0x08073be8     0x3c  wifimgr.o [5]
  .rodata             const    0x08073c24     0x38  wifimgr.o [5]
  .rodata             const    0x08073c5c     0x38  wifimgr.o [5]
  .rodata             const    0x08073c94     0x38  memp.o [5]
  .rodata             const    0x08073ccc     0x34  smart_config.o [5]
  .rodata             const    0x08073d00     0x30  wifimgr.o [5]
  .rodata             const    0x08073d30     0x30  tcp_in.o [5]
  .rodata             const    0x08073d60     0x30  etharp.o [5]
  .rodata             const    0x08073d90     0x30  etharp.o [5]
  .rodata             const    0x08073dc0     0x2c  wifimgr.o [5]
  .rodata             const    0x08073dec     0x2c  wifimgr.o [5]
  .rodata             const    0x08073e18     0x2c  mftest.o [5]
  .rodata             const    0x08073e44     0x2c  etharp.o [5]
  .rodata             const    0x08073e70     0x28  wifimgr.o [5]
  .rodata             const    0x08073e98     0x28  wifimgr.o [5]
  .rodata             const    0x08073ec0     0x28  wifimgr.o [5]
  .rodata             const    0x08073ee8     0x28  wifimgr.o [5]
  .rodata             const    0x08073f10     0x28  wifimgr.o [5]
  .rodata             const    0x08073f38     0x28  wwd_sdpcm.o [5]
  .rodata             const    0x08073f60     0x28  mftest.o [5]
  .rodata             const    0x08073f88     0x28  smart_config.o [5]
  .text               ro code  0x08073fb0     0x28  data_init.o [10]
  .rodata             const    0x08073fd8     0x24  json_object.o [1]
  .rodata             const    0x08073ffc     0x24  wifimgr.o [5]
  .rodata             const    0x08074020     0x24  wifimgr.o [5]
  .rodata             const    0x08074044     0x24  wifimgr.o [5]
  .rodata             const    0x08074068     0x24  wwd_sdpcm.o [5]
  .rodata             const    0x0807408c     0x24  memp.o [5]
  .rodata             const    0x080740b0     0x24  mftest.o [5]
  .rodata             const    0x080740d4     0x24  smart_config.o [5]
  .rodata             const    0x080740f8     0x24  smart_config.o [5]
  .rodata             const    0x0807411c     0x24  smart_config.o [5]
  .rodata             const    0x08074140     0x24  tcp_in.o [5]
  .rodata             const    0x08074164     0x24  dhcp_server.o [5]
  .text               ro code  0x08074188     0x22  fpinit_M.o [9]
  .iar.init_table     const    0x080741ac     0x2c  - Linker created -
  .rodata             const    0x080741d8     0x20  wifimgr.o [5]
  .rodata             const    0x080741f8     0x20  wifimgr.o [5]
  .rodata             const    0x08074218     0x20  wifimgr.o [5]
  .rodata             const    0x08074238     0x20  wifimgr.o [5]
  .rodata             const    0x08074258     0x20  wifimgr.o [5]
  .rodata             const    0x08074278     0x20  wifimgr.o [5]
  .rodata             const    0x08074298     0x20  wifimgr.o [5]
  .rodata             const    0x080742b8     0x20  memp.o [5]
  .rodata             const    0x080742d8     0x20  memp.o [5]
  .rodata             const    0x080742f8     0x20  memp.o [5]
  .rodata             const    0x08074318     0x20  mftest.o [5]
  .rodata             const    0x08074338     0x20  mftest.o [5]
  .rodata             const    0x08074358     0x20  mftest.o [5]
  .rodata             const    0x08074378     0x20  smart_config.o [5]
  .rodata             const    0x08074398     0x20  dns.o [5]
  .rodata             const    0x080743b8     0x20  wifi.o [5]
  .rodata             const    0x080743d8     0x20  udp.o [5]
  .rodata             const    0x080743f8     0x20  dhcp_server.o [5]
  .rodata             const    0x08074418     0x1c  sockets.o [5]
  .rodata             const    0x08074434     0x1c  mxchipWNET.o [5]
  .rodata             const    0x08074450     0x1c  wifimgr.o [5]
  .rodata             const    0x0807446c     0x1c  wifimgr.o [5]
  .rodata             const    0x08074488     0x1c  wifimgr.o [5]
  .rodata             const    0x080744a4     0x1c  wifimgr.o [5]
  .rodata             const    0x080744c0     0x1c  wifimgr.o [5]
  .rodata             const    0x080744dc     0x1c  wifimgr.o [5]
  .rodata             const    0x080744f8     0x1c  wwd_sdpcm.o [5]
  .rodata             const    0x08074514     0x1c  mftest.o [5]
  .rodata             const    0x08074530     0x1c  smart_config.o [5]
  .rodata             const    0x0807454c     0x1c  smart_config.o [5]
  .rodata             const    0x08074568     0x1c  smart_config.o [5]
  .rodata             const    0x08074584     0x1c  smart_config.o [5]
  .rodata             const    0x080745a0     0x1c  wwd_wifi.o [5]
  .text               ro code  0x080745bc     0x1c  crt0_EWARM.o [1]
  .text               ro code  0x080745d8     0x1a  cmain.o [10]
  .rodata             const    0x080745f4     0x18  sockets.o [5]
  .rodata             const    0x0807460c     0x18  sockets.o [5]
  .rodata             const    0x08074624     0x18  sockets.o [5]
  .rodata             const    0x0807463c     0x18  sockets.o [5]
  .rodata             const    0x08074654     0x18  wifimgr.o [5]
  .rodata             const    0x0807466c     0x18  wifimgr.o [5]
  .rodata             const    0x08074684     0x18  wifimgr.o [5]
  .rodata             const    0x0807469c     0x18  wifimgr.o [5]
  .rodata             const    0x080746b4     0x18  wifimgr.o [5]
  .rodata             const    0x080746cc     0x18  wifimgr.o [5]
  .rodata             const    0x080746e4     0x18  wifimgr.o [5]
  .rodata             const    0x080746fc     0x18  wifimgr.o [5]
  .rodata             const    0x08074714     0x18  wifimgr.o [5]
  .rodata             const    0x0807472c     0x18  wifimgr.o [5]
  .rodata             const    0x08074744     0x18  wwd_sdpcm.o [5]
  .rodata             const    0x0807475c     0x18  wwd_sdpcm.o [5]
  .rodata             const    0x08074774     0x18  mftest.o [5]
  .rodata             const    0x0807478c     0x18  mftest.o [5]
  .rodata             const    0x080747a4     0x18  mftest.o [5]
  .rodata             const    0x080747bc     0x18  smart_config.o [5]
  .rodata             const    0x080747d4     0x18  smart_config.o [5]
  .rodata             const    0x080747ec     0x18  smart_config.o [5]
  .rodata             const    0x08074804     0x18  smart_config.o [5]
  .rodata             const    0x0807481c     0x18  smart_config.o [5]
  .rodata             const    0x08074834     0x18  smart_config.o [5]
  .rodata             const    0x0807484c     0x18  smart_config.o [5]
  .rodata             const    0x08074864     0x18  smart_config.o [5]
  .rodata             const    0x0807487c     0x18  smart_config.o [5]
  .text               ro code  0x08074894     0x16  xprout.o [7]
  .text               ro code  0x080748ac      0xc  putchar.o [7]
  .rodata             const    0x080748b8     0x14  wifimgr.o [5]
  .rodata             const    0x080748cc     0x14  wifimgr.o [5]
  .rodata             const    0x080748e0     0x14  wifimgr.o [5]
  .rodata             const    0x080748f4     0x14  wifimgr.o [5]
  .rodata             const    0x08074908     0x14  wifimgr.o [5]
  .rodata             const    0x0807491c     0x14  wifimgr.o [5]
  .rodata             const    0x08074930     0x14  wifimgr.o [5]
  .rodata             const    0x08074944     0x14  wifimgr.o [5]
  .rodata             const    0x08074958     0x14  wifimgr.o [5]
  .rodata             const    0x0807496c     0x14  wifimgr.o [5]
  .rodata             const    0x08074980     0x14  wifimgr.o [5]
  .rodata             const    0x08074994     0x14  wifimgr.o [5]
  .rodata             const    0x080749a8     0x14  wifimgr.o [5]
  .rodata             const    0x080749bc     0x14  wifimgr.o [5]
  .rodata             const    0x080749d0     0x14  wifimgr.o [5]
  .rodata             const    0x080749e4     0x14  wifimgr.o [5]
  .rodata             const    0x080749f8     0x14  wifimgr.o [5]
  .rodata             const    0x08074a0c     0x14  wifimgr.o [5]
  .rodata             const    0x08074a20     0x14  wifimgr.o [5]
  .rodata             const    0x08074a34     0x14  wifimgr.o [5]
  .rodata             const    0x08074a48     0x14  wwd_sdpcm.o [5]
  .rodata             const    0x08074a5c     0x14  mftest.o [5]
  .rodata             const    0x08074a70     0x14  mftest.o [5]
  .rodata             const    0x08074a84     0x14  smart_config.o [5]
  .rodata             const    0x08074a98     0x14  smart_config.o [5]
  .rodata             const    0x08074aac     0x14  smart_config.o [5]
  .rodata             const    0x08074ac0     0x14  smart_config.o [5]
  .rodata             const    0x08074ad4     0x14  smart_config.o [5]
  .rodata             const    0x08074ae8     0x14  dns.o [5]
  .rodata             const    0x08074afc     0x14  wwd_wifi.o [5]
  .rodata             const    0x08074b10     0x14  wwd_wifi.o [5]
  .rodata             const    0x08074b24     0x14  wiced_network.o [5]
  .text               ro code  0x08074b38     0x12  startup_stm32f411xe_IAR.o [1]
  .rodata             const    0x08074b4c     0x10  mxchipWNET.o [5]
  .rodata             const    0x08074b5c     0x10  mxchipWNET.o [5]
  .rodata             const    0x08074b6c     0x10  wifimgr.o [5]
  .rodata             const    0x08074b7c     0x10  wifimgr.o [5]
  .rodata             const    0x08074b8c     0x10  wifimgr.o [5]
  .rodata             const    0x08074b9c     0x10  wifimgr.o [5]
  .rodata             const    0x08074bac     0x10  wifimgr.o [5]
  .rodata             const    0x08074bbc     0x10  wifimgr.o [5]
  .rodata             const    0x08074bcc     0x10  wifimgr.o [5]
  .rodata             const    0x08074bdc     0x10  wifimgr.o [5]
  .rodata             const    0x08074bec     0x10  wifimgr.o [5]
  .rodata             const    0x08074bfc     0x10  wifimgr.o [5]
  .rodata             const    0x08074c0c     0x10  wifimgr.o [5]
  .rodata             const    0x08074c1c     0x10  wwd_sdpcm.o [5]
  .rodata             const    0x08074c2c     0x10  memp.o [5]
  .rodata             const    0x08074c3c     0x10  memp.o [5]
  .rodata             const    0x08074c4c     0x10  memp.o [5]
  .rodata             const    0x08074c5c     0x10  memp.o [5]
  .rodata             const    0x08074c6c     0x10  memp.o [5]
  .rodata             const    0x08074c7c     0x10  memp.o [5]
  .rodata             const    0x08074c8c     0x10  mftest.o [5]
  .rodata             const    0x08074c9c     0x10  mftest.o [5]
  .rodata             const    0x08074cac     0x10  lwiptcpip.o [5]
  .rodata             const    0x08074cbc     0x10  smart_config.o [5]
  .rodata             const    0x08074ccc     0x10  smart_config.o [5]
  .rodata             const    0x08074cdc     0x10  smart_config.o [5]
  .rodata             const    0x08074cec     0x10  smart_config.o [5]
  .rodata             const    0x08074cfc     0x10  smart_config.o [5]
  .rodata             const    0x08074d0c     0x10  smart_config.o [5]
  .rodata             const    0x08074d1c     0x10  smart_config.o [5]
  .rodata             const    0x08074d2c     0x10  smart_config.o [5]
  .rodata             const    0x08074d3c     0x10  smart_config.o [5]
  .rodata             const    0x08074d4c     0x10  dns.o [5]
  .rodata             const    0x08074d5c     0x10  tcp.o [5]
  .rodata             const    0x08074d6c     0x10  wwd_wifi.o [5]
  .rodata             const    0x08074d7c     0x10  wwd_wifi.o [5]
  .rodata             const    0x08074d8c     0x10  wwd_wifi.o [5]
  .rodata             const    0x08074d9c     0x10  wwd_wifi.o [5]
  .rodata             const    0x08074dac     0x10  wifi.o [5]
  .rodata             const    0x08074dbc     0x10  wwd_ap.o [5]
  .rodata             const    0x08074dcc     0x10  wwd_ap_common.o [5]
  .rodata             const    0x08074ddc     0x10  wwd_ap_common.o [5]
  .rodata             const    0x08074dec      0xc  mico_config.o [1]
  .rodata             const    0x08074df8      0xc  wifimgr.o [5]
  .rodata             const    0x08074e04      0xc  wifimgr.o [5]
  .rodata             const    0x08074e10      0xc  wifimgr.o [5]
  .rodata             const    0x08074e1c      0xc  wifimgr.o [5]
  .rodata             const    0x08074e28      0xc  wifimgr.o [5]
  .rodata             const    0x08074e34      0xc  wifimgr.o [5]
  .rodata             const    0x08074e40      0xc  wifimgr.o [5]
  .rodata             const    0x08074e4c      0xc  wifimgr.o [5]
  .rodata             const    0x08074e58      0xc  wifimgr.o [5]
  .rodata             const    0x08074e64      0xc  wifimgr.o [5]
  .rodata             const    0x08074e70      0xc  wifimgr.o [5]
  .rodata             const    0x08074e7c      0xc  memp.o [5]
  .rodata             const    0x08074e88      0xc  memp.o [5]
  .rodata             const    0x08074e94      0xc  memp.o [5]
  .rodata             const    0x08074ea0      0xc  wwd_thread.o [5]
  .rodata             const    0x08074eac      0xc  smart_config.o [5]
  .rodata             const    0x08074eb8      0xc  smart_config.o [5]
  .rodata             const    0x08074ec4      0xc  smart_config.o [5]
  .rodata             const    0x08074ed0      0xc  smart_config.o [5]
  .rodata             const    0x08074edc      0xc  smart_config.o [5]
  .rodata             const    0x08074ee8      0xc  smart_config.o [5]
  .rodata             const    0x08074ef4      0xc  smart_config.o [5]
  .rodata             const    0x08074f00      0xc  smart_config.o [5]
  .rodata             const    0x08074f0c      0xc  smart_config.o [5]
  .rodata             const    0x08074f18      0xc  smart_config.o [5]
  .rodata             const    0x08074f24      0xc  smart_config.o [5]
  .rodata             const    0x08074f30      0xc  smart_config.o [5]
  .rodata             const    0x08074f3c      0xc  smart_config.o [5]
  .rodata             const    0x08074f48      0xc  smart_config.o [5]
  .rodata             const    0x08074f54      0xc  smart_config.o [5]
  .rodata             const    0x08074f60      0xc  smart_config.o [5]
  .rodata             const    0x08074f6c      0xc  smart_config.o [5]
  .rodata             const    0x08074f78      0xc  smart_config.o [5]
  .rodata             const    0x08074f84      0xc  smart_config.o [5]
  .rodata             const    0x08074f90      0xc  smart_config.o [5]
  .rodata             const    0x08074f9c      0xc  smart_config.o [5]
  .rodata             const    0x08074fa8      0xc  smart_config.o [5]
  .rodata             const    0x08074fb4      0xc  smart_config.o [5]
  .rodata             const    0x08074fc0      0xc  smart_config.o [5]
  .rodata             const    0x08074fcc      0xc  smart_config.o [5]
  .rodata             const    0x08074fd8      0xc  smart_config.o [5]
  .rodata             const    0x08074fe4      0xc  smart_config.o [5]
  .rodata             const    0x08074ff0      0xc  dns.o [5]
  .rodata             const    0x08074ffc      0xc  dns.o [5]
  .rodata             const    0x08075008      0xc  dns.o [5]
  .rodata             const    0x08075014      0xc  wwd_wifi.o [5]
  .rodata             const    0x08075020      0xc  wwd_wifi.o [5]
  .rodata             const    0x0807502c      0xc  wwd_wifi.o [5]
  .rodata             const    0x08075038      0xc  wwd_wifi.o [5]
  .rodata             const    0x08075044      0xc  tcp_in.o [5]
  .rodata             const    0x08075050      0xc  wwd_management.o [5]
  .rodata             const    0x0807505c      0xc  wwd_management.o [5]
  .rodata             const    0x08075068      0xc  dns_redirect.o [5]
  .rodata             const    0x08075074      0xc  dns_redirect.o [5]
  .rodata             const    0x08075080      0xc  wwd_ap.o [5]
  .rodata             const    0x0807508c      0xc  wwd_ap.o [5]
  .rodata             const    0x08075098      0xc  wwd_ap.o [5]
  .rodata             const    0x080750a4      0xc  wwd_ap.o [5]
  .rodata             const    0x080750b0      0xc  wwd_internal.o [5]
  .rodata             const    0x080750bc      0xc  dhcp_server.o [5]
  .rodata             const    0x080750c8      0xc  wwd_ap_common.o [5]
  .rodata             const    0x080750d4      0xc  wiced_lib.o [5]
  .text               ro code  0x080750e0      0xc  cstartup_M.o [10]
  .rodata             const    0x080750ec      0x8  sockets.o [5]
  .rodata             const    0x080750f4      0x8  sockets.o [5]
  .rodata             const    0x080750fc      0x8  sockets.o [5]
  .rodata             const    0x08075104      0x8  sockets.o [5]
  .rodata             const    0x0807510c      0x8  sockets.o [5]
  .rodata             const    0x08075114      0x8  sockets.o [5]
  .rodata             const    0x0807511c      0x8  mxchipWNET.o [5]
  .rodata             const    0x08075124      0x8  mxchipWNET.o [5]
  .rodata             const    0x0807512c      0x8  wifimgr.o [5]
  .rodata             const    0x08075134      0x8  wifimgr.o [5]
  .rodata             const    0x0807513c      0x8  wifimgr.o [5]
  .rodata             const    0x08075144      0x8  wifimgr.o [5]
  .rodata             const    0x0807514c      0x8  wifimgr.o [5]
  .rodata             const    0x08075154      0x8  wifimgr.o [5]
  .rodata             const    0x0807515c      0x8  wifimgr.o [5]
  .rodata             const    0x08075164      0x8  wifimgr.o [5]
  .rodata             const    0x0807516c      0x8  wifimgr.o [5]
  .rodata             const    0x08075174      0x8  wifimgr.o [5]
  .rodata             const    0x0807517c      0x8  wifimgr.o [5]
  .rodata             const    0x08075184      0x8  wifimgr.o [5]
  .rodata             const    0x0807518c      0x8  wifimgr.o [5]
  .rodata             const    0x08075194      0x8  memp.o [5]
  .rodata             const    0x0807519c      0x8  memp.o [5]
  .rodata             const    0x080751a4      0x8  memp.o [5]
  .rodata             const    0x080751ac      0x8  memp.o [5]
  .rodata             const    0x080751b4      0x8  memp.o [5]
  .rodata             const    0x080751bc      0x8  memp.o [5]
  .rodata             const    0x080751c4      0x8  memp.o [5]
  .rodata             const    0x080751cc      0x8  memp.o [5]
  .rodata             const    0x080751d4      0x8  smart_config.o [5]
  .rodata             const    0x080751dc      0x8  smart_config.o [5]
  .rodata             const    0x080751e4      0x8  smart_config.o [5]
  .rodata             const    0x080751ec      0x8  dns.o [5]
  .rodata             const    0x080751f4      0x8  dns.o [5]
  .rodata             const    0x080751fc      0x8  tcp.o [5]
  .rodata             const    0x08075204      0x8  wwd_wifi.o [5]
  .rodata             const    0x0807520c      0x8  wwd_wifi.o [5]
  .rodata             const    0x08075214      0x8  wwd_wifi.o [5]
  .rodata             const    0x0807521c      0x8  wwd_wifi.o [5]
  .rodata             const    0x08075224      0x8  wwd_wifi.o [5]
  .rodata             const    0x0807522c      0x8  tcp_in.o [5]
  .rodata             const    0x08075234      0x8  tcp_in.o [5]
  .rodata             const    0x0807523c      0x8  tcp_in.o [5]
  .rodata             const    0x08075244      0x8  tcp_in.o [5]
  .rodata             const    0x0807524c      0x8  wwd_management.o [5]
  .rodata             const    0x08075254      0x8  wwd_management.o [5]
  .rodata             const    0x0807525c      0x8  etharp.o [5]
  .rodata             const    0x08075264      0x8  etharp.o [5]
  .rodata             const    0x0807526c      0x8  etharp.o [5]
  .rodata             const    0x08075274      0x8  etharp.o [5]
  .rodata             const    0x0807527c      0x8  wwd_network.o [5]
  .rodata             const    0x08075284      0x8  dhcp_server.o [5]
  .rodata             const    0x0807528c      0x8  dhcp_server.o [5]
  .rodata             const    0x08075294      0x8  dhcp_server.o [5]
  .rodata             const    0x0807529c      0x8  dhcp_server.o [5]
  .text               ro code  0x080752a4      0x8  startup_stm32f411xe_IAR.o [1]
  .rodata             const    0x080752ac      0x4  ip_addr.o [5]
  .rodata             const    0x080752b0      0x4  ip_addr.o [5]
  .rodata             const    0x080752b4      0x4  smart_config.o [5]
  .rodata             const    0x080752b8      0x4  smart_config.o [5]
  .rodata             const    0x080752bc      0x4  dhcp_server.o [5]
  .rodata             const    0x080752c0      0x4  dhcp_server.o [5]
  .rodata             const    0x080752c4      0x4  dhcp_server.o [5]
  .rodata             const    0x080752c8      0x4  dhcp_server.o [5]
  .rodata             const    0x080752cc      0x4  dhcp_server.o [5]
  .text               ro code  0x080752d0      0x4  startup_stm32f411xe_IAR.o [1]
  .text               ro code  0x080752d4      0x4  startup_stm32f411xe_IAR.o [1]
  .text               ro code  0x080752d8      0x4  startup_stm32f411xe_IAR.o [1]
  .text               ro code  0x080752dc      0x4  startup_stm32f411xe_IAR.o [1]
  .text               ro code  0x080752e0      0x4  startup_stm32f411xe_IAR.o [1]
  .text               ro code  0x080752e4      0x4  startup_stm32f411xe_IAR.o [1]
  .text               ro code  0x080752e8      0x4  startup_stm32f411xe_IAR.o [1]
  .text               ro code  0x080752ec      0x4  startup_stm32f411xe_IAR.o [1]
  .text               ro code  0x080752f0      0x4  startup_stm32f411xe_IAR.o [1]
  .text               ro code  0x080752f4      0x4  startup_stm32f411xe_IAR.o [1]
  .text               ro code  0x080752f8      0x4  startup_stm32f411xe_IAR.o [1]
  .text               ro code  0x080752fc      0x4  startup_stm32f411xe_IAR.o [1]
  .text               ro code  0x08075300      0x4  startup_stm32f411xe_IAR.o [1]
  .text               ro code  0x08075304      0x4  startup_stm32f411xe_IAR.o [1]
  .text               ro code  0x08075308      0x4  startup_stm32f411xe_IAR.o [1]
  .text               ro code  0x0807530c      0x4  startup_stm32f411xe_IAR.o [1]
  .text               ro code  0x08075310      0x4  startup_stm32f411xe_IAR.o [1]
  .text               ro code  0x08075314      0x4  startup_stm32f411xe_IAR.o [1]
  .text               ro code  0x08075318      0x4  startup_stm32f411xe_IAR.o [1]
  .text               ro code  0x0807531c      0x4  startup_stm32f411xe_IAR.o [1]
  .text               ro code  0x08075320      0x4  startup_stm32f411xe_IAR.o [1]
  .text               ro code  0x08075324      0x4  startup_stm32f411xe_IAR.o [1]
  .text               ro code  0x08075328      0x4  startup_stm32f411xe_IAR.o [1]
  .text               ro code  0x0807532c      0x4  startup_stm32f411xe_IAR.o [1]
  .text               ro code  0x08075330      0x4  startup_stm32f411xe_IAR.o [1]
  .text               ro code  0x08075334      0x4  startup_stm32f411xe_IAR.o [1]
  .text               ro code  0x08075338      0x4  startup_stm32f411xe_IAR.o [1]
  .text               ro code  0x0807533c      0x4  startup_stm32f411xe_IAR.o [1]
  .text               ro code  0x08075340      0x4  startup_stm32f411xe_IAR.o [1]
  .text               ro code  0x08075344      0x4  startup_stm32f411xe_IAR.o [1]
  .text               ro code  0x08075348      0x4  startup_stm32f411xe_IAR.o [1]
  .text               ro code  0x0807534c      0x4  startup_stm32f411xe_IAR.o [1]
  .text               ro code  0x08075350      0x4  startup_stm32f411xe_IAR.o [1]
  .text               ro code  0x08075354      0x4  startup_stm32f411xe_IAR.o [1]
  .text               ro code  0x08075358      0x4  startup_stm32f411xe_IAR.o [1]
  .text               ro code  0x0807535c      0x4  startup_stm32f411xe_IAR.o [1]
  .text               ro code  0x08075360      0x4  startup_stm32f411xe_IAR.o [1]
  .text               ro code  0x08075364      0x4  startup_stm32f411xe_IAR.o [1]
  .text               ro code  0x08075368      0x4  startup_stm32f411xe_IAR.o [1]
  .text               ro code  0x0807536c      0x4  startup_stm32f411xe_IAR.o [1]
  .text               ro code  0x08075370      0x4  startup_stm32f411xe_IAR.o [1]
  .text               ro code  0x08075374      0x4  startup_stm32f411xe_IAR.o [1]
  .text               ro code  0x08075378      0x4  startup_stm32f411xe_IAR.o [1]
  .text               ro code  0x0807537c      0x4  startup_stm32f411xe_IAR.o [1]
  .text               ro code  0x08075380      0x4  startup_stm32f411xe_IAR.o [1]
  .text               ro code  0x08075384      0x4  startup_stm32f411xe_IAR.o [1]
  .text               ro code  0x08075388      0x4  startup_stm32f411xe_IAR.o [1]
  .text               ro code  0x0807538c      0x4  startup_stm32f411xe_IAR.o [1]
  .text               ro code  0x08075390      0x0  cstart_clearlocks.o [10]
  .text               ro code  0x08075390      0x0  cstart_closeall.o [10]
  .rodata             const    0x08075390      0x0  zero_init3.o [10]
  .rodata             const    0x08075390      0x0  lz77_init.o [10]
  Initializer bytes   ro data  0x08075390    0x1c5  <for P2 s0>
                             - 0x08075555  0x693bd

"P2":                                      0x1d8a0
  P2 s0                        0x20000000    0x62a  <Init block>
    .data             inited   0x20000000     0xc8  button.o [1]
    .data             inited   0x200000c8     0x94  fog_ota.o [1]
    __DLIB_PERTHREAD  inited   0x2000015c     0x8c  rand.o [7]
    __DLIB_PERTHREAD  inited   0x200001e8     0x88  localeconv.o [7]
    __DLIB_PERTHREAD  inited   0x20000270     0x74  setlocale.o [7]
    .data             inited   0x200002e4     0x54  internal.o [4]
    .data             inited   0x20000338     0x44  bme280_user.o [1]
    .data             inited   0x2000037c     0x40  memp.o [5]
    .data             inited   0x200003bc     0x40  xfiles.o [7]
    .data             inited   0x200003fc     0x40  xfiles.o [7]
    .data             inited   0x2000043c     0x40  xfiles.o [7]
    .data             inited   0x2000047c     0x20  mico_mdns.o [1]
    .data             inited   0x2000049c     0x20  wiced_network.o [5]
    .data             inited   0x200004bc     0x20  xfiles.o [7]
    .data             inited   0x200004dc     0x14  fog_v2.o [1]
    .data             inited   0x200004f0     0x14  ssl_wrap.o [4]
    .data             inited   0x20000504     0x10  fog_tcp_server.o [1]
    .data             inited   0x20000514     0x10  mico_rtos.o [1]
    .data             inited   0x20000524     0x10  mico_rtos_common.o [1]
    .data             inited   0x20000534     0x10  stm32f4xx_rcc.o [1]
    .data             inited   0x20000544     0x10  tcp.o [5]
    .data             inited   0x20000554      0xc  wwd_internal.o [5]
    .data             inited   0x20000560      0x8  APDS9930.o [1]
    .data             inited   0x20000568      0x8  platform_rtc.o [1]
    .data             inited   0x20000570      0x4  json_object.o [1]
    .data             inited   0x20000574      0x4  json_object.o [1]
    .data             inited   0x20000578      0x4  json_tokener.o [1]
    .data             inited   0x2000057c      0x4  mico_config.o [1]
    .data             inited   0x20000580      0x4  mico_config.o [1]
    .data             inited   0x20000584      0x4  port.o [1]
    .data             inited   0x20000588      0x4  wifimgr.o [5]
    .data             inited   0x2000058c      0x4  wifimgr.o [5]
    .data             inited   0x20000590      0x4  wifimgr.o [5]
    .data             inited   0x20000594      0x4  wifimgr.o [5]
    .data             inited   0x20000598      0x4  wifimgr.o [5]
    .data             inited   0x2000059c      0x4  wifimgr.o [5]
    .data             inited   0x200005a0      0x4  wifimgr.o [5]
    .data             inited   0x200005a4      0x4  wwd_sdpcm.o [5]
    .data             inited   0x200005a8      0x4  mftest.o [5]
    .data             inited   0x200005ac      0x4  mftest.o [5]
    .data             inited   0x200005b0      0x4  smart_config.o [5]
    .data             inited   0x200005b4      0x4  smart_config.o [5]
    .data             inited   0x200005b8      0x4  smart_config.o [5]
    .data             inited   0x200005bc      0x4  tcp.o [5]
    .data             inited   0x200005c0      0x4  wwd_firmware.o [5]
    .data             inited   0x200005c4      0x4  wifi.o [5]
    .data             inited   0x200005c8      0x4  wwd_ap.o [5]
    .data             inited   0x200005cc      0x4  wwd_ap.o [5]
    .data             inited   0x200005d0      0x4  integer.o [4]
    .data             inited   0x200005d4      0x4  asn.o [4]
    .data             inited   0x200005d8      0x4  asn.o [4]
    .data             inited   0x200005dc      0x4  asn.o [4]
    .data             inited   0x200005e0      0x4  asn.o [4]
    .data             inited   0x200005e4      0x4  asn.o [4]
    .data             inited   0x200005e8      0x4  asn.o [4]
    .data             inited   0x200005ec      0x4  asn.o [4]
    .data             inited   0x200005f0      0x4  asn.o [4]
    .data             inited   0x200005f4      0x4  asn.o [4]
    .data             inited   0x200005f8      0x4  asn.o [4]
    .data             inited   0x200005fc      0x4  asn.o [4]
    .data             inited   0x20000600      0x4  asn.o [4]
    .data             inited   0x20000604      0x4  asn.o [4]
    .data             inited   0x20000608      0x4  asn.o [4]
    .data             inited   0x2000060c      0x4  asn.o [4]
    .data             inited   0x20000610      0x4  asn.o [4]
    .data             inited   0x20000614      0x4  asn.o [4]
    .data             inited   0x20000618      0x4  asn.o [4]
    .data             inited   0x2000061c      0x4  asn.o [4]
    .data             inited   0x20000620      0x4  asn.o [4]
    __DLIB_PERTHREAD  inited   0x20000624      0x4  errno.o [7]
    .data             inited   0x20000628      0x1  platform_spi.o [1]
    .data             inited   0x20000629      0x1  smart_config.o [5]
  .bss                zero     0x2000062c   0x533c  memp.o [5]
  .bss                zero     0x20005968    0x818  wlan_bus_SDIO.o [1]
  .bss                zero     0x20006180    0x580  smart_config.o [5]
  .bss                zero     0x20006700    0x460  dns.o [5]
  .bss                zero     0x20006b60    0x204  dns.o [5]
  .bss                zero     0x20006d64    0x1d8  dlmalloc.o [5]
  .bss                zero     0x20006f3c    0x180  sockets.o [5]
  .bss                zero     0x200070bc    0x144  user_uart_data_process.o [1]
  .bss                zero     0x20007200    0x110  user_uart.o [1]
  .bss                zero     0x20007310    0x100  smart_config.o [5]
  .bss                zero     0x20007410    0x100  smart_config.o [5]
  .bss                zero     0x20007510     0xc8  tasks.o [1]
  .bss                zero     0x200075d8     0xc0  platform_gpio.o [1]
  .bss                zero     0x20007698     0xa0  tasks.o [1]
  .bss                zero     0x20007738     0xa0  etharp.o [5]
  .bss                zero     0x200077d8     0x88  wiced_network.o [5]
  .bss                zero     0x20007860     0x80  mico_mdns.o [1]
  .bss                zero     0x200078e0     0x80  XShHandles.o [7]
  .bss                zero     0x20007960     0x70  wifimgr.o [5]
  .bss                zero     0x200079d0     0x64  dhcp_server.o [5]
  .bss                zero     0x20007a34     0x60  sockets.o [5]
  .bss                zero     0x20007a94     0x58  mico_cli.o [1]
  .bss                zero     0x20007aec     0x58  platform.o [1]
  .bss                zero     0x20007b44     0x58  platform_init.o [1]
  .bss                zero     0x20007b9c     0x50  mico_system_notification.o [1]
  .bss                zero     0x20007bec     0x50  smart_config.o [5]
  .bss                zero     0x20007c3c     0x50  xfiles.o [7]
  .bss                zero     0x20007c8c     0x50  xfiles.o [7]
  .bss                zero     0x20007cdc     0x44  netif.o [5]
  .bss                zero     0x20007d20     0x40  qc_test_cli.o [1]
  .bss                zero     0x20007d60     0x40  memp.o [5]
  .bss                zero     0x20007da0     0x40  memp.o [5]
  .bss                zero     0x20007de0     0x40  smart_config.o [5]
  .bss                zero     0x20007e20     0x3c  timers.o [1]
  .bss                zero     0x20007e5c     0x3c  wifimgr.o [5]
  .bss                zero     0x20007e98     0x3c  wifimgr.o [5]
  .bss                zero     0x20007ed4     0x3c  wifimgr.o [5]
  .bss                zero     0x20007f10     0x3c  wifimgr.o [5]
  .bss                zero     0x20007f4c     0x3c  wwd_sdpcm.o [5]
  .bss                zero     0x20007f88     0x3c  wiced_network.o [5]
  .bss                zero     0x20007fc4     0x38  wiced_network.o [5]
  .bss                zero     0x20007ffc     0x38  xsyslock_mtx.o [7]
  .bss                zero     0x20008034     0x30  mftest.o [5]
  .bss                zero     0x20008064     0x30  mftest.o [5]
  .bss                zero     0x20008094     0x28  mico_system_monitor.o [1]
  .bss                zero     0x200080bc     0x28  wifimgr.o [5]
  .bss                zero     0x200080e4     0x28  smart_config.o [5]
  .bss                zero     0x2000810c     0x28  dnsclient.o [5]
  .bss                zero     0x20008134     0x28  wiced_ping.o [5]
  .bss                zero     0x2000815c     0x28  dhcp.o [5]
  .bss                zero     0x20008184     0x24  mico_platform_common.o [1]
  .bss                zero     0x200081a8     0x24  wifimgr.o [5]
  .bss                zero     0x200081cc     0x20  fog_http_client.o [1]
  .bss                zero     0x200081ec     0x20  smart_config.o [5]
  .bss                zero     0x2000820c     0x20  dhcp_server.o [5]
  .bss                zero     0x2000822c     0x1c  config_server.o [1]
  .bss                zero     0x20008248     0x1c  mico_system_power_daemon.o [1]
  .bss                zero     0x20008264     0x18  platform.o [1]
  .bss                zero     0x2000827c     0x18  mftest.o [5]
  .bss                zero     0x20008294     0x18  dlmalloc.o [5]
  .bss                zero     0x200082b0     0x14  platform_nsclock.o [1]
  .bss                zero     0x200082c4     0x14  system_easylink.o [1]
  .bss                zero     0x200082d8     0x14  wifimgr.o [5]
  .bss                zero     0x200082ec     0x14  netdb.o [5]
  .bss                zero     0x20008300     0x14  mftest.o [5]
  .bss                zero     0x20008314     0x14  tcp_in.o [5]
  .bss                zero     0x20008328     0x14  wiced_network.o [5]
  .bss                zero     0x2000833c     0x14  wiced_network.o [5]
  .bss                zero     0x20008350     0x10  mico_rtos_common.o [1]
  .bss                zero     0x20008360     0x10  platform_watchdog.o [1]
  .bss                zero     0x20008370     0x10  qc_test.o [1]
  .bss                zero     0x20008380     0x10  system_easylink_delegate.o [1]
  .bss                zero     0x20008390     0x10  mxchipWNET.o [5]
  .bss                zero     0x200083a0     0x10  ip_addr.o [5]
  .bss                zero     0x200083b0     0x10  smart_config.o [5]
  .bss                zero     0x200083c0      0xc  platform_flash.o [1]
  .bss                zero     0x200083cc      0xc  smart_config.o [5]
  .bss                zero     0x200083d8      0xc  dhcp.o [5]
  .bss                zero     0x200083e4      0x8  fog_tcp_server.o [1]
  .bss                zero     0x200083ec      0x8  mico_system_para_storage.o [1]
  .bss                zero     0x200083f4      0x8  micokit_ext_mfg.o [1]
  .bss                zero     0x200083fc      0x8  platform.o [1]
  .bss                zero     0x20008404      0x8  wifimgr.o [5]
  .bss                zero     0x2000840c      0x8  wifimgr.o [5]
  .bss                zero     0x20008414      0x8  wifimgr.o [5]
  .bss                zero     0x2000841c      0x8  netdb.o [5]
  .bss                zero     0x20008424      0x8  smart_config.o [5]
  .bss                zero     0x2000842c      0x8  smart_config.o [5]
  .bss                zero     0x20008434      0x8  smart_config.o [5]
  .bss                zero     0x2000843c      0x8  dns.o [5]
  .bss                zero     0x20008444      0x8  wifi.o [5]
  .bss                zero     0x2000844c      0x8  wwd_management.o [5]
  .bss                zero     0x20008454      0x8  ssl.o [4]
  .bss                zero     0x2000845c      0x4  bme280.o [1]
  .bss                zero     0x20008460      0x4  fog_mqtt.o [1]
  .bss                zero     0x20008464      0x4  mico_config.o [1]
  .bss                zero     0x20008468      0x4  MICOAppEntrance.o [1]
  .bss                zero     0x2000846c      0x4  MQTTPacket.o [1]
  .bss                zero     0x20008470      0x4  platform.o [1]
  .bss                zero     0x20008474      0x4  platform_mcu_powersave.o [1]
  .bss                zero     0x20008478      0x4  platform_watchdog.o [1]
  .bss                zero     0x2000847c      0x4  tftp_ota.o [1]
  .bss                zero     0x20008480      0x4  wlan_platform_common.o [1]
  .bss                zero     0x20008484      0x4  sockets.o [5]
  .bss                zero     0x20008488      0x4  sockets.o [5]
  .bss                zero     0x2000848c      0x4  sockets.o [5]
  .bss                zero     0x20008490      0x4  mxchipWNET.o [5]
  .bss                zero     0x20008494      0x4  mxchipWNET.o [5]
  .bss                zero     0x20008498      0x4  mxchipWNET.o [5]
  .bss                zero     0x2000849c      0x4  ssl_wrap.o [4]
  .bss                zero     0x200084a0      0x4  wifimgr.o [5]
  .bss                zero     0x200084a4      0x4  wifimgr.o [5]
  .bss                zero     0x200084a8      0x4  wifimgr.o [5]
  .bss                zero     0x200084ac      0x4  wifimgr.o [5]
  .bss                zero     0x200084b0      0x4  wifimgr.o [5]
  .bss                zero     0x200084b4      0x4  wifimgr.o [5]
  .bss                zero     0x200084b8      0x4  wifimgr.o [5]
  .bss                zero     0x200084bc      0x4  wifimgr.o [5]
  .bss                zero     0x200084c0      0x4  wifimgr.o [5]
  .bss                zero     0x200084c4      0x4  wifimgr.o [5]
  .bss                zero     0x200084c8      0x4  wwd_sdpcm.o [5]
  .bss                zero     0x200084cc      0x4  wwd_sdpcm.o [5]
  .bss                zero     0x200084d0      0x4  wwd_sdpcm.o [5]
  .bss                zero     0x200084d4      0x4  wwd_sdpcm.o [5]
  .bss                zero     0x200084d8      0x4  wwd_sdpcm.o [5]
  .bss                zero     0x200084dc      0x4  wwd_sdpcm.o [5]
  .bss                zero     0x200084e0      0x4  wwd_sdpcm.o [5]
  .bss                zero     0x200084e4      0x4  wwd_sdpcm.o [5]
  .bss                zero     0x200084e8      0x4  netdb.o [5]
  .bss                zero     0x200084ec      0x4  netdb.o [5]
  .bss                zero     0x200084f0      0x4  netdb.o [5]
  .bss                zero     0x200084f4      0x4  mftest.o [5]
  .bss                zero     0x200084f8      0x4  mftest.o [5]
  .bss                zero     0x200084fc      0x4  mftest.o [5]
  .bss                zero     0x20008500      0x4  mftest.o [5]
  .bss                zero     0x20008504      0x4  wwd_thread.o [5]
  .bss                zero     0x20008508      0x4  wwd_thread.o [5]
  .bss                zero     0x2000850c      0x4  wwd_thread.o [5]
  .bss                zero     0x20008510      0x4  wwd_thread.o [5]
  .bss                zero     0x20008514      0x4  igmp.o [5]
  .bss                zero     0x20008518      0x4  igmp.o [5]
  .bss                zero     0x2000851c      0x4  igmp.o [5]
  .bss                zero     0x20008520      0x4  igmp.o [5]
  .bss                zero     0x20008524      0x4  lwiptcpip.o [5]
  .bss                zero     0x20008528      0x4  lwiptcpip.o [5]
  .bss                zero     0x2000852c      0x4  lwiptcpip.o [5]
  .bss                zero     0x20008530      0x4  smart_config.o [5]
  .bss                zero     0x20008534      0x4  smart_config.o [5]
  .bss                zero     0x20008538      0x4  smart_config.o [5]
  .bss                zero     0x2000853c      0x4  smart_config.o [5]
  .bss                zero     0x20008540      0x4  smart_config.o [5]
  .bss                zero     0x20008544      0x4  smart_config.o [5]
  .bss                zero     0x20008548      0x4  smart_config.o [5]
  .bss                zero     0x2000854c      0x4  smart_config.o [5]
  .bss                zero     0x20008550      0x4  smart_config.o [5]
  .bss                zero     0x20008554      0x4  smart_config.o [5]
  .bss                zero     0x20008558      0x4  smart_config.o [5]
  .bss                zero     0x2000855c      0x4  smart_config.o [5]
  .bss                zero     0x20008560      0x4  smart_config.o [5]
  .bss                zero     0x20008564      0x4  smart_config.o [5]
  .bss                zero     0x20008568      0x4  smart_config.o [5]
  .bss                zero     0x2000856c      0x4  smart_config.o [5]
  .bss                zero     0x20008570      0x4  smart_config.o [5]
  .bss                zero     0x20008574      0x4  smart_config.o [5]
  .bss                zero     0x20008578      0x4  smart_config.o [5]
  .bss                zero     0x2000857c      0x4  smart_config.o [5]
  .bss                zero     0x20008580      0x4  smart_config.o [5]
  .bss                zero     0x20008584      0x4  smart_config.o [5]
  .bss                zero     0x20008588      0x4  smart_config.o [5]
  .bss                zero     0x2000858c      0x4  smart_config.o [5]
  .bss                zero     0x20008590      0x4  wps_host.o [5]
  .bss                zero     0x20008594      0x4  wps_host.o [5]
  .bss                zero     0x20008598      0x4  dns.o [5]
  .bss                zero     0x2000859c      0x4  dns.o [5]
  .bss                zero     0x200085a0      0x4  tcp.o [5]
  .bss                zero     0x200085a4      0x4  tcp.o [5]
  .bss                zero     0x200085a8      0x4  tcp.o [5]
  .bss                zero     0x200085ac      0x4  tcp.o [5]
  .bss                zero     0x200085b0      0x4  tcp.o [5]
  .bss                zero     0x200085b4      0x4  tcp.o [5]
  .bss                zero     0x200085b8      0x4  tcp.o [5]
  .bss                zero     0x200085bc      0x4  tcp.o [5]
  .bss                zero     0x200085c0      0x4  wwd_wifi.o [5]
  .bss                zero     0x200085c4      0x4  wwd_wifi.o [5]
  .bss                zero     0x200085c8      0x4  wwd_wifi.o [5]
  .bss                zero     0x200085cc      0x4  wwd_wifi.o [5]
  .bss                zero     0x200085d0      0x4  wwd_wifi.o [5]
  .bss                zero     0x200085d4      0x4  wifi.o [5]
  .bss                zero     0x200085d8      0x4  wifi.o [5]
  .bss                zero     0x200085dc      0x4  wifi.o [5]
  .bss                zero     0x200085e0      0x4  wifi.o [5]
  .bss                zero     0x200085e4      0x4  wifi.o [5]
  .bss                zero     0x200085e8      0x4  tcp_in.o [5]
  .bss                zero     0x200085ec      0x4  tcp_in.o [5]
  .bss                zero     0x200085f0      0x4  tcp_in.o [5]
  .bss                zero     0x200085f4      0x4  tcp_in.o [5]
  .bss                zero     0x200085f8      0x4  tcp_in.o [5]
  .bss                zero     0x200085fc      0x4  tcp_in.o [5]
  .bss                zero     0x20008600      0x4  mxchip_debug.o [5]
  .bss                zero     0x20008604      0x4  mxchip_debug.o [5]
  .bss                zero     0x20008608      0x4  dnsclient.o [5]
  .bss                zero     0x2000860c      0x4  ip.o [5]
  .bss                zero     0x20008610      0x4  ip.o [5]
  .bss                zero     0x20008614      0x4  ip.o [5]
  .bss                zero     0x20008618      0x4  ip.o [5]
  .bss                zero     0x2000861c      0x4  ip.o [5]
  .bss                zero     0x20008620      0x4  udp.o [5]
  .bss                zero     0x20008624      0x4  udp.o [5]
  .bss                zero     0x20008628      0x4  wiced_network.o [5]
  .bss                zero     0x2000862c      0x4  wiced_network.o [5]
  .bss                zero     0x20008630      0x4  wwd_ap.o [5]
  .bss                zero     0x20008634      0x4  wwd_ap.o [5]
  .bss                zero     0x20008638      0x4  wwd_internal.o [5]
  .bss                zero     0x2000863c      0x4  logging.o [4]
  .bss                zero     0x20008640      0x4  logging.o [4]
  .bss                zero     0x20008644      0x4  netif.o [5]
  .bss                zero     0x20008648      0x4  netif.o [5]
  .bss                zero     0x2000864c      0x4  lwiptimers.o [5]
  .bss                zero     0x20008650      0x4  lwiptimers.o [5]
  .bss                zero     0x20008654      0x4  wiced_ping.o [5]
  .bss                zero     0x20008658      0x4  wc_port.o [4]
  .bss                zero     0x2000865c      0x4  raw.o [5]
  .bss                zero     0x20008660      0x4  dhcp.o [5]
  .bss                zero     0x20008664      0x4  xgetmemchunk.o [7]
  .bss                zero     0x20008668      0x2  wwd_sdpcm.o [5]
  .bss                zero     0x2000866a      0x2  tcp.o [5]
  .bss                zero     0x2000866c      0x2  tcp_in.o [5]
  .bss                zero     0x2000866e      0x2  ip.o [5]
  .bss                zero     0x20008670      0x2  wiced_network.o [5]
  .bss                zero     0x20008672      0x2  wiced_ping.o [5]
  .bss                zero     0x20008674      0x1  fog_v2.o [1]
  .bss                zero     0x20008675      0x1  printbuf.o [1]
  .bss                zero     0x20008676      0x1  temp_hum_sensor.o [1]
  .bss                zero     0x20008677      0x1  user_main.o [1]
  .bss                zero     0x20008678      0x1  wifimgr.o [5]
  .bss                zero     0x20008679      0x1  wifimgr.o [5]
  .bss                zero     0x2000867a      0x1  wifimgr.o [5]
  .bss                zero     0x2000867b      0x1  wwd_sdpcm.o [5]
  .bss                zero     0x2000867c      0x1  wwd_sdpcm.o [5]
  .bss                zero     0x2000867d      0x1  wwd_sdpcm.o [5]
  .bss                zero     0x2000867e      0x1  wwd_sdpcm.o [5]
  .bss                zero     0x2000867f      0x1  wwd_sdpcm.o [5]
  .bss                zero     0x20008680      0x1  wwd_sdpcm.o [5]
  .bss                zero     0x20008681      0x1  wwd_sdpcm.o [5]
  .bss                zero     0x20008682      0x1  wwd_thread.o [5]
  .bss                zero     0x20008683      0x1  wwd_thread.o [5]
  .bss                zero     0x20008684      0x1  wwd_thread.o [5]
  .bss                zero     0x20008685      0x1  pbuf.o [5]
  .bss                zero     0x20008686      0x1  smart_config.o [5]
  .bss                zero     0x20008687      0x1  smart_config.o [5]
  .bss                zero     0x20008688      0x1  smart_config.o [5]
  .bss                zero     0x20008689      0x1  smart_config.o [5]
  .bss                zero     0x2000868a      0x1  wps_host.o [5]
  .bss                zero     0x2000868b      0x1  wps_host.o [5]
  .bss                zero     0x2000868c      0x1  dns.o [5]
  .bss                zero     0x2000868d      0x1  dns.o [5]
  .bss                zero     0x2000868e      0x1  tcp.o [5]
  .bss                zero     0x2000868f      0x1  wwd_wifi.o [5]
  .bss                zero     0x20008690      0x1  wwd_wifi.o [5]
  .bss                zero     0x20008691      0x1  wifi.o [5]
  .bss                zero     0x20008692      0x1  tcp_in.o [5]
  .bss                zero     0x20008693      0x1  tcp_in.o [5]
  .bss                zero     0x20008694      0x1  etharp.o [5]
  .bss                zero     0x20008695      0x1  wiced_network.o [5]
  .bss                zero     0x20008696      0x1  wiced_network.o [5]
  .bss                zero     0x20008697      0x1  wwd_ap.o [5]
  .bss                zero     0x20008698      0x1  wwd_bus_protocol.o [5]
  .bss                zero     0x20008699      0x1  wwd_bus_protocol.o [5]
  .bss                zero     0x2000869a      0x1  wwd_chip_specific_functions.o [5]
  .bss                zero     0x2000869b      0x1  netif.o [5]
  .bss                zero     0x2000869c      0x1  dhcp.o [5]
  CSTACK                       0x200086a0    0x200  <Block>
    CSTACK            uninit   0x200086a0    0x200  <Block tail>
  HEAP                         0x200088a0  0x15000  <Block>
    HEAP              uninit   0x200088a0  0x15000  <Block tail>
                             - 0x2001d8a0  0x1d8a0


*******************************************************************************
*** INIT TABLE
***

          Address     Size
          -------     ----
Zero (__iar_zero_init3)
    1 destination range, total size 0x8071:
          0x2000062c  0x8071

Copy/lz77 (__iar_lz77_init3)
    1 source range, total size 0x1c5 (28% of destination):
          0x08075390   0x1c5
    1 destination range, total size 0x62a:
          0x20000000   0x62a



*******************************************************************************
*** MODULE SUMMARY
***

    Module                         ro code  ro data  rw data
    ------                         -------  -------  -------
E:\工作\stm32开发\WIFI\MX3165-MODBUS-1\Build\modbus\MiCOKit-3165\obj_EWARM: [1]
    APDS9930.o                       1 512        2        8
    CheckSumUtils.o                    120
    DHT11.o                            138
    HTTPUtils.o                      8 980
    MICOAppEntrance.o                2 460                 4
    MQTTClient.o                     1 968
    MQTTConnectClient.o                744
    MQTTDeserializePublish.o           248
    MQTTMiCO.o                       1 324
    MQTTPacket.o                       500                 4
    MQTTSerializePublish.o             112
    MQTTSubscribeClient.o              312
    Retarget.o                          20
    RingBufferUtils.o                  118
    SocketUtils.o                      916
    StringUtils.o                    2 458
    URLUtils.o                         362
    arraylist.o                        212
    bme280.o                         1 392                 4
    bme280_user.o                    1 232       20       68
    button.o                           208       57      200
    config_server.o                  6 688                28
    config_server_menu.o               388
    crt0_EWARM.o                        28
    dc_motor.o                          30
    fog_bonjour.o                    1 072
    fog_http_client.o                5 908    2 216       32
    fog_mqtt.o                       5 776                 4
    fog_ota.o                        9 200    2 542      148
    fog_process_mqtt_cmd.o           1 920
    fog_tcp_server.o                 4 172      177       24
    fog_v2.o                        23 724    1 737       21
    hardfault.o                        952
    heap_3.o                            84
    infrared_reflective.o               18
    json_object.o                    1 532       38        8
    json_tokener.o                   3 884        2        4
    json_util.o                        228
    light_sensor.o                      18
    linkhash.o                         856
    list.o                             144
    mico_cli.o                       4 132      580       88
    mico_config.o                                14       12
    mico_mdns.o                      4 128        9      160
    mico_platform_common.o           2 632                36
    mico_rtos.o                      2 464        4       16
    mico_rtos_common.o               1 056        5       32
    mico_socket.o                      156
    mico_system_init.o               1 524
    mico_system_monitor.o              792                40
    mico_system_notification.o         992                80
    mico_system_para_storage.o       3 580                 8
    mico_system_power_daemon.o         936                28
    micokit_ext.o                      312
    micokit_ext_mfg.o                   80                 8
    misc.o                             152
    oled.o                           2 528
    platform.o                         372      888      124
    platform_adc.o                     500
    platform_core.o                     32
    platform_flash.o                 3 124                12
    platform_gpio.o                  1 484               192
    platform_i2c.o                   1 904
    platform_init.o                    344                88
    platform_mcu_powersave.o           780                 4
    platform_nsclock.o                 246                20
    platform_rtc.o                     316        2        8
    platform_spi.o                   1 432                 1
    platform_uart.o                  1 864
    platform_watchdog.o                720                20
    port.o                             228        1        4
    portasm.o                          168
    printbuf.o                         326                 1
    qc_test.o                          980                16
    qc_test_cli.o                      160                64
    qc_test_tcpip.o                    324
    queue.o                          1 556
    rgb_led.o                          152
    spi_flash.o                      1 152
    spi_flash_platform.o                48
    startup_stm32f411xe_IAR.o          626
    stm32f4xx_adc.o                    284
    stm32f4xx_dma.o                    456
    stm32f4xx_exti.o                   124
    stm32f4xx_flash.o                  604
    stm32f4xx_gpio.o                   154
    stm32f4xx_i2c.o                    324
    stm32f4xx_iwdg.o                    52
    stm32f4xx_pwr.o                     96
    stm32f4xx_rcc.o                    560        4       16
    stm32f4xx_rtc.o                  1 470
    stm32f4xx_sdio.o                   100
    stm32f4xx_spi.o                    318
    stm32f4xx_syscfg.o                  40
    stm32f4xx_tim.o                    734
    stm32f4xx_usart.o                  490
    system_easylink.o                5 708                20
    system_easylink_delegate.o         152                16
    system_misc.o                    3 448
    tasks.o                          2 980               360
    temp_hum_sensor.o                   48                 1
    tftp_ota.o                       2 680                 4
    tftpc.o                          1 848
    timers.o                           796                60
    url.o                              956
    user_downstream.o                3 516
    user_main.o                      1 256                 1
    user_stack.o                       114
    user_uart.o                      1 364               272
    user_uart_data_process.o         5 992               324
    user_upstream.o                  1 636
    wlan_bus_SDIO.o                  2 240             2 072
    wlan_platform.o                      4
    wlan_platform_common.o             224                 4
    --------------------------------------------------------
    Total:                         177 028    8 298    4 769

command line: [2]
    --------------------------------------------------------
    Total:

Lib_MFi_WAC.Cortex-M4F.IAR.release.a: [3]
    --------------------------------------------------------
    Total:

Lib_wolfSSL.Cortex-M4F.IAR.release.a: [4]
    aes.o                            8 800    5 256
    arc4.o                             134
    asn.o                           10 876      643       80
    coding.o                           500
    crypto_wrap.o                      140
    ecc.o                            6 156    3 700
    hash.o                             776
    hc128.o                          3 968
    hmac.o                             822
    integer.o                        9 088       93        4
    internal.o                      32 488      492       84
    io.o                               552
    keys.o                           2 444
    logging.o                          220                 8
    md5.o                            2 028
    random.o                         1 888
    rsa.o                              948
    sha.o                            3 236
    sha256.o                         1 780
    sha512.o                         9 448
    ssl.o                            9 008                 8
    ssl_wrap.o                         432        6       24
    tls.o                            1 572
    wc_port.o                           60                 4
    --------------------------------------------------------
    Total:                         107 364   10 190      212

MiCO.1062.SDIO.Cortex-M4.IAR.a: [5]
    api_lib.o                        1 608
    api_msg.o                        3 848
    def.o                               54
    dhcp.o                           3 924                57
    dhcp_server.o                    1 616      132      132
    dlmalloc.o                       9 712               496
    dns.o                            2 024      272    1 654
    dns_redirect.o                     492       24
    dnsclient.o                        100                44
    etharp.o                         2 528      172      161
    iar_mutex.o                         28
    icmp.o                             388
    igmp.o                           1 384                16
    inet_chksum.o                      368
    init.o                              32
    ip.o                             1 112                22
    ip_addr.o                          602        8       16
    lwiptcpip.o                        772       16       12
    lwiptimers.o                       768                 8
    memp.o                             488      402   21 500
    mftest.o                           936      390      164
    mxchipWNET.o                     1 130       76       28
    mxchip_debug.o                      20                 8
    mxchipbesl.o                        12
    netbuf.o                           218
    netdb.o                            100                40
    netif.o                            856                77
    netifapi.o                          72
    pbuf.o                           1 474                 1
    raw.o                              460                 4
    read_wifi_firmware.o                24
    smart_config.o                  11 028    1 513    2 301
    sockets.o                        6 432      236      492
    sys.o                               40
    sys_arch.o                         486
    tcp.o                            3 712       30       55
    tcp_in.o                         6 672      268       48
    tcp_out.o                        3 262
    tcpip.o                          1 700
    udp.o                            2 060      160        8
    wiced_lib.o                        140       12
    wiced_network.o                  1 028       29      336
    wiced_ping.o                       400                46
    wiced_rtos.o                       204
    wifi.o                           1 104       49       33
    wifimgr.o                        9 764    2 420      543
    wps_host.o                          76                10
    wwd_ap.o                         1 498       67       17
    wwd_ap_common.o                     96       44
    wwd_buffer.o                       244
    wwd_bus_protocol.o               2 440                 2
    wwd_chip_specific_functions.o      188                 1
    wwd_firmware.o                     756      781        4
    wwd_internal.o                     608       16       16
    wwd_management.o                   624       40        8
    wwd_network.o                      400        8
    wwd_rtos.o                          88
    wwd_sdpcm.o                      3 388      189      105
    wwd_thread.o                       644       12       19
    wwd_wifi.o                       5 568      476       22
    --------------------------------------------------------
    Total:                         101 800    7 842   28 506

MiCODriverMFiAuth.a: [6]
    --------------------------------------------------------
    Total:

dl7M_tlf.a: [7]
    XShHandles.o                       224               128
    abort.o                              6
    div.o                               14
    errno.o                             12        1        4
    exit.o                               4
    fclose.o                           122
    fflush.o                           176
    fputc.o                             86
    fseek.o                             34
    isxxx.o                             60
    localeconv.o                       108       39      136
    printf.o                            36
    putchar.o                           12
    rand.o                             224       41      140
    setlocale.o                         36       33      116
    snprintf.o                          68
    sprintf.o                           52
    srand.o                             32
    sscanf.o                            36
    strcasecmp.o                        70
    strdup.o                            24
    strncasecmp.o                       78
    strncmp.o                           42
    strnlen.o                           22
    strrchr.o                           24
    strstr.o                            44
    strtoul.o                            4
    tolower.o                           20
    toupper.o                           24
    vprintf.o                           24
    vsnprint.o                          60
    vsprintf.o                          44
    xcloseall.o                         88
    xencoding_sb.o                      96
    xfgpos.o                            12
    xfiles.o                                     65      384
    xfofind.o                          124
    xfspos.o                           214
    xfwprep.o                          182
    xgetmemchunk.o                      44                 4
    xlocale_c.o                         90
    xmbcurmax.o                         10
    xmbtowc.o                           32
    xprintffull.o                    4 430
    xprout.o                            22
    xscanffull.o                     3 316
    xsnprout.o                          26
    xsprout.o                           10
    xsscin.o                            30
    xstoflt.o                          440
    xstoll.o                           164
    xstopfx.o                          308
    xstoul.o                           408
    xstoull.o                          432
    xstoxflt.o                         536
    xsyslock.o                          32
    xsyslock_mtx.o                     348                56
    xtls.o                               2
    xwctob.o                            64
    xwctomb.o                           26
    --------------------------------------------------------
    Total:                          13 308      179      968

libairkiss.a: [8]
    --------------------------------------------------------
    Total:

m7M_tls.a: [9]
    DblAdd.o                           232
    DblCmpEq.o                          32
    DblCmpGe.o                          46
    DblCmpLe.o                          46
    DblDiv.o                           582
    DblMul.o                           418
    DblSub.o                           384
    DblToFlt.o                         144
    DblToI32.o                          88
    I32ToDbl.o                          48
    fpinit_M.o                          34
    xdnorm.o                            66
    xdscale.o                          280
    xdtento.o                          512
    xdunscal.o                          86
    xstold.o                           360
    --------------------------------------------------------
    Total:                           3 358

rt7M_tl.a: [10]
    ABImemclr.o                          6
    ABImemclr4.o                         6
    ABImemcpy_unaligned.o              118
    ABImemmove_unaligned.o             120
    ABImemset.o                        102
    ABImemset48.o                       58
    I64DivMod.o                        238
    I64DivZer.o                          2
    I64Shl.o                            34
    U64Shr.o                            30
    cexit.o                             18
    cmain.o                             26
    cstart_clearlocks.o
    cstart_closeall.o
    cstartup_M.o                        12
    data_init.o                         40
    lz77_init.o                        450
    memchr.o                            88
    memcmp_unaligned.o                  98
    strchr.o                            22
    strcmp_unaligned.o                  66
    strcpy_unaligned.o                  68
    strlen.o                            54
    strncpy_unaligned.o                108
    zero_init3.o                        34
    --------------------------------------------------------
    Total:                           1 798

shb_l.a: [11]
    close.o                             26
    exit.o                              20
    lseek.o                             76
    remove.o                            22
    --------------------------------------------------------
    Total:                             144

    Gaps                                82       10        6
    Linker created                               44   86 528
------------------------------------------------------------
    Grand Total:                   404 882   26 563  120 989


*******************************************************************************
*** ENTRY LIST
***

Entry                      Address    Size  Type      Object
-----                      -------    ----  ----      ------
.intvec$$Base           0x0800c000           --   Gb  - Linker created -
.intvec$$Limit          0x0800c198           --   Gb  - Linker created -
?main                   0x080745d9          Code  Gb  cmain.o [10]
ADC_Cmd                 0x0805aadd    0x12  Code  Gb  stm32f4xx_adc.o [1]
ADC_CommonInit          0x0805aab5    0x1c  Code  Gb  stm32f4xx_adc.o [1]
ADC_CommonStructInit    0x0805aad1     0xc  Code  Gb  stm32f4xx_adc.o [1]
ADC_Init                0x0805aa61    0x40  Code  Gb  stm32f4xx_adc.o [1]
ADC_RegularChannelConfig
                        0x0805aaef    0x7e  Code  Gb  stm32f4xx_adc.o [1]
ADC_StructInit          0x0805aaa1    0x14  Code  Gb  stm32f4xx_adc.o [1]
APBAHBPrescTable        0x20000534    0x10  Data  Lc  stm32f4xx_rcc.o [1]
APDS9930_I2C_bus_read   0x0804d5f1    0xbc  Code  Gb  APDS9930.o [1]
APDS9930_I2C_bus_write  0x0804d511    0xe0  Code  Gb  APDS9930.o [1]
AddCA                   0x0801490f   0x1c8  Code  Gb  ssl.o [4]
AddFragHeaders          0x0800d16d    0x2e  Code  Lc  internal.o [4]
AddHandShakeHeader      0x0800d135    0x12  Code  Lc  internal.o [4]
AddHeaders              0x0800d147    0x26  Code  Lc  internal.o [4]
AddLength               0x080192b7    0x12  Code  Lc  md5.o [4]
AddLength               0x08019f57    0x12  Code  Lc  sha.o [4]
AddLength               0x0801a547    0x12  Code  Lc  sha256.o [4]
AddLength               0x0801ae17     0x4  Code  Lc  sha512.o [4]
AddLength384            0x0801c8bd     0x2  Code  Lc  sha512.o [4]
AddRecordHeader         0x0800d10b    0x2a  Code  Lc  internal.o [4]
AesCbcEncrypt           0x08047deb     0x4  Code  Gb  crypto_wrap.o [4]
AesSetKey               0x08047ddd     0xe  Code  Gb  crypto_wrap.o [4]
Airkiss_stop            0x08044a23     0x8  Code  Gb  smart_config.o [5]
Airkiss_success         0x08043ba5    0xa8  Code  Lc  smart_config.o [5]
AllocDer                0x080146ad    0x6e  Code  Gb  ssl.o [4]
AlreadySigner           0x0801484b    0x28  Code  Gb  ssl.o [4]
ApListAdvCallback       0x08026e1b    0x1a  Code  Gb  mico_system_notification.o [1]
ApListCallback          0x08026e01    0x1a  Code  Gb  mico_system_notification.o [1]
Arc4Process             0x08047e21     0x4  Code  Gb  crypto_wrap.o [4]
Arc4SetKey              0x08047e1d     0x4  Code  Gb  crypto_wrap.o [4]
BEGIN_CERT              0x200005d4     0x4  Data  Gb  asn.o [4]
BEGIN_CERT_REQ          0x200005dc     0x4  Data  Gb  asn.o [4]
BEGIN_DH_PARAM          0x200005e4     0x4  Data  Gb  asn.o [4]
BEGIN_DSA_PRIV          0x20000614     0x4  Data  Gb  asn.o [4]
BEGIN_EC_PRIV           0x2000060c     0x4  Data  Gb  asn.o [4]
BEGIN_ENC_PRIV_KEY      0x20000604     0x4  Data  Gb  asn.o [4]
BEGIN_PRIV_KEY          0x200005fc     0x4  Data  Gb  asn.o [4]
BEGIN_PUB_KEY           0x2000061c     0x4  Data  Gb  asn.o [4]
BEGIN_RSA_PRIV          0x200005f4     0x4  Data  Gb  asn.o [4]
BEGIN_X509_CRL          0x200005ec     0x4  Data  Gb  asn.o [4]
BME280_I2C_bus_read     0x08060ef9    0x3c  Code  Gb  bme280_user.o [1]
BME280_I2C_bus_write    0x08060ea9    0x50  Code  Gb  bme280_user.o [1]
BME280_delay_msek       0x08060f35     0x4  Code  Gb  bme280_user.o [1]
Base64_Decode           0x080244e1   0x13a  Code  Gb  coding.o [4]
BonjourNotify_SYSWillPoerOffHandler
                        0x080625fd    0x18  Code  Gb  mico_mdns.o [1]
BonjourNotify_WifiStatusHandler
                        0x080625cd    0x30  Code  Gb  mico_mdns.o [1]
BuildCertHashes         0x08010155   0x12a  Code  Lc  internal.o [4]
BuildFinished           0x0800d6cf    0xe6  Code  Lc  internal.o [4]
BuildMessage            0x0801037b   0x198  Code  Gb  internal.o [4]
BuildTlsFinished        0x0801d64d    0xa4  Code  Gb  tls.o [4]
BytePrecision           0x0801ec5b    0x14  Code  Lc  asn.o [4]
ByteReverseWord32       0x080204ed    0x14  Code  Lc  aes.o [4]
ByteReverseWord32       0x0801a7b9    0x14  Code  Lc  sha512.o [4]
ByteReverseWord32       0x0801cca1    0x14  Code  Lc  random.o [4]
ByteReverseWords        0x080193cd    0x30  Code  Lc  sha.o [4]
ByteReverseWords        0x0801a06d    0x2a  Code  Lc  sha256.o [4]
ByteReverseWords64      0x08020501    0x36  Code  Lc  aes.o [4]
ByteReverseWords64      0x0801a7f3    0x36  Code  Lc  sha512.o [4]
CFG_PRIO_BITS           0x08074df0     0x4  Data  Gb  mico_config.o [1]
CRC16_Final             0x0802fe01    0x1c  Code  Gb  CheckSumUtils.o [1]
CRC16_Init              0x0802fdc5     0x6  Code  Gb  CheckSumUtils.o [1]
CRC16_Update            0x0802fdcb    0x36  Code  Gb  CheckSumUtils.o [1]
CRC8Table               0x080732f0   0x100  Data  Lc  smart_config.o [5]
CSTACK$$Base            0x200086a0           --   Gb  - Linker created -
CSTACK$$Limit           0x200088a0           --   Gb  - Linker created -
CaptureNumber           0x20008364     0x4  Data  Lc  platform_watchdog.o [1]
CheckAvailableSize      0x0800d4c5    0x34  Code  Gb  internal.o [4]
CheckCurve              0x0801e4bd    0x22  Code  Lc  asn.o [4]
CheckCurveId            0x0801182b    0x3c  Code  Lc  internal.o [4]
CheckNetLink            0x0802d529    0x6a  Code  Gb  mxchipWNET.o [5]
CipherRequires          0x0800d7c3   0x19a  Code  Lc  internal.o [4]
CleanPreMaster          0x08023e7f    0x40  Code  Lc  keys.o [4]
CloseAirkiss            0x0802d619     0xa  Code  Gb  mxchipWNET.o [5]
CloseEasylink           0x0802d605     0xa  Code  Gb  mxchipWNET.o [5]
CloseEasylink2          0x0802d60f     0xa  Code  Gb  mxchipWNET.o [5]
ConfirmNameConstraints  0x0801f169   0x14e  Code  Lc  asn.o [4]
ConfirmSignature        0x0801eded   0x1b2  Code  Lc  asn.o [4]
ConnectNetwork          0x080660c3   0x11c  Code  Gb  MQTTMiCO.o [1]
ConstantCompare         0x0800c1a3    0x1a  Code  Lc  internal.o [4]
ConstantCompare         0x0801ccbf    0x1a  Code  Lc  random.o [4]
CreateSimpleHTTPMessageNoCopy
                        0x0806481d   0x124  Code  Gb  HTTPUtils.o [1]
CreateSimpleHTTPOKMessage
                        0x0806477b    0x84  Code  Gb  HTTPUtils.o [1]
DHT11_Check             0x08061379    0x56  Code  Gb  DHT11.o [1]
DHT11_Init              0x080613cf    0x34  Code  Gb  DHT11.o [1]
DMA1_Stream5_IRQHandler
                        0x0802485f     0x6  Code  Gb  platform.o [1]
DMA1_Stream6_IRQHandler
                        0x08024853     0x6  Code  Gb  platform.o [1]
DMA2_Stream2_IRQHandler
                        0x08024865     0x6  Code  Gb  platform.o [1]
DMA2_Stream3_IRQHandler
                        0x0805cddf     0x2  Code  Gb  wlan_bus_SDIO.o [1]
DMA2_Stream7_IRQHandler
                        0x08024859     0x6  Code  Gb  platform.o [1]
DMA_Cmd                 0x0803ddbb    0x12  Code  Gb  stm32f4xx_dma.o [1]
DMA_DeInit              0x0803dc89    0xe0  Code  Gb  stm32f4xx_dma.o [1]
DMA_ITConfig            0x0803ddcd    0x2c  Code  Gb  stm32f4xx_dma.o [1]
DMA_Init                0x0803dd69    0x52  Code  Gb  stm32f4xx_dma.o [1]
DataToHexStringWithSpaces
                        0x08046957    0x72  Code  Gb  StringUtils.o [1]
DecodeAltNames          0x0801f2cb   0x12c  Code  Lc  asn.o [4]
DecodeAuthKeyId         0x0801f5d7    0x7a  Code  Lc  asn.o [4]
DecodeCertExtensions    0x0801f807   0x3a0  Code  Lc  asn.o [4]
DecodeCrlDist           0x0801f4ad    0xa6  Code  Lc  asn.o [4]
DecodeECC_DSA_Sig       0x08020191    0x4a  Code  Gb  asn.o [4]
DecodeSubjKeyId         0x0801f6bd    0x62  Code  Lc  asn.o [4]
DecodeSubtree           0x0801f741    0xa6  Code  Lc  asn.o [4]
DecodeToKey             0x0801eb3d    0xc8  Code  Gb  asn.o [4]
Decrypt                 0x0800f399    0xfe  Code  Lc  internal.o [4]
DeriveKeys              0x08023da1    0xde  Code  Gb  keys.o [4]
DeriveTlsKeys           0x0801d731    0x4e  Code  Gb  tls.o [4]
DoAlert                 0x0800f7c1    0x82  Code  Lc  internal.o [4]
DoApplicationData       0x0800f6f5    0x72  Code  Gb  internal.o [4]
DoCertificate           0x0800da3b   0x52e  Code  Lc  internal.o [4]
DoCertificateRequest    0x08011709   0x10a  Code  Lc  internal.o [4]
DoCertificateVerify     0x080136a9   0x1f2  Code  Lc  internal.o [4]
DoClientHello           0x080131c1   0x374  Code  Lc  internal.o [4]
DoClientKeyExchange     0x0801399d   0x512  Code  Lc  internal.o [4]
DoFinished              0x0800e3a9    0x90  Code  Gb  internal.o [4]
DoHandShakeMsg          0x0800f0d5   0x11e  Code  Lc  internal.o [4]
DoHandShakeMsgType      0x0800eb61   0x2ac  Code  Lc  internal.o [4]
DoHelloRequest          0x0800e34f    0x46  Code  Lc  internal.o [4]
DoHelloVerifyRequest    0x08011367    0x54  Code  Lc  internal.o [4]
DoKey                   0x080234eb    0x38  Code  Lc  hc128.o [4]
DoProcess               0x08023563    0xce  Code  Lc  hc128.o [4]
DoRounds                0x0800f4f5    0xa8  Code  Lc  internal.o [4]
DoServerHello           0x080113c1   0x202  Code  Lc  internal.o [4]
DoServerKeyExchange     0x08011867   0x50c  Code  Lc  internal.o [4]
END_CERT                0x200005d8     0x4  Data  Gb  asn.o [4]
END_CERT_REQ            0x200005e0     0x4  Data  Gb  asn.o [4]
END_DH_PARAM            0x200005e8     0x4  Data  Gb  asn.o [4]
END_DSA_PRIV            0x20000618     0x4  Data  Gb  asn.o [4]
END_EC_PRIV             0x20000610     0x4  Data  Gb  asn.o [4]
END_ENC_PRIV_KEY        0x20000608     0x4  Data  Gb  asn.o [4]
END_PRIV_KEY            0x20000600     0x4  Data  Gb  asn.o [4]
END_PUB_KEY             0x20000620     0x4  Data  Gb  asn.o [4]
END_RSA_PRIV            0x200005f8     0x4  Data  Gb  asn.o [4]
END_X509_CRL            0x200005f0     0x4  Data  Gb  asn.o [4]
EXTI0_IRQHandler        0x0802b839     0x2  Code  Gb  platform_gpio.o [1]
EXTI15_10_IRQHandler    0x0802b845     0x2  Code  Gb  platform_gpio.o [1]
EXTI1_IRQHandler        0x0802b83b     0x2  Code  Gb  platform_gpio.o [1]
EXTI2_IRQHandler        0x0802b83d     0x2  Code  Gb  platform_gpio.o [1]
EXTI3_IRQHandler        0x0802b83f     0x2  Code  Gb  platform_gpio.o [1]
EXTI4_IRQHandler        0x0802b841     0x2  Code  Gb  platform_gpio.o [1]
EXTI9_5_IRQHandler      0x0802b843     0x2  Code  Gb  platform_gpio.o [1]
EXTI_ClearITPendingBit  0x0803da8b     0x2  Code  Gb  stm32f4xx_exti.o [1]
EXTI_Init               0x0803da21    0x6a  Code  Gb  stm32f4xx_exti.o [1]
EasyLinkNotify_EasyLinkCompleteHandler
                        0x08055871   0x1bc  Code  Lc  system_easylink.o [1]
EasyLinkNotify_EasyLinkGetExtraDataHandler
                        0x08055b01   0x348  Code  Lc  system_easylink.o [1]
EasyLinkNotify_WifiStatusHandler
                        0x080556c9   0x100  Code  Lc  system_easylink.o [1]
EccMakeTempKey          0x0800c97b    0x22  Code  Gb  internal.o [4]
EccSharedSecret         0x0800c96b    0x10  Code  Gb  internal.o [4]
EccSign                 0x0800c92f    0x14  Code  Gb  internal.o [4]
EccVerify               0x0800c943    0x1c  Code  Gb  internal.o [4]
EmbedReceive            0x08072d31    0xaa  Code  Gb  io.o [4]
EmbedSend               0x08072ddb    0x74  Code  Gb  io.o [4]
Encrypt                 0x0800f269    0xee  Code  Lc  internal.o [4]
F8X16                   0x0804cf08   0x5f0  Data  Gb  oled.o [1]
FLASH_ClearFlag         0x0802b0f5     0x6  Code  Gb  stm32f4xx_flash.o [1]
FLASH_EraseSector       0x0802af7f    0x68  Code  Gb  stm32f4xx_flash.o [1]
FLASH_GetStatus         0x0802b0fb    0x38  Code  Gb  stm32f4xx_flash.o [1]
FLASH_PrefetchBufferCmd
                        0x0802af51    0x16  Code  Gb  stm32f4xx_flash.o [1]
FLASH_ProgramByte       0x0802b021    0xd4  Code  Gb  stm32f4xx_flash.o [1]
FLASH_ProgramWord       0x0802afe7    0x3a  Code  Gb  stm32f4xx_flash.o [1]
FLASH_SetLatency        0x0802af49     0x8  Code  Gb  stm32f4xx_flash.o [1]
FLASH_Unlock            0x0802af67    0x18  Code  Gb  stm32f4xx_flash.o [1]
FLASH_WaitForLastOperation
                        0x0802b133    0x5a  Code  Gb  stm32f4xx_flash.o [1]
FOTA_WifiStatusHandler  0x080671f9    0x12  Code  Lc  tftp_ota.o [1]
ForceZero               0x0801d401     0xa  Code  Lc  tls.o [4]
ForceZero               0x0801a829     0xa  Code  Lc  sha512.o [4]
ForceZero               0x0800c199     0xa  Code  Lc  internal.o [4]
ForceZero               0x0801ccb5     0xa  Code  Lc  random.o [4]
FreeAltNames            0x0801e36d     0x4  Code  Gb  asn.o [4]
FreeArrays              0x0800ce79    0x48  Code  Gb  internal.o [4]
FreeCiphers             0x0800c433    0x1c  Code  Gb  internal.o [4]
FreeDecodedCert         0x0801e38b    0x58  Code  Gb  asn.o [4]
FreeDer                 0x0801471b    0x2e  Code  Gb  ssl.o [4]
FreeHandshakeResources  0x0800cfb9    0xd2  Code  Gb  internal.o [4]
FreeKeyExchange         0x0800cec1    0x3e  Code  Lc  internal.o [4]
FreeMutex               0x080140e7     0xa  Code  Gb  wc_port.o [4]
FreeNameSubtrees        0x0801e371     0x2  Code  Gb  asn.o [4]
FreeSSL                 0x0800d08b    0x14  Code  Gb  internal.o [4]
FreeSSL_Ctx             0x0800c34d    0x66  Code  Gb  internal.o [4]
FreeSigner              0x08020089    0x30  Code  Gb  asn.o [4]
FreeSignerTable         0x080200b9    0x30  Code  Gb  asn.o [4]
GHASH                   0x080223c9   0x11c  Code  Lc  aes.o [4]
GMULT                   0x08022301    0xc8  Code  Lc  aes.o [4]
GPIO_Init               0x0803d95d    0x72  Code  Gb  stm32f4xx_gpio.o [1]
GPIO_PinAFConfig        0x0803d9cf    0x28  Code  Gb  stm32f4xx_gpio.o [1]
GetAlgoId               0x0801e039    0x74  Code  Gb  asn.o [4]
GetCA                   0x08014873    0x28  Code  Gb  ssl.o [4]
GetCAByName             0x080148c9    0x46  Code  Gb  ssl.o [4]
GetCertHeader           0x0801e3e3    0xc6  Code  Lc  asn.o [4]
GetDate                 0x0801ea95    0xa8  Code  Lc  asn.o [4]
GetHandShakeHeader      0x0800d6a9    0x26  Code  Lc  internal.o [4]
GetInputData            0x0800f865    0xde  Code  Lc  internal.o [4]
GetInt                  0x0801dbb5    0x70  Code  Gb  asn.o [4]
GetKey                  0x0801e4f9   0x144  Code  Lc  asn.o [4]
GetLSIFrequency         0x0803e4ab    0xf4  Code  Lc  platform_watchdog.o [1]
GetLength               0x0801da39    0x70  Code  Gb  asn.o [4]
GetMyVersion            0x0801db6b    0x3a  Code  Gb  asn.o [4]
GetName                 0x0801e655   0x340  Code  Lc  asn.o [4]
GetObjectId             0x0801df6d    0xa8  Code  Gb  asn.o [4]
GetRecordHeader         0x0800d52d    0xbc  Code  Lc  internal.o [4]
GetSEQIncrement         0x0800f24d    0x1c  Code  Lc  internal.o [4]
GetSequence             0x0801db0d    0x1c  Code  Gb  asn.o [4]
GetSession              0x08016345     0x4  Code  Gb  ssl.o [4]
GetSet                  0x0801db29    0x1c  Code  Gb  asn.o [4]
GrowInputBuffer         0x0800d3dd    0xa0  Code  Gb  internal.o [4]
GrowOutputBuffer        0x0800d345    0x80  Code  Lc  internal.o [4]
HEAP$$Base              0x200088a0           --   Gb  - Linker created -
HEAP$$Limit             0x2001d8a0           --   Gb  - Linker created -
HTTPGetHeaderField      0x08064385   0x116  Code  Gb  HTTPUtils.o [1]
HTTPHeaderClear         0x08064691    0xca  Code  Gb  HTTPUtils.o [1]
HTTPHeaderCreateWithCallback
                        0x080644db    0xe0  Code  Gb  HTTPUtils.o [1]
HTTPHeaderDestory       0x0806475b    0x20  Code  Gb  HTTPUtils.o [1]
HTTPHeaderMatchURL      0x080644c7     0xc  Code  Gb  HTTPUtils.o [1]
HTTPHeaderParse         0x08063e9d   0x414  Code  Gb  HTTPUtils.o [1]
HTTPScanFHeaderValue    0x0806449b    0x2c  Code  Gb  HTTPUtils.o [1]
HashOutput              0x0800d0b3    0x10  Code  Lc  internal.o [4]
HashOutputRaw           0x0800d0a7     0xc  Code  Lc  internal.o [4]
HashSigner              0x08014829    0x22  Code  Lc  ssl.o [4]
Hash_DRBG_Generate      0x0801cf03    0x8c  Code  Lc  random.o [4]
Hash_DRBG_Instantiate   0x0801cfa5    0x4c  Code  Lc  random.o [4]
Hash_DRBG_Reseed        0x0801cda3    0x52  Code  Lc  random.o [4]
Hash_DRBG_Uninstantiate
                        0x0801d00b    0x22  Code  Lc  random.o [4]
Hash_df                 0x0801ccd9    0xca  Code  Lc  random.o [4]
Hash_gen                0x0801cdf5    0xcc  Code  Lc  random.o [4]
Hc128_SetIV             0x0802338b   0x100  Code  Lc  hc128.o [4]
HmacKeyInnerHash        0x080297cd    0x5e  Code  Lc  hmac.o [4]
I2C_AcknowledgeConfig   0x0805ac89    0x14  Code  Gb  stm32f4xx_i2c.o [1]
I2C_CheckEvent          0x0805aca7    0x1a  Code  Gb  stm32f4xx_i2c.o [1]
I2C_Cmd                 0x0805ac3d    0x14  Code  Gb  stm32f4xx_i2c.o [1]
I2C_GenerateSTART       0x0805ac51    0x14  Code  Gb  stm32f4xx_i2c.o [1]
I2C_GenerateSTOP        0x0805ac65    0x14  Code  Gb  stm32f4xx_i2c.o [1]
I2C_Init                0x0805ab7d    0xb4  Code  Gb  stm32f4xx_i2c.o [1]
I2C_ReceiveData         0x0805aca1     0x6  Code  Gb  stm32f4xx_i2c.o [1]
I2C_Send7bitAddress     0x0805ac79    0x10  Code  Gb  stm32f4xx_i2c.o [1]
I2C_SendData            0x0805ac9d     0x4  Code  Gb  stm32f4xx_i2c.o [1]
IWDG_Enable             0x0805a769     0xa  Code  Gb  stm32f4xx_iwdg.o [1]
IWDG_ReloadCounter      0x0805a75f     0xa  Code  Gb  stm32f4xx_iwdg.o [1]
IWDG_SetPrescaler       0x0805a753     0x6  Code  Gb  stm32f4xx_iwdg.o [1]
IWDG_SetReload          0x0805a759     0x6  Code  Gb  stm32f4xx_iwdg.o [1]
IWDG_WriteAccessCmd     0x0805a74d     0x6  Code  Gb  stm32f4xx_iwdg.o [1]
InStream_Read           0x0807312d    0x22  Code  Lc  lz77_init.o [10]
IncrementGcmCounter     0x080222a9    0x14  Code  Lc  aes.o [4]
InitCipherSpecs         0x0800c44f    0x1a  Code  Gb  internal.o [4]
InitCiphers             0x0800c421    0x12  Code  Gb  internal.o [4]
InitDecodedCert         0x0801e2b1    0xbc  Code  Gb  asn.o [4]
InitMd5                 0x08047e47     0x4  Code  Gb  crypto_wrap.o [4]
InitMutex               0x080140dd     0xa  Code  Gb  wc_port.o [4]
InitSSL                 0x0800ccc1   0x14c  Code  Gb  internal.o [4]
InitSSL_Ctx             0x0800c25d    0x8a  Code  Gb  internal.o [4]
InitSSL_Method          0x0800c249    0x14  Code  Gb  internal.o [4]
InitSuites              0x0800c4eb   0x2dc  Code  Gb  internal.o [4]
InitSuitesHashSigAlgo   0x0800c469    0x82  Code  Lc  internal.o [4]
InitTimer               0x08065dbb     0xa  Code  Gb  MQTTMiCO.o [1]
IsAtLeastTLSv1_2        0x0800c1dd    0x24  Code  Gb  internal.o [4]
IsEncryptionOn          0x0800c201     0x6  Code  Lc  internal.o [4]
IsTLS                   0x0800c1c7    0x16  Code  Gb  internal.o [4]
K                       0x0801a65c   0x100  Data  Lc  sha256.o [4]
K512                    0x0801ca20   0x280  Data  Lc  sha512.o [4]
LoadInt                 0x0802a1f9    0x6e  Code  Lc  xprintffull.o [7]
LockMutex               0x080140f1     0xa  Code  Gb  wc_port.o [4]
LsiFreq                 0x20008478     0x4  Data  Lc  platform_watchdog.o [1]
MICOReadConfiguration   0x08034a41   0x5f6  Code  Gb  mico_system_para_storage.o [1]
MICOStartSystemMonitor  0x08056d15    0xbe  Code  Gb  mico_system_monitor.o [1]
MICO_disconnect         0x08065f47    0x28  Code  Gb  MQTTMiCO.o [1]
MICO_read               0x08065dc5    0xb8  Code  Gb  MQTTMiCO.o [1]
MICO_write              0x08065e83    0xc4  Code  Gb  MQTTMiCO.o [1]
MQTTClientDeinit        0x08065659    0x32  Code  Gb  MQTTClient.o [1]
MQTTClientInit          0x080655d9    0x80  Code  Gb  MQTTClient.o [1]
MQTTClientLibVersion    0x08065cd5     0x6  Code  Gb  MQTTClient.o [1]
MQTTConnect             0x08065a61    0xbe  Code  Gb  MQTTClient.o [1]
MQTTDeserialize_ack     0x08069f8d    0x56  Code  Gb  MQTTDeserializePublish.o [1]
MQTTDeserialize_connack
                        0x08069df1    0x6e  Code  Gb  MQTTConnectClient.o [1]
MQTTDeserialize_publish
                        0x08069ef5    0x98  Code  Gb  MQTTDeserializePublish.o [1]
MQTTDeserialize_suback  0x0806a10b    0x82  Code  Gb  MQTTSubscribeClient.o [1]
MQTTDisconnect          0x08065c99    0x3c  Code  Gb  MQTTClient.o [1]
MQTTPacket_decode       0x08069a3f    0x3a  Code  Gb  MQTTPacket.o [1]
MQTTPacket_decodeBuf    0x08069ab9     0x8  Code  Gb  MQTTPacket.o [1]
MQTTPacket_encode       0x08069a19    0x26  Code  Gb  MQTTPacket.o [1]
MQTTPacket_equals       0x08069bd7    0x36  Code  Gb  MQTTPacket.o [1]
MQTTPacket_len          0x08069a79    0x22  Code  Gb  MQTTPacket.o [1]
MQTTSerialize_ack       0x08069fed    0x6a  Code  Gb  MQTTSerializePublish.o [1]
MQTTSerialize_connect   0x08069c89   0x168  Code  Gb  MQTTConnectClient.o [1]
MQTTSerialize_connectLength
                        0x08069c0d    0x7c  Code  Gb  MQTTConnectClient.o [1]
MQTTSerialize_disconnect
                        0x08069e5f    0x2a  Code  Gb  MQTTConnectClient.o [1]
MQTTSerialize_pingreq   0x08069ea3    0x2a  Code  Gb  MQTTConnectClient.o [1]
MQTTSerialize_subscribe
                        0x0806a07b    0x90  Code  Gb  MQTTSubscribeClient.o [1]
MQTTSerialize_subscribeLength
                        0x0806a05d    0x1e  Code  Gb  MQTTSubscribeClient.o [1]
MQTTSubscribe           0x08065b1f   0x174  Code  Gb  MQTTClient.o [1]
MQTTYield               0x08065a31    0x30  Code  Gb  MQTTClient.o [1]
MQTTstrlen              0x08069bc9     0xe  Code  Gb  MQTTPacket.o [1]
MakeMasterSecret        0x08023faf    0x12  Code  Gb  keys.o [4]
MakeSigner              0x0802006b    0x1e  Code  Gb  asn.o [4]
MakeSslMasterSecret     0x08023ebf    0xda  Code  Lc  keys.o [4]
MakeTLSv1               0x0801d6f1     0xc  Code  Gb  tls.o [4]
MakeTLSv1_1             0x0801d6fd     0xa  Code  Gb  tls.o [4]
MakeTLSv1_2             0x0801d711     0xa  Code  Gb  tls.o [4]
MakeTlsMasterSecret     0x0801d7dd    0x40  Code  Gb  tls.o [4]
MatchBaseName           0x0801f0d1    0x84  Code  Lc  asn.o [4]
MatchDomainName         0x0800d9b9    0x82  Code  Lc  internal.o [4]
MatchSuite              0x080130c5    0xac  Code  Lc  internal.o [4]
Md5Final                0x08047e4f     0x4  Code  Gb  crypto_wrap.o [4]
Md5Update               0x08047e4b     0x4  Code  Gb  crypto_wrap.o [4]
MicoAdcInitialize       0x0802c6eb    0x16  Code  Gb  mico_platform_common.o [1]
MicoFlashErase          0x0802cc29    0x9c  Code  Gb  mico_platform_common.o [1]
MicoFlashGetInfo        0x0802cae3    0x68  Code  Gb  mico_platform_common.o [1]
MicoFlashInitialize     0x0802cb4b    0xde  Code  Lc  mico_platform_common.o [1]
MicoFlashRead           0x0802cd89    0xb0  Code  Gb  mico_platform_common.o [1]
MicoFlashWrite          0x0802ccc5    0xbc  Code  Gb  mico_platform_common.o [1]
MicoGpioEnableIRQ       0x0802c75d    0x20  Code  Gb  mico_platform_common.o [1]
MicoGpioInitialize      0x0802c701    0x12  Code  Gb  mico_platform_common.o [1]
MicoGpioOutputHigh      0x0802c713    0x12  Code  Gb  mico_platform_common.o [1]
MicoGpioOutputLow       0x0802c725    0x12  Code  Gb  mico_platform_common.o [1]
MicoGpioOutputTrigger   0x0802c737    0x12  Code  Gb  mico_platform_common.o [1]
MicoI2cBuildCombinedMessage
                        0x0802c8b5    0x10  Code  Gb  mico_platform_common.o [1]
MicoI2cBuildRxMessage   0x0802c8b1     0x4  Code  Gb  mico_platform_common.o [1]
MicoI2cBuildTxMessage   0x0802c8ad     0x4  Code  Gb  mico_platform_common.o [1]
MicoI2cFinalize         0x0802c7eb    0x62  Code  Gb  mico_platform_common.o [1]
MicoI2cInitialize       0x0802c77d    0x6e  Code  Gb  mico_platform_common.o [1]
MicoI2cProbeDevice      0x0802c84d    0x60  Code  Gb  mico_platform_common.o [1]
MicoI2cTransfer         0x0802c8c5    0x6a  Code  Gb  mico_platform_common.o [1]
MicoMcuPowerSaveConfig  0x0802c92f     0xc  Code  Gb  mico_platform_common.o [1]
MicoRfLed               0x08024977    0x10  Code  Gb  platform.o [1]
MicoShouldEnterMFGMode  0x08024987    0x1a  Code  Gb  platform.o [1]
MicoSpiInitialize       0x0802c945    0x76  Code  Gb  mico_platform_common.o [1]
MicoSpiTransfer         0x0802c9bb    0x8a  Code  Gb  mico_platform_common.o [1]
MicoSysLed              0x08024969     0xe  Code  Gb  platform.o [1]
MicoSystemReboot        0x0802cad7     0x4  Code  Gb  mico_platform_common.o [1]
MicoSystemStandBy       0x0802c93b     0x4  Code  Gb  mico_platform_common.o [1]
MicoUartGetLengthInBuffer
                        0x0802cac1    0x16  Code  Gb  mico_platform_common.o [1]
MicoUartInitialize      0x0802ca45    0x3c  Code  Gb  mico_platform_common.o [1]
MicoUartRecv            0x0802caa1    0x20  Code  Gb  mico_platform_common.o [1]
MicoUartSend            0x0802ca81    0x20  Code  Gb  mico_platform_common.o [1]
MicoWdgInitialize       0x0802cadb     0x4  Code  Gb  mico_platform_common.o [1]
MicoWdgReload           0x0802cadf     0x4  Code  Gb  mico_platform_common.o [1]
NVIC_Init               0x0802b1af    0x5e  Code  Gb  misc.o [1]
NVIC_PriorityGroupConfig
                        0x0802b1a5     0xa  Code  Gb  misc.o [1]
NVIC_SetPriority        0x0802482d    0x1a  Code  Lc  platform.o [1]
NetCallback             0x08026e73    0x1a  Code  Gb  mico_system_notification.o [1]
NewNetwork              0x080661e1    0x7e  Code  Gb  MQTTMiCO.o [1]
Notify_list             0x20007b9c    0x50  Data  Gb  mico_system_notification.o [1]
OLED_Clear              0x0804cbdf    0xaa  Code  Gb  oled.o [1]
OLED_Init               0x0804cdb5   0x14e  Code  Gb  oled.o [1]
OLED_Set_Pos            0x0804cbb3    0x26  Code  Gb  oled.o [1]
OLED_ShowChar           0x0804cc89    0x46  Code  Gb  oled.o [1]
OLED_ShowString         0x0804cccf    0xd0  Code  Gb  oled.o [1]
OLED_WR_Byte            0x0804cba9     0xa  Code  Gb  oled.o [1]
OLED_WR_Bytes           0x0804cb31    0x78  Code  Gb  oled.o [1]
OidFromId               0x0801dc25   0x1f6  Code  Lc  asn.o [4]
OpenEasylink            0x0802d5e3    0x22  Code  Gb  mxchipWNET.o [5]
OutStream_Write         0x0807314f    0x40  Code  Lc  lz77_init.o [10]
P9813_PIN_write_frame   0x0802d17f    0x2c  Code  Lc  rgb_led.o [1]
PAD1                    0x08010280    0x30  Data  Lc  internal.o [4]
PAD2                    0x080102b0    0x30  Data  Lc  internal.o [4]
PRF                     0x0801d5db    0x72  Code  Lc  tls.o [4]
PWR_BackupAccessCmd     0x0802b23d     0x6  Code  Gb  stm32f4xx_pwr.o [1]
PWR_BackupRegulatorCmd  0x0802b249     0x6  Code  Gb  stm32f4xx_pwr.o [1]
PWR_ClearFlag           0x0802b277     0xc  Code  Gb  stm32f4xx_pwr.o [1]
PWR_EnterSTANDBYMode    0x0802b24f    0x18  Code  Gb  stm32f4xx_pwr.o [1]
PWR_GetFlagStatus       0x0802b267    0x10  Code  Gb  stm32f4xx_pwr.o [1]
PWR_WakeUpPinCmd        0x0802b243     0x6  Code  Gb  stm32f4xx_pwr.o [1]
PadCheck                0x0800f5ad    0x18  Code  Lc  internal.o [4]
ParseCert               0x0801fe2d    0x64  Code  Gb  asn.o [4]
ParseCertRelative       0x0801fe91   0x1ba  Code  Gb  asn.o [4]
PemToDer                0x08014cdd   0x1f8  Code  Gb  ssl.o [4]
PeriodValue             0x20008368     0x4  Data  Lc  platform_watchdog.o [1]
PickHashSigAlgo         0x08011107    0x50  Code  Lc  internal.o [4]
PlatformEasyLinkButtonClickedCallback
                        0x08033fad    0x36  Code  Gb  mico_system_power_daemon.o [1]
PlatformEasyLinkButtonLongPressedCallback
                        0x08033fe3    0x60  Code  Gb  mico_system_power_daemon.o [1]
PlatformStandbyButtonClickedCallback
                        0x08034043    0x54  Code  Gb  mico_system_power_daemon.o [1]
PrintHTTPHeader         0x0806497d   0x24a  Code  Gb  HTTPUtils.o [1]
ProcessBuffer           0x08014efd   0x544  Code  Lc  ssl.o [4]
ProcessChainBuffer      0x080156d1    0x9c  Code  Lc  ssl.o [4]
ProcessReply            0x0800faa5   0x31c  Code  Gb  internal.o [4]
RCC_AHB1PeriphClockCmd  0x0802ae79    0x12  Code  Gb  stm32f4xx_rcc.o [1]
RCC_APB1PeriphClockCmd  0x0802ae8b    0x12  Code  Gb  stm32f4xx_rcc.o [1]
RCC_APB1PeriphResetCmd  0x0802aeaf    0x12  Code  Gb  stm32f4xx_rcc.o [1]
RCC_APB2PeriphClockCmd  0x0802ae9d    0x12  Code  Gb  stm32f4xx_rcc.o [1]
RCC_APB2PeriphResetCmd  0x0802aec1    0x12  Code  Gb  stm32f4xx_rcc.o [1]
RCC_ClearFlag           0x0802aef5     0xc  Code  Gb  stm32f4xx_rcc.o [1]
RCC_GetClocksFreq       0x0802adcb    0x82  Code  Gb  stm32f4xx_rcc.o [1]
RCC_GetFlagStatus       0x0802aed3    0x22  Code  Gb  stm32f4xx_rcc.o [1]
RCC_GetSYSCLKSource     0x0802ad99     0xa  Code  Gb  stm32f4xx_rcc.o [1]
RCC_HCLKConfig          0x0802ada3     0xa  Code  Gb  stm32f4xx_rcc.o [1]
RCC_HSEConfig           0x0802ad19     0xc  Code  Gb  stm32f4xx_rcc.o [1]
RCC_LSEConfig           0x0802ad4d    0x16  Code  Gb  stm32f4xx_rcc.o [1]
RCC_LSICmd              0x0802ad63     0x6  Code  Gb  stm32f4xx_rcc.o [1]
RCC_PCLK1Config         0x0802adad     0x8  Code  Gb  stm32f4xx_rcc.o [1]
RCC_PCLK2Config         0x0802adbb     0x8  Code  Gb  stm32f4xx_rcc.o [1]
RCC_PLLCmd              0x0802ad85     0x6  Code  Gb  stm32f4xx_rcc.o [1]
RCC_PLLConfig           0x0802ad69    0x1c  Code  Gb  stm32f4xx_rcc.o [1]
RCC_RTCCLKCmd           0x0802ae73     0x6  Code  Gb  stm32f4xx_rcc.o [1]
RCC_RTCCLKConfig        0x0802ae4d    0x26  Code  Gb  stm32f4xx_rcc.o [1]
RCC_SYSCLKConfig        0x0802ad8b     0xe  Code  Gb  stm32f4xx_rcc.o [1]
RCC_WaitForHSEStartUp   0x0802ad25    0x28  Code  Gb  stm32f4xx_rcc.o [1]
RTC_AlarmCmd            0x0803e299    0x4a  Code  Gb  stm32f4xx_rtc.o [1]
RTC_ByteToBcd2          0x0803e3f5    0x1a  Code  Lc  stm32f4xx_rtc.o [1]
RTC_ClearFlag           0x0803e3bb     0x8  Code  Gb  stm32f4xx_rtc.o [1]
RTC_DeInit              0x0803de51    0xc0  Code  Gb  stm32f4xx_rtc.o [1]
RTC_EnterInitMode       0x0803df73    0x36  Code  Gb  stm32f4xx_rtc.o [1]
RTC_GetDate             0x0803e15d    0x5c  Code  Gb  stm32f4xx_rtc.o [1]
RTC_GetTime             0x0803e07b    0x60  Code  Gb  stm32f4xx_rtc.o [1]
RTC_ITConfig            0x0803e38b    0x30  Code  Gb  stm32f4xx_rtc.o [1]
RTC_Init                0x0803df11    0x62  Code  Gb  stm32f4xx_rtc.o [1]
RTC_ReadBackupRegister  0x0803e371    0x1a  Code  Gb  stm32f4xx_rtc.o [1]
RTC_SetAlarm            0x0803e1b9    0xe0  Code  Gb  stm32f4xx_rtc.o [1]
RTC_SetDate             0x0803e0db    0x82  Code  Gb  stm32f4xx_rtc.o [1]
RTC_SetTime             0x0803dff1    0x8a  Code  Gb  stm32f4xx_rtc.o [1]
RTC_WKUP_irq            0x0802c59d     0x8  Code  Gb  platform_mcu_powersave.o [1]
RTC_WaitForSynchro      0x0803dfa9    0x36  Code  Gb  stm32f4xx_rtc.o [1]
RTC_WakeUpClockConfig   0x0803e2e3    0x14  Code  Gb  stm32f4xx_rtc.o [1]
RTC_WakeUpCmd           0x0803e2f7    0x4c  Code  Gb  stm32f4xx_rtc.o [1]
RTC_WriteBackupRegister
                        0x0803e357    0x1a  Code  Gb  stm32f4xx_rtc.o [1]
ReceiveData             0x08010c81    0xfa  Code  Gb  internal.o [4]
Region$$Table$$Base     0x080741ac           --   Gb  - Linker created -
Region$$Table$$Limit    0x080741d8           --   Gb  - Linker created -
RptConfigmodeRslt       0x08026e8d    0x1a  Code  Gb  mico_system_notification.o [1]
RsaDec                  0x0800c915    0x1a  Code  Gb  internal.o [4]
RsaSign                 0x0800c7f3    0x26  Code  Gb  internal.o [4]
RsaUnPad                0x08016fa9    0x74  Code  Lc  rsa.o [4]
RsaVerify               0x0800c819    0x10  Code  Gb  internal.o [4]
SDIO_ClockCmd           0x08067e7b     0x6  Code  Gb  stm32f4xx_sdio.o [1]
SDIO_DeInit             0x08067e3d    0x1a  Code  Gb  stm32f4xx_sdio.o [1]
SDIO_IRQHandler         0x0805cd21    0x60  Code  Gb  wlan_bus_SDIO.o [1]
SDIO_Init               0x08067e57    0x24  Code  Gb  stm32f4xx_sdio.o [1]
SDIO_SetPowerState      0x08067e81     0x6  Code  Gb  stm32f4xx_sdio.o [1]
SDIO_SetSDIOReadWaitMode
                        0x08067e87     0x6  Code  Gb  stm32f4xx_sdio.o [1]
SPI_CalculateCRC        0x0805adcd    0x14  Code  Gb  stm32f4xx_spi.o [1]
SPI_Cmd                 0x0805adb1    0x14  Code  Gb  stm32f4xx_spi.o [1]
SPI_I2S_DMACmd          0x0805ade1    0x10  Code  Gb  stm32f4xx_spi.o [1]
SPI_I2S_DeInit          0x0805acc1    0xa0  Code  Gb  stm32f4xx_spi.o [1]
SPI_I2S_GetFlagStatus   0x0805adf1     0xe  Code  Gb  stm32f4xx_spi.o [1]
SPI_I2S_ReceiveData     0x0805adc5     0x4  Code  Gb  stm32f4xx_spi.o [1]
SPI_I2S_SendData        0x0805adc9     0x4  Code  Gb  stm32f4xx_spi.o [1]
SPI_Init                0x0805ad61    0x38  Code  Gb  stm32f4xx_spi.o [1]
SSL_ConnectNetwork      0x08065f6f   0x154  Code  Gb  MQTTMiCO.o [1]
SSL_CtxResourceFree     0x0800c319    0x34  Code  Gb  internal.o [4]
SSL_ResourceFree        0x0800ceff    0xba  Code  Gb  internal.o [4]
SSL_hmac                0x08010033    0xfe  Code  Lc  internal.o [4]
SYSCFG_EXTILineConfig   0x0803d9f9    0x24  Code  Gb  stm32f4xx_syscfg.o [1]
SanityCheckMsgReceived  0x0800e461   0x2de  Code  Lc  internal.o [4]
SendAlert               0x08010e3d    0xc6  Code  Gb  internal.o [4]
SendBuffered            0x0800d255    0x9a  Code  Gb  internal.o [4]
SendCertificate         0x0801065d   0x2da  Code  Gb  internal.o [4]
SendCertificateRequest  0x0801098f    0xba  Code  Gb  internal.o [4]
SendCertificateStatus   0x08010a51     0xe  Code  Gb  internal.o [4]
SendCertificateVerify   0x080122ef   0x32a  Code  Gb  internal.o [4]
SendChangeCipher        0x0800ff9b    0x90  Code  Gb  internal.o [4]
SendClientHello         0x08011157   0x1ce  Code  Gb  internal.o [4]
SendClientKeyExchange   0x08011e83   0x420  Code  Gb  internal.o [4]
SendData                0x08010a79   0x12e  Code  Gb  internal.o [4]
SendFinished            0x08010583    0xac  Code  Gb  internal.o [4]
SendServerHello         0x080126c7    0xcc  Code  Gb  internal.o [4]
SendServerHelloDone     0x08013947    0x3e  Code  Gb  internal.o [4]
SendServerKeyExchange   0x08012821   0x524  Code  Gb  internal.o [4]
SetAlgoID               0x0801ecbb    0xc2  Code  Gb  asn.o [4]
SetCipherList           0x08010f25   0x138  Code  Gb  internal.o [4]
SetCipherSpecs          0x08023745   0x230  Code  Gb  keys.o [4]
SetCurveId              0x080127b1    0x54  Code  Lc  internal.o [4]
SetDigest               0x0801ec41    0x1a  Code  Lc  asn.o [4]
SetKeys                 0x08023ad9   0x1d0  Code  Lc  keys.o [4]
SetKeysSide             0x08023cc9    0x56  Code  Gb  keys.o [4]
SetLength               0x0801ec6f    0x3a  Code  Gb  asn.o [4]
SetPrefix               0x08023a5d    0x70  Code  Lc  keys.o [4]
SetSSL_CTX              0x0800c99d   0x292  Code  Gb  internal.o [4]
SetSequence             0x0801eca9     0x6  Code  Gb  asn.o [4]
SetTimer                0x08033869    0x7c  Code  Gb  mico_rtos_common.o [1]
SetTimer_uniq           0x080338e5    0x2c  Code  Gb  mico_rtos_common.o [1]
ShrinkInputBuffer       0x0800d1f1    0x4a  Code  Gb  internal.o [4]
ShrinkOutputBuffer      0x0800d19b    0x26  Code  Gb  internal.o [4]
SocketClose             0x0806507b    0x14  Code  Gb  SocketUtils.o [1]
SocketReadHTTPBody      0x08062dc1   0x6ae  Code  Gb  HTTPUtils.o [1]
SocketReadHTTPHeader    0x08062b25   0x260  Code  Gb  HTTPUtils.o [1]
SocketReadHTTPSBody     0x080634c1   0x6ec  Code  Gb  HTTPUtils.o [1]
SocketReadHTTPSHeader   0x08063bed   0x246  Code  Gb  HTTPUtils.o [1]
SocketSend              0x08064e39   0x242  Code  Gb  SocketUtils.o [1]
StartAdvNetwork         0x08031337    0xea  Code  Gb  wifimgr.o [5]
StartNetwork            0x08031421   0x184  Code  Gb  wifimgr.o [5]
StoreECC_DSA_Sig        0x080200e9    0xa8  Code  Gb  asn.o [4]
StoreKeys               0x08023d1f    0x82  Code  Gb  keys.o [4]
SysTick_CLKSourceConfig
                        0x0802b20d    0x14  Code  Gb  misc.o [1]
TIM5_IRQHandler         0x0803e59f    0x50  Code  Gb  platform_watchdog.o [1]
TIM_ClearITPendingBit   0x0805aa51     0x2  Code  Gb  stm32f4xx_tim.o [1]
TIM_Cmd                 0x0805a8c9    0x14  Code  Gb  stm32f4xx_tim.o [1]
TIM_DeInit              0x0805a781   0x142  Code  Gb  stm32f4xx_tim.o [1]
TIM_GetCapture4         0x0805aa29     0x4  Code  Gb  stm32f4xx_tim.o [1]
TIM_GetITStatus         0x0805aa3d    0x14  Code  Gb  stm32f4xx_tim.o [1]
TIM_ICInit              0x0805a911   0x118  Code  Gb  stm32f4xx_tim.o [1]
TIM_ITConfig            0x0805aa2d    0x10  Code  Gb  stm32f4xx_tim.o [1]
TIM_PrescalerConfig     0x0805a8c3     0x6  Code  Gb  stm32f4xx_tim.o [1]
TIM_RemapConfig         0x0805aa59     0x6  Code  Gb  stm32f4xx_tim.o [1]
TLS_hmac                0x0801d8bf    0x6e  Code  Gb  tls.o [4]
Td                      0x08020d50  0x1400  Data  Lc  aes.o [4]
Te                      0x0806ce80  0x1400  Data  Lc  aes.o [4]
TimingPadVerify         0x0800f5c5   0x104  Code  Lc  internal.o [4]
ToTraditional           0x0801e159    0x84  Code  Gb  asn.o [4]
Transform               0x08018c03   0x4d0  Code  Lc  md5.o [4]
Transform               0x08019427   0x904  Code  Lc  sha.o [4]
Transform               0x0801a0e5   0x3fe  Code  Lc  sha256.o [4]
URLParseComponents      0x080698ad   0x16a  Code  Gb  URLUtils.o [1]
USART1_IRQHandler       0x08024847     0x6  Code  Gb  platform.o [1]
USART2_IRQHandler       0x0802484d     0x6  Code  Gb  platform.o [1]
USART_ClearFlag         0x0803dc75     0x2  Code  Gb  stm32f4xx_usart.o [1]
USART_ClearITPendingBit
                        0x0803dc77     0xa  Code  Gb  stm32f4xx_usart.o [1]
USART_Cmd               0x0803dc21    0x14  Code  Gb  stm32f4xx_usart.o [1]
USART_DMACmd            0x0803dc35    0x10  Code  Gb  stm32f4xx_usart.o [1]
USART_DeInit            0x0803da9d    0xc8  Code  Gb  stm32f4xx_usart.o [1]
USART_ITConfig          0x0803dc45    0x30  Code  Gb  stm32f4xx_usart.o [1]
USART_Init              0x0803db65    0x9a  Code  Gb  stm32f4xx_usart.o [1]
UnLockMutex             0x080140fb     0xa  Code  Gb  wc_port.o [4]
UnSetTimer              0x08033911    0x1a  Code  Gb  mico_rtos_common.o [1]
UpdateCRC16             0x0802fda5    0x20  Code  Gb  CheckSumUtils.o [1]
VSNScanF                0x08046b27   0x5f0  Code  Gb  StringUtils.o [1]
ValidateDate            0x08029b7d     0x4  Code  Gb  ssl_wrap.o [4]
VerifyClientSuite       0x080116b1    0x42  Code  Gb  internal.o [4]
VerifyMac               0x0800f97d    0xf2  Code  Lc  internal.o [4]
VerifyRsaSign           0x0800c829    0x84  Code  Gb  internal.o [4]
VerifyServerSuite       0x08012e71   0x120  Code  Lc  internal.o [4]
WOLFSSL_ENTER           0x0801411f    0x1e  Code  Gb  logging.o [4]
WOLFSSL_ERROR           0x08014163    0x1e  Code  Gb  logging.o [4]
WOLFSSL_LEAVE           0x0801413d    0x1e  Code  Gb  logging.o [4]
WOLFSSL_MSG             0x08014111     0xe  Code  Gb  logging.o [4]
WifiStatusHandler       0x08026e35    0x1a  Code  Gb  mico_system_notification.o [1]
_Close_all              0x0806ad51    0x58  Code  Gb  xcloseall.o [7]
_EncodingSb_Mbtowc      0x0805a61b    0x30  Code  Gb  xencoding_sb.o [7]
_EncodingSb_Wctomb      0x0805a601    0x1a  Code  Gb  xencoding_sb.o [7]
_Files                  0x200004bc    0x20  Data  Gb  xfiles.o [7]
_Fofree                 0x0806ae8d    0x78  Code  Gb  xfofind.o [7]
_Fspos                  0x080734f1    0xd6  Code  Gb  xfspos.o [7]
_Fwprep                 0x0807361f    0xb6  Code  Gb  xfwprep.o [7]
_GenldFull              0x0802aa83   0x24c  Code  Lc  xprintffull.o [7]
_GetN                   0x08068b9d    0x22  Code  Lc  xscanffull.o [7]
_GetSector              0x0803fde5    0x9c  Code  Lc  platform_flash.o [1]
_GetfldFull             0x08068dc1   0x10a  Code  Lc  xscanffull.o [7]
_GetfloatFull           0x08069385   0x4e4  Code  Lc  xscanffull.o [7]
_GetintFull             0x08069189   0x1f6  Code  Lc  xscanffull.o [7]
_GetstrFull             0x08068ecd   0x2b6  Code  Lc  xscanffull.o [7]
_IsdstStr               0x20000274     0x4  Data  Gb  setlocale.o [7]
_LdtobFull              0x0802a681   0x3fc  Code  Lc  xprintffull.o [7]
_Led_EL_timer           0x20008384     0xc  Data  Lc  system_easylink_delegate.o [1]
_Led_EL_timer_initialized
                        0x20008380     0x1  Data  Lc  system_easylink_delegate.o [1]
_LitobFull              0x0802a579   0x106  Code  Lc  xprintffull.o [7]
_LocalConfigRespondInComingMessage
                        0x08058e6d   0x918  Code  Lc  config_server.o [1]
_LocaleC_isalpha        0x080684cd    0x16  Code  Gb  xlocale_c.o [7]
_LocaleC_ispunct        0x080684e3    0x24  Code  Gb  xlocale_c.o [7]
_LocaleC_isspace        0x08068507    0x14  Code  Gb  xlocale_c.o [7]
_LocaleC_tolower        0x080299e1     0xc  Code  Gb  xlocale_c.o [7]
_LocaleEncoding         0x080299cf     0xe  Code  Gb  setlocale.o [7]
_LocaleForCat           0x080299bd    0x12  Code  Gb  setlocale.o [7]
_LocaleReturnString     0x20000294    0x50  Data  Lc  setlocale.o [7]
_Locale_Profile         0x20000278    0x1c  Data  Gb  setlocale.o [7]
_Locale_aeabi_lconv     0x20000238    0x38  Data  Gb  localeconv.o [7]
_Locale_lconv           0x200001e8    0x50  Data  Gb  localeconv.o [7]
_Mbtowc                 0x0803cfa7    0x20  Code  Gb  xmbtowc.o [7]
_Nnl                    0x080735c7     0xc  Code  Gb  xfgpos.o [7]
_PrintfFull             0x08029bc9   0x618  Code  Gb  xprintffull.o [7]
_Prout                  0x08074895    0x16  Code  Gb  xprout.o [7]
_PutcharsFull           0x0802accf    0x2e  Code  Lc  xprintffull.o [7]
_PutstrFull             0x0802a267   0x30c  Code  Lc  xprintffull.o [7]
_Rand_idx               0x20000164     0x4  Data  Lc  rand.o [7]
_Rand_rv                0x20000168    0x80  Data  Lc  rand.o [7]
_Randinit               0x2000015c     0x1  Data  Gb  rand.o [7]
_Randseed               0x20000160     0x4  Data  Gb  rand.o [7]
_SNProut                0x080172db    0x1a  Code  Gb  xsnprout.o [7]
_SProut                 0x08017357     0xa  Code  Gb  xsprout.o [7]
_SScin                  0x080140ab    0x1e  Code  Gb  xsscin.o [7]
_ScanfFull              0x08068bd9   0x1e2  Code  Gb  xscanffull.o [7]
_Stoflt                 0x0806a781   0x1b8  Code  Gb  xstoflt.o [7]
_Stopfx                 0x0806a64b   0x134  Code  Gb  xstopfx.o [7]
_Stoxflt                0x0806ab39   0x1e2  Code  Gb  xstoxflt.o [7]
_Transform              0x0801a8bd   0x55a  Code  Lc  sha512.o [4]
_Transform384           0x0801af39   0x558  Code  Lc  sha512.o [4]
_TzoneStr               0x20000270     0x4  Data  Gb  setlocale.o [7]
_UngetN                 0x08068bbf    0x1a  Code  Lc  xscanffull.o [7]
_Wctomb                 0x0803d02b    0x1a  Code  Gb  xwctomb.o [7]
__aeabi_cdcmpeq         0x08061a11          Code  Gb  DblCmpEq.o [9]
__aeabi_cdcmple         0x0803d175          Code  Gb  DblCmpLe.o [9]
__aeabi_cdrcmple        0x0803d1a5          Code  Gb  DblCmpGe.o [9]
__aeabi_d2f             0x0806a5a9          Code  Gb  DblToFlt.o [9]
__aeabi_d2iz            0x0803d2ed          Code  Gb  DblToI32.o [9]
__aeabi_d2uiz           0x0803d319          Code  Gb  DblToI32.o [9]
__aeabi_dadd            0x0805a665          Code  Gb  DblAdd.o [9]
__aeabi_ddiv            0x0803d699          Code  Gb  DblDiv.o [9]
__aeabi_dmul            0x0803d4f5          Code  Gb  DblMul.o [9]
__aeabi_dsub            0x0803d375          Code  Gb  DblSub.o [9]
__aeabi_errno_addr      0x080685f5     0x6  Code  Gb  errno.o [7]
__aeabi_i2d             0x0803d345          Code  Gb  I32ToDbl.o [9]
__aeabi_ldiv0           0x0805a661          Code  Gb  I64DivZer.o [10]
__aeabi_llsl            0x08029581          Code  Gb  I64Shl.o [10]
__aeabi_llsr            0x08029561          Code  Gb  U64Shr.o [10]
__aeabi_memclr          0x0801407d          Code  Gb  ABImemclr.o [10]
__aeabi_memclr4         0x080140a5          Code  Gb  ABImemclr4.o [10]
__aeabi_memset          0x08024409          Code  Gb  ABImemset.o [10]
__aeabi_memset4         0x08024471          Code  Gb  ABImemset48.o [10]
__aeabi_memset8         0x08024471          Code  Gb  ABImemset48.o [10]
__aeabi_ui2d            0x0803d359          Code  Gb  I32ToDbl.o [9]
__aeabi_uldivmod        0x0803d045          Code  Gb  I64DivMod.o [10]
__cexit_clearlocks      0x0806a63f          Code  Gb  cexit.o [10]
__cexit_closeall        0x0806a63b          Code  Gb  cexit.o [10]
__close                 0x0806afb9    0x1a  Code  Gb  close.o [11]
__cmain                 0x080745d9          Code  Gb  cmain.o [10]
__cstart_clearlocks     0x08075390          Data  Gb  cstart_clearlocks.o [10]
__cstart_closeall       0x08075390          Data  Gb  cstart_closeall.o [10]
__data_GetMemChunk      0x08046789    0x2c  Code  Gb  xgetmemchunk.o [7]
__exit                  0x0805db89    0x14  Code  Gb  exit.o [11]
__iar_Dnorm             0x0803d133    0x42  Code  Gb  xdnorm.o [9]
__iar_Dscale            0x0803d1d5   0x118  Code  Gb  xdscale.o [9]
__iar_Dtentox           0x0806a995   0x13e  Code  Gb  xdtento.o [9]
__iar_Dunscale          0x0806ada9    0x56  Code  Gb  xdunscal.o [9]
__iar_Errno             0x20000624     0x4  Data  Gb  errno.o [7]
__iar_ForwardingLockFunctions {Abs}
                        0x00000000           --   Gb  xsyslock.o [7]
__iar_Locale_lconv_init
                        0x0803d8e1    0x3a  Code  Gb  localeconv.o [7]
__iar_Lockfilelock_mtx  0x0805dc7f    0x28  Code  Gb  xsyslock_mtx.o [7]
__iar_Locksyslock_Malloc
                        0x08046767     0x4  Code  Gb  xsyslock.o [7]
__iar_Locksyslock_Stream
                        0x08046771     0x6  Code  Gb  xsyslock.o [7]
__iar_Locksyslock_mtx   0x0805dcbd    0x26  Code  Gb  xsyslock_mtx.o [7]
__iar_Mbcurmax          0x0803d021     0xa  Code  Gb  xmbcurmax.o [7]
__iar_Memchr            0x0803cfc9          Code  Gb  memchr.o [10]
__iar_Memset            0x08024409          Code  Gb  ABImemset.o [10]
__iar_Memset4_word      0x08024479          Code  Gb  ABImemset48.o [10]
__iar_Memset8_word      0x08024479          Code  Gb  ABImemset48.o [10]
__iar_Memset_word       0x08024411          Code  Gb  ABImemset.o [10]
__iar_Stderr            0x2000043c    0x40  Data  Gb  xfiles.o [7]
__iar_Stdin             0x200003bc    0x40  Data  Gb  xfiles.o [7]
__iar_Stdout            0x200003fc    0x40  Data  Gb  xfiles.o [7]
__iar_Stold             0x0806a5a5     0x4  Code  Gb  xstold.o [9]
__iar_Stoldx            0x0806a441   0x14e  Code  Gb  xstold.o [9]
__iar_Stoll             0x0806a28d     0x4  Code  Gb  xstoll.o [7]
__iar_Stollx            0x0806a1ed    0xa0  Code  Gb  xstoll.o [7]
__iar_Stoul             0x08060e55     0x4  Code  Gb  xstoul.o [7]
__iar_Stoull            0x0806a3ed     0x4  Code  Gb  xstoull.o [7]
__iar_Stoullx           0x0806a291   0x156  Code  Gb  xstoull.o [7]
__iar_Stoulx            0x08060d11   0x13e  Code  Gb  xstoul.o [7]
__iar_Strchr            0x0803cf91          Code  Gb  strchr.o [10]
__iar_Strrchr           0x08026aa9    0x18  Code  Gb  strrchr.o [7]
__iar_Strstr            0x08029b9d    0x2c  Code  Gb  strstr.o [7]
__iar_Unlockfilelock_mtx
                        0x0805dca7    0x16  Code  Gb  xsyslock_mtx.o [7]
__iar_Unlocksyslock_Malloc
                        0x08046777     0x4  Code  Gb  xsyslock.o [7]
__iar_Unlocksyslock_Stream
                        0x08046781     0x6  Code  Gb  xsyslock.o [7]
__iar_Unlocksyslock_mtx
                        0x0805dce3    0x12  Code  Gb  xsyslock_mtx.o [7]
__iar_Wctob             0x0806a1ad    0x36  Code  Gb  xwctob.o [7]
__iar_clearlocks        0x0805db9d    0x74  Code  Gb  xsyslock_mtx.o [7]
__iar_d2uiz             0x0803d325          Code  Gb  DblToI32.o [9]
__iar_dadd              0x0805a679          Code  Gb  DblAdd.o [9]
__iar_data_init3        0x08073fb1    0x28  Code  Gb  data_init.o [10]
__iar_dlcalloc          0x0802f871    0x48  Code  Gb  dlmalloc.o [5]
__iar_dlfree            0x0802f1f3   0x67a  Code  Gb  dlmalloc.o [5]
__iar_dlib_perthread_access
                        0x0803cef1     0x2  Code  Gb  xtls.o [7]
__iar_dlmallinfo        0x0802fcf5     0xa  Code  Gb  dlmalloc.o [5]
__iar_dlmalloc          0x0802ee7b   0x378  Code  Gb  dlmalloc.o [5]
__iar_dlrealloc         0x0802fc61    0x94  Code  Gb  dlmalloc.o [5]
__iar_dsub              0x0803d389          Code  Gb  DblSub.o [9]
__iar_dsubStart         0x0803d39b          Code  Gb  DblSub.o [9]
__iar_file_Mtxdst       0x080684c7     0x2  Code  Gb  iar_mutex.o [5]
__iar_file_Mtxinit      0x080684c5     0x2  Code  Gb  iar_mutex.o [5]
__iar_file_Mtxlock      0x080684c9     0x2  Code  Gb  iar_mutex.o [5]
__iar_file_Mtxunlock    0x080684cb     0x2  Code  Gb  iar_mutex.o [5]
__iar_init_vfp          0x08074189          Code  Gb  fpinit_M.o [9]
__iar_lz77_init3        0x0807318f   0x160  Code  Gb  lz77_init.o [10]
__iar_program_start     0x080750e1          Code  Gb  cstartup_M.o [10]
__iar_sh_Discard        0x0806afe9    0x44  Code  Gb  XShHandles.o [7]
__iar_sh_Move           0x0806b033    0x4c  Code  Gb  XShHandles.o [7]
__iar_sh_Pos            0x0806b07f    0x44  Code  Gb  XShHandles.o [7]
__iar_strcmp            0x0804db4d          Code  Gb  strcmp_unaligned.o [10]
__iar_system_Mtxdst     0x080684b3     0x2  Code  Gb  iar_mutex.o [5]
__iar_system_Mtxinit    0x080684b1     0x2  Code  Gb  iar_mutex.o [5]
__iar_system_Mtxlock    0x080684b5     0x8  Code  Gb  iar_mutex.o [5]
__iar_system_Mtxunlock  0x080684bd     0x8  Code  Gb  iar_mutex.o [5]
__iar_ui2d              0x0803d35d          Code  Gb  I32ToDbl.o [9]
__iar_unaligned___aeabi_memcpy
                        0x08017265          Code  Gb  ABImemcpy_unaligned.o [10]
__iar_unaligned___aeabi_memcpy4
                        0x08017285          Code  Gb  ABImemcpy_unaligned.o [10]
__iar_unaligned___aeabi_memcpy8
                        0x08017285          Code  Gb  ABImemcpy_unaligned.o [10]
__iar_unaligned___aeabi_memmove
                        0x080236cd          Code  Gb  ABImemmove_unaligned.o [10]
__iar_unaligned___aeabi_memmove4
                        0x080236cd          Code  Gb  ABImemmove_unaligned.o [10]
__iar_unaligned___aeabi_memmove8
                        0x080236cd          Code  Gb  ABImemmove_unaligned.o [10]
__iar_unaligned_memcmp  0x080172f5          Code  Gb  memcmp_unaligned.o [10]
__iar_unaligned_strcmp  0x0804db4d          Code  Gb  strcmp_unaligned.o [10]
__iar_unaligned_strcpy  0x0802634d          Code  Gb  strcpy_unaligned.o [10]
__iar_unaligned_strncpy
                        0x08018b6d          Code  Gb  strncpy_unaligned.o [10]
__iar_zero_init3        0x08014083    0x22  Code  Gb  zero_init3.o [10]
__low_level_init        0x080745bd    0x1c  Code  Gb  crt0_EWARM.o [1]
__lseek                 0x080735d3    0x4c  Code  Gb  lseek.o [11]
__strdup                0x08046871    0x2e  Code  Gb  StringUtils.o [1]
__strdup_trans_dot      0x0804689f    0x48  Code  Gb  StringUtils.o [1]
__vector_table          0x0800c000          Data  Gb  startup_stm32f411xe_IAR.o [1]
__write                 0x0806ae79    0x14  Code  Gb  Retarget.o [1]
_apinfo                 0x200080bc    0x28  Data  Lc  wifimgr.o [5]
_bonjour_announce_handler
                        0x20000490     0x4  Data  Lc  mico_mdns.o [1]
_bonjour_generate_txt_record
                        0x080565f9   0x12c  Code  Lc  system_easylink.o [1]
_bonjour_send_anounce_thread
                        0x08062073    0x62  Code  Gb  mico_mdns.o [1]
_bonjour_thread         0x08062879   0x18a  Code  Lc  mico_mdns.o [1]
_call_main              0x080745e5          Code  Gb  cmain.o [10]
_clean_record_resource  0x080620d5    0x36  Code  Lc  mico_mdns.o [1]
_exit                   0x0806a639          Code  Gb  cexit.o [10]
_gm_                    0x20006d64   0x1d8  Data  Lc  dlmalloc.o [5]
_led_EL_Timeout_handler
                        0x080669e5     0x6  Code  Lc  system_easylink_delegate.o [1]
_main                   0x080745ef          Code  Gb  cmain.o [10]
_measureLSIComplete_SEM
                        0x2000836c     0x4  Data  Lc  platform_watchdog.o [1]
_qc_test_thread         0x08025569   0x244  Code  Lc  qc_test.o [1]
_sys_power_state_change_handler
                        0x080340ab    0x34  Code  Lc  mico_system_power_daemon.o [1]
_sys_will_power_off_handler
                        0x080340df    0x7a  Code  Lc  mico_system_power_daemon.o [1]
_timed_sys_power_state_change
                        0x2000824c    0x18  Data  Lc  mico_system_power_daemon.o [1]
_uap_up                 0x08030f73    0x58  Code  Lc  wifimgr.o [5]
_watchdog_reload_timer  0x200080b0     0xc  Data  Lc  mico_system_monitor.o [1]
_watchdog_reload_timer_handler
                        0x08056e07    0x1c  Code  Lc  mico_system_monitor.o [1]
a1_pattern              0x08074f90     0xc  Data  Lc  smart_config.o [5]
a1_settings             0x08074fc0     0xc  Data  Lc  smart_config.o [5]
a3_pattern              0x08074f9c     0xc  Data  Lc  smart_config.o [5]
a3_settings             0x08074fcc     0xc  Data  Lc  smart_config.o [5]
a_record_template       0x08075074     0xc  Data  Lc  dns_redirect.o [5]
abort                   0x08046761     0x6  Code  Gb  abort.o [7]
accept                  0x0803cf21     0x4  Code  Gb  mico_socket.o [1]
accept_function         0x0806016f    0x7a  Code  Lc  api_msg.o [5]
ackno                   0x200085f4     0x4  Data  Lc  tcp_in.o [5]
active_scan_ssid        0x200081a8    0x24  Data  Lc  wifimgr.o [5]
add_client_to_cache     0x0805faab    0xa2  Code  Lc  dhcp_server.o [5]
add_segment             0x0802dd57   0x242  Code  Lc  dlmalloc.o [5]
aes_encrypt_mx          0x08047e09    0x14  Code  Wk  crypto_wrap.o [4]
airkiss_broadcast_thread
                        0x0805649d   0x144  Code  Lc  system_easylink.o [1]
airkiss_parse           0x08045b45   0x2ce  Code  Lc  smart_config.o [5]
airkiss_random          0x200082c7     0x1  Data  Lc  system_easylink.o [1]
alink_get_tpsk          0x0802d6e1     0x6  Code  Wk  mxchipWNET.o [5]
alink_success           0x08043da1    0xae  Code  Lc  smart_config.o [5]
alloc_socket            0x0803b585    0xb8  Code  Lc  sockets.o [5]
allrouters              0x2000851c     0x4  Data  Lc  igmp.o [5]
allsystems              0x20008518     0x4  Data  Lc  igmp.o [5]
ap_hidden               0x20008634     0x4  Data  Lc  wwd_ap.o [5]
ap_mode                 0x200005c8     0x4  Data  Lc  wwd_ap.o [5]
ap_num                  0x20008686     0x1  Data  Lc  smart_config.o [5]
ap_tbl                  0x20006180   0x580  Data  Lc  smart_config.o [5]
apds9930_enable         0x0804d6b1    0x9a  Code  Gb  APDS9930.o [1]
apds9930_sensor_init    0x0804d74b   0x1b2  Code  Gb  APDS9930.o [1]
apds_i2c_device         0x20000560     0x8  Data  Gb  APDS9930.o [1]
appNotify_WifiStatusHandler
                        0x08025a75    0x9e  Code  Gb  MICOAppEntrance.o [1]
appRestoreDefault_callback
                        0x0803448d     0x2  Code  Wk  mico_system_para_storage.o [1]
app_stack_size          0x2000057c     0x4  Data  Gb  mico_config.o [1]
app_thread_handle       0x20000520     0x4  Data  Lc  mico_rtos.o [1]
append_ap_adv_list      0x080316d7    0xaa  Code  Lc  wifimgr.o [5]
append_ap_list          0x0803165d    0x7a  Code  Lc  wifimgr.o [5]
application_start       0x08025c01   0x34c  Code  Gb  MICOAppEntrance.o [1]
application_thread_main
                        0x08016569    0x1c  Code  Lc  mico_rtos.o [1]
apssid                  0x20008560     0x4  Data  Lc  smart_config.o [5]
apsta_events            0x080750a4     0xc  Data  Lc  wwd_ap.o [5]
arc4_decrypt            0x08047e25    0x22  Code  Gb  crypto_wrap.o [4]
arp_Command             0x08032c2d    0x9c  Code  Gb  wifimgr.o [5]
arp_clean               0x0804a1ed     0xe  Code  Gb  etharp.o [5]
arp_display             0x0804a10b    0xda  Code  Gb  etharp.o [5]
arp_remove_all          0x0804a1e5     0x8  Code  Lc  etharp.o [5]
arp_table               0x20007738    0xa0  Data  Lc  etharp.o [5]
arp_timer               0x0805c133    0x14  Code  Lc  lwiptimers.o [5]
array_add               0x0801cec1    0x42  Code  Lc  random.o [4]
array_list_add          0x08061afb     0x6  Code  Gb  arraylist.o [1]
array_list_free         0x08061a63    0x2a  Code  Gb  arraylist.o [1]
array_list_get_idx      0x08061a8d    0x12  Code  Gb  arraylist.o [1]
array_list_length       0x08061b01     0x4  Code  Gb  arraylist.o [1]
array_list_new          0x08061a31    0x32  Code  Gb  arraylist.o [1]
array_list_put_idx      0x08061a9f    0x5c  Code  Gb  arraylist.o [1]
ato16                   0x0800c23d     0xc  Code  Lc  internal.o [4]
autoconfig_start        0x08044a33    0x58  Code  Gb  smart_config.o [5]
available_services      0x20007860    0x80  Data  Lc  mico_mdns.o [1]
base64Decode            0x08024684    0x50  Data  Lc  coding.o [4]
bcnprd                  0x200005cc     0x4  Data  Lc  wwd_ap.o [5]
beacon_a1_pattern       0x08074fa8     0xc  Data  Lc  smart_config.o [5]
beacon_a1_settings      0x08074fd8     0xc  Data  Lc  smart_config.o [5]
beacon_a3_pattern       0x08074fb4     0xc  Data  Lc  smart_config.o [5]
beacon_a3_settings      0x08074fe4     0xc  Data  Lc  smart_config.o [5]
beacon_filter           0x08074f6c     0xc  Data  Lc  smart_config.o [5]
beacon_match            0x080204eb     0x1  Data  Lc  smart_config.o [5]
beacon_pattern          0x08074f30     0xc  Data  Lc  smart_config.o [5]
bind                    0x0803cf15     0x4  Code  Gb  mico_socket.o [1]
blkDes3CbcOid           0x0801def0     0x8  Data  Lc  asn.o [4]
blkDesCbcOid            0x0801dee8     0x8  Data  Lc  asn.o [4]
bme280                  0x20000338    0x3c  Data  Gb  bme280_user.o [1]
bme280_get_calib_param  0x08068635   0x128  Code  Gb  bme280.o [1]
bme280_init             0x08068601    0x34  Code  Gb  bme280.o [1]
bme280_read_register    0x08068b47    0x1a  Code  Gb  bme280.o [1]
bme280_sensor_deinit    0x080610df    0xb0  Code  Gb  bme280_user.o [1]
bme280_sensor_init      0x08060f39   0x1a6  Code  Gb  bme280_user.o [1]
bme280_set_oversamp_humidity
                        0x080688f9   0x116  Code  Gb  bme280.o [1]
bme280_set_oversamp_pressure
                        0x08068809    0xa8  Code  Gb  bme280.o [1]
bme280_set_oversamp_temperature
                        0x0806875d    0xa6  Code  Gb  bme280.o [1]
bme280_set_power_mode   0x08068a0f    0xf4  Code  Gb  bme280.o [1]
bme280_set_soft_rst     0x08068b03    0x28  Code  Gb  bme280.o [1]
bme280_write_register   0x08068b2b    0x1c  Code  Gb  bme280.o [1]
bonjour_instance        0x2000047c     0x1  Data  Lc  mico_mdns.o [1]
bonjour_mutex           0x20000484     0x4  Data  Lc  mico_mdns.o [1]
bonjour_send_record     0x0806246d   0x13e  Code  Gb  mico_mdns.o [1]
buf                     0x20000494     0x4  Data  Gb  mico_mdns.o [1]
bufchar                 0x08069a9b    0x1e  Code  Gb  MQTTPacket.o [1]
bufptr                  0x2000846c     0x4  Data  Lc  MQTTPacket.o [1]
built_ins               0x08057f30   0x114  Data  Lc  mico_cli.o [1]
bus_direction_mapping   0x0805cf70     0x8  Data  Lc  wlan_bus_SDIO.o [1]
bus_is_up               0x20008698     0x1  Data  Lc  wwd_bus_protocol.o [5]
bus_is_up               0x2000869a     0x1  Data  Lc  wwd_chip_specific_functions.o [5]
button_init             0x0802d103    0x56  Code  Gb  button.o [1]
button_irq_handler      0x0802d091    0x64  Code  Lc  button.o [1]
button_irq_handler_array
                        0x200000a0    0x14  Data  Gb  button.o [1]
button_timeout_handler  0x0802d0f5     0xe  Code  Lc  button.o [1]
button_timeout_handler_array
                        0x200000b4    0x14  Data  Gb  button.o [1]
c16toa                  0x0800c213     0x8  Code  Lc  internal.o [4]
c24to32                 0x0800c22b    0x12  Code  Lc  internal.o [4]
c32to24                 0x0800c207     0xc  Code  Gb  internal.o [4]
c32toa                  0x0800c21b    0x10  Code  Lc  internal.o [4]
cached_ip_addresses     0x200079d0    0x64  Data  Lc  dhcp_server.o [5]
cached_mac_addresses    0x2000820c    0x20  Data  Lc  dhcp_server.o [5]
cert_buf                0x200004f0     0x4  Data  Lc  ssl_wrap.o [4]
channel_tbl             0x200083b0    0x10  Data  Lc  smart_config.o [5]
check_fog_des_settings  0x080355b5   0x276  Code  Gb  fog_v2.o [1]
check_http_body_code    0x08037481    0x7c  Code  Gb  fog_v2.o [1]
check_sum_validate      0x08044af5   0x170  Code  Lc  smart_config.o [5]
chip_ram_size           0x200005c0     0x4  Data  Lc  wwd_firmware.o [5]
cipher_name_idx         0x200002e4    0x54  Data  Lc  internal.o [4]
cipher_names            0x0801109c    0x54  Data  Lc  internal.o [4]
clear_dma_interrupts    0x0802be33    0x38  Code  Lc  platform_uart.o [1]
cli_exit_handler        0x080577ff     0x2  Code  Lc  mico_cli.o [1]
cli_init                0x08057997    0xa4  Code  Gb  mico_cli.o [1]
cli_main                0x0805735f    0xb0  Code  Lc  mico_cli.o [1]
cli_printf              0x08057a55    0x44  Code  Gb  mico_cli.o [1]
cli_register_command    0x080578a1    0x50  Code  Gb  mico_cli.o [1]
cli_rx_buffer           0x20007adc    0x10  Data  Lc  mico_cli.o [1]
cli_rx_data             0x20007a98     0x4  Data  Lc  mico_cli.o [1]
cli_uart_config         0x08057f24     0xc  Data  Lc  mico_cli.o [1]
client                  0x0801d9e0     0x4  Data  Lc  tls.o [4]
client                  0x0801063c     0x4  Data  Lc  internal.o [4]
client_cert_buf         0x200004f8     0x4  Data  Lc  ssl_wrap.o [4]
client_prvkey_buf       0x200004fc     0x4  Data  Lc  ssl_wrap.o [4]
clientcb                0x2000849c     0x4  Data  Lc  ssl_wrap.o [4]
close                   0x0803cf7b     0x4  Code  Gb  mico_socket.o [1]
close_client_sem        0x20008230    0x14  Data  Lc  config_server.o [1]
close_listener_sem      0x20008244     0x4  Data  Lc  config_server.o [1]
cmdArrived              0x08054329   0x150  Code  Lc  fog_mqtt.o [1]
cmd_str                 0x20007d20    0x40  Data  Lc  qc_test_cli.o [1]
config_mode             0x20008580     0x4  Data  Lc  smart_config.o [5]
config_server_create_sector
                        0x08067c69    0x86  Code  Gb  config_server_menu.o [1]
config_server_delegate_recv
                        0x08058053     0x2  Code  Wk  config_server.o [1]
config_server_delegate_report
                        0x08058051     0x2  Code  Wk  config_server.o [1]
config_server_start     0x08058055    0xde  Code  Gb  config_server.o [1]
connect                 0x0803cf19     0x4  Code  Gb  mico_socket.o [1]
connected_ap_bssid      0x20008414     0x8  Data  Lc  wifimgr.o [5]
connected_ap_info       0x08026e4f    0x24  Code  Gb  mico_system_notification.o [1]
context                 0x20000000    0xa0  Data  Lc  button.o [1]
cooee_beacon_address_mask
                        0x080751dc     0x8  Data  Lc  smart_config.o [5]
cooee_beacon_address_match
                        0x080751e4     0x8  Data  Lc  smart_config.o [5]
cooee_upper_address_mask
                        0x080752b4     0x4  Data  Lc  smart_config.o [5]
cooee_upper_address_match
                        0x080752b8     0x4  Data  Lc  smart_config.o [5]
core_base_address       0x080750b0     0xc  Data  Lc  wwd_internal.o [5]
count_mutex             0x20008458     0x4  Data  Lc  ssl.o [4]
countdown               0x08065d75    0x1e  Code  Gb  MQTTMiCO.o [1]
countdown_ms            0x08065d5d    0x18  Code  Gb  MQTTMiCO.o [1]
country_code            0x200005c4     0x4  Data  Lc  wifi.o [5]
credit_diff             0x2000867e     0x1  Data  Lc  wwd_sdpcm.o [5]
current_bssid_list_length
                        0x200085e4     0x4  Data  Lc  wifi.o [5]
current_channel         0x20008687     0x1  Data  Lc  smart_config.o [5]
current_command         0x20005978     0x4  Data  Lc  wlan_bus_SDIO.o [1]
current_header          0x20008610     0x4  Data  Gb  ip.o [5]
current_iphdr_dest      0x20008618     0x4  Data  Gb  ip.o [5]
current_iphdr_src       0x20008614     0x4  Data  Gb  ip.o [5]
current_netif           0x2000860c     0x4  Data  Gb  ip.o [5]
current_transfer_direction
                        0x20005969     0x1  Data  Lc  wlan_bus_SDIO.o [1]
cycle                   0x080658ad   0x184  Code  Gb  MQTTClient.o [1]
data_index              0x20008574     0x4  Data  Lc  smart_config.o [5]
data_tbl                0x200083cc     0xc  Data  Lc  smart_config.o [5]
data_validate           0x08044c65    0xb2  Code  Lc  smart_config.o [5]
dc_motor_init           0x0802d161     0x8  Code  Gb  dc_motor.o [1]
dc_motor_set            0x0802d169    0x16  Code  Gb  dc_motor.o [1]
debug_level             0x20008604     0x4  Data  Gb  mxchip_debug.o [5]
decode_chinese          0x08043d13    0x8e  Code  Lc  smart_config.o [5]
default_rtc_time        0x0802c640     0x8  Data  Lc  platform_mcu_powersave.o [1]
default_rtc_time        0x20000568     0x8  Data  Gb  platform_rtc.o [1]
deliverMessage          0x080657d5    0x66  Code  Gb  MQTTClient.o [1]
detect_easylink_in_monitor
                        0x20008548     0x4  Data  Lc  smart_config.o [5]
device_ota_download     0x200000d8     0x4  Data  Gb  fog_ota.o [1]
dhcp_ack_option_buff    0x080752c4     0x4  Data  Lc  dhcp_server.o [5]
dhcp_bind               0x0805eb81    0xd4  Code  Lc  dhcp.o [5]
dhcp_coarse_tmr         0x0805e787    0x46  Code  Gb  dhcp.o [5]
dhcp_create_msg         0x0805f361   0x186  Code  Lc  dhcp.o [5]
dhcp_delete_msg         0x0805f501    0x1e  Code  Lc  dhcp.o [5]
dhcp_discover           0x0805ea8d    0xf4  Code  Lc  dhcp.o [5]
dhcp_fine_tmr           0x0805e7cd    0x44  Code  Gb  dhcp.o [5]
dhcp_handle_ack         0x0805e8df    0xc6  Code  Lc  dhcp.o [5]
dhcp_handle_nak         0x0805e605    0x3a  Code  Lc  dhcp.o [5]
dhcp_handle_offer       0x0805e63f    0x2a  Code  Lc  dhcp.o [5]
dhcp_interrupted        0x20008696     0x1  Data  Lc  wiced_network.o [5]
dhcp_magic_cookie       0x080752cc     0x4  Data  Lc  dhcp_server.o [5]
dhcp_nak_option_buff    0x080752c8     0x4  Data  Lc  dhcp_server.o [5]
dhcp_offer_option_buff  0x080752c0     0x4  Data  Lc  dhcp_server.o [5]
dhcp_option             0x0805ef7f    0x26  Code  Lc  dhcp.o [5]
dhcp_option_byte        0x0805efa5    0x12  Code  Lc  dhcp.o [5]
dhcp_option_long        0x0805efe1    0x4c  Code  Lc  dhcp.o [5]
dhcp_option_short       0x0805efb7    0x2a  Code  Lc  dhcp.o [5]
dhcp_option_trailer     0x0805f51f    0x3a  Code  Lc  dhcp.o [5]
dhcp_parse_reply        0x0805f02d   0x244  Code  Lc  dhcp.o [5]
dhcp_rebind             0x0805ed15    0xc0  Code  Lc  dhcp.o [5]
dhcp_reboot             0x0805edd5    0xaa  Code  Lc  dhcp.o [5]
dhcp_recv               0x0805f27d    0xda  Code  Lc  dhcp.o [5]
dhcp_release            0x0805ee7f    0xba  Code  Gb  dhcp.o [5]
dhcp_renew              0x0805ec55    0xc0  Code  Gb  dhcp.o [5]
dhcp_rx_options_given   0x200083d8     0xc  Data  Gb  dhcp.o [5]
dhcp_rx_options_val     0x2000815c    0x28  Data  Gb  dhcp.o [5]
dhcp_select             0x0805e669   0x11e  Code  Lc  dhcp.o [5]
dhcp_set_state          0x0805ef6b    0x14  Code  Lc  dhcp.o [5]
dhcp_set_struct         0x0805e9a5    0x14  Code  Gb  dhcp.o [5]
dhcp_start              0x0805e9b9    0xd4  Code  Gb  dhcp.o [5]
dhcp_stop               0x0805ef39    0x32  Code  Gb  dhcp.o [5]
dhcp_t1_timeout         0x0805e8a7    0x1c  Code  Lc  dhcp.o [5]
dhcp_t2_timeout         0x0805e8c3    0x1c  Code  Lc  dhcp.o [5]
dhcp_thread             0x0805f61d   0x41e  Code  Lc  dhcp_server.o [5]
dhcp_timeout            0x0805e811    0x96  Code  Lc  dhcp.o [5]
dhcp_timer_coarse       0x0805c147    0x14  Code  Lc  lwiptimers.o [5]
dhcp_timer_fine         0x0805c15b    0x14  Code  Lc  lwiptimers.o [5]
digits                  0x08060e58    0x28  Data  Lc  xstoul.o [7]
digits                  0x0806a3f0    0x28  Data  Lc  xstoull.o [7]
dispose_chunk           0x0802e235   0x588  Code  Lc  dlmalloc.o [5]
div                     0x0803d94d     0xe  Code  Gb  div.o [7]
dma_data_source         0x20005974     0x4  Data  Lc  wlan_bus_SDIO.o [1]
dma_irq                 0x0805c6e1    0x70  Code  Gb  wlan_bus_SDIO.o [1]
dmul                    0x0806a939    0x5a  Code  Lc  xdtento.o [9]
dns_Command             0x08032dd1    0xe6  Code  Gb  wifimgr.o [5]
dns_check_entries       0x0804105f    0x18  Code  Lc  dns.o [5]
dns_check_entry         0x08040f8f    0xd0  Code  Lc  dns.o [5]
dns_clean               0x0804148f     0xe  Code  Gb  dns.o [5]
dns_client_add_server_address
                        0x08048b01    0x42  Code  Gb  dnsclient.o [5]
dns_client_remove_all_server_addresses
                        0x08048b43    0x18  Code  Gb  dnsclient.o [5]
dns_compare_name        0x08040e4b    0x38  Code  Lc  dns.o [5]
dns_compare_name_to_string
                        0x08061dfb    0x88  Code  Lc  mico_mdns.o [1]
dns_enqueue             0x080411e9   0x100  Code  Lc  dns.o [5]
dns_gethostbyname       0x080412e9    0x6e  Code  Gb  dns.o [5]
dns_getserver           0x08040db7    0x1a  Code  Gb  dns.o [5]
dns_init                0x08040d05    0x62  Code  Gb  dns.o [5]
dns_lookup              0x08040df1    0x5a  Code  Lc  dns.o [5]
dns_parse_name          0x08040e83    0x24  Code  Lc  dns.o [5]
dns_payload             0x2000859c     0x4  Data  Lc  dns.o [5]
dns_payload_buffer      0x20006b60   0x204  Data  Lc  dns.o [5]
dns_pcb                 0x20008598     0x4  Data  Lc  dns.o [5]
dns_recv                0x08041079   0x170  Code  Lc  dns.o [5]
dns_redirector          0x20007f10    0x3c  Data  Lc  wifimgr.o [5]
dns_remove_all          0x08041475    0x1a  Code  Lc  dns.o [5]
dns_send                0x08040ea7    0xe8  Code  Lc  dns.o [5]
dns_seqno               0x2000868c     0x1  Data  Lc  dns.o [5]
dns_server_address      0x200082d8    0x14  Data  Lc  wifimgr.o [5]
dns_server_address_array
                        0x2000810c    0x28  Data  Lc  dnsclient.o [5]
dns_server_address_count
                        0x20008608     0x4  Data  Lc  dnsclient.o [5]
dns_server_num          0x2000868d     0x1  Data  Lc  dns.o [5]
dns_servers             0x2000843c     0x8  Data  Lc  dns.o [5]
dns_setserver           0x08040d67    0x50  Code  Gb  dns.o [5]
dns_show                0x08041357   0x11e  Code  Gb  dns.o [5]
dns_table               0x20006700   0x460  Data  Lc  dns.o [5]
dns_thread_main         0x08048305   0x14c  Code  Lc  dns_redirect.o [5]
dns_timer               0x0805c181    0x14  Code  Lc  lwiptimers.o [5]
dns_tmr                 0x08040ddf    0x12  Code  Gb  dns.o [5]
dns_write_record        0x08061ef5    0xce  Code  Lc  mico_mdns.o [1]
dns_write_string        0x08061e83    0x72  Code  Lc  mico_mdns.o [1]
dns_write_uint16        0x08062023    0x12  Code  Lc  mico_mdns.o [1]
doPRF                   0x0801d513    0xbc  Code  Lc  tls.o [4]
do_bind                 0x0806061b    0x74  Code  Gb  api_msg.o [5]
do_close_internal       0x08060425   0x138  Code  Lc  api_msg.o [5]
do_connect              0x0806072d    0xd8  Code  Gb  api_msg.o [5]
do_connected            0x0806068f    0x9e  Code  Lc  api_msg.o [5]
do_delconn              0x0806055d    0xbe  Code  Gb  api_msg.o [5]
do_disconnect           0x08060805    0x2e  Code  Gb  api_msg.o [5]
do_dns_found            0x08060c93    0x30  Code  Lc  api_msg.o [5]
do_getaddr              0x08060be1    0xb2  Code  Gb  api_msg.o [5]
do_gethostbyname        0x08060cc3    0x28  Code  Gb  api_msg.o [5]
do_listen               0x08060833    0xc6  Code  Gb  api_msg.o [5]
do_netifapi_netif_common
                        0x0805fbd1    0x26  Code  Gb  netifapi.o [5]
do_newconn              0x0806028d    0x20  Code  Gb  api_msg.o [5]
do_recv                 0x080609af    0x60  Code  Gb  api_msg.o [5]
do_send                 0x080608fd    0xb2  Code  Gb  api_msg.o [5]
do_write                0x08060b7b    0x66  Code  Gb  api_msg.o [5]
do_writemore            0x08060a0f   0x16c  Code  Lc  api_msg.o [5]
driver_state_Command    0x08049725   0x124  Code  Gb  wwd_sdpcm.o [5]
eTaskGetState           0x08024c5b    0x50  Code  Gb  tasks.o [1]
easy_link_fail          0x08043b3b     0xe  Code  Lc  smart_config.o [5]
easy_link_main_thread   0x080442ed   0x552  Code  Lc  smart_config.o [5]
easy_link_start_cmd     0x080448f1    0xda  Code  Lc  smart_config.o [5]
easy_link_stop          0x080449cb    0x3a  Code  Gb  smart_config.o [5]
easy_link_success       0x08043c51    0xc2  Code  Lc  smart_config.o [5]
easylink2_stop          0x08044a2b     0x8  Code  Gb  smart_config.o [5]
easylinkIndentifier     0x200082c8     0x4  Data  Lc  system_easylink.o [1]
easylink_break          0x20008558     0x4  Data  Lc  smart_config.o [5]
easylink_connect_sem    0x200082d4     0x4  Data  Lc  system_easylink.o [1]
easylink_parse          0x08045639   0x3bc  Code  Lc  smart_config.o [5]
easylink_sem            0x200082d0     0x4  Data  Lc  system_easylink.o [1]
easylink_success        0x200082c4     0x1  Data  Lc  system_easylink.o [1]
easylink_thread         0x080560b5   0x3e0  Code  Lc  system_easylink.o [1]
easylink_thread_force_exit
                        0x200082c5     0x1  Data  Lc  system_easylink.o [1]
easylink_thread_handler
                        0x200082cc     0x4  Data  Lc  system_easylink.o [1]
easylink_user_data_result
                        0x08026ea7    0x1e  Code  Gb  mico_system_notification.o [1]
easylink_wifi_info      0x0802d70f     0x2  Code  Wk  mxchipWNET.o [5]
easylinkv2_parse        0x08045a09   0x11c  Code  Gb  smart_config.o [5]
easylinkv2_success      0x08043e4f    0xd6  Code  Lc  smart_config.o [5]
ebuf                    0x20007c3c    0x50  Data  Lc  xfiles.o [7]
ecc_map                 0x08017aa1    0xec  Code  Gb  ecc.o [4]
ecc_oid_prime239v1      0x0806f0d4     0x8  Data  Lc  ecc.o [4]
ecc_oid_secp112r1       0x0806f0ac     0x8  Data  Lc  ecc.o [4]
ecc_oid_secp128r1       0x0806f0b4     0x8  Data  Lc  ecc.o [4]
ecc_oid_secp160r1       0x0806f0bc     0x8  Data  Lc  ecc.o [4]
ecc_oid_secp192r1       0x0806f0c4     0x8  Data  Lc  ecc.o [4]
ecc_oid_secp224r1       0x0806f0cc     0x8  Data  Lc  ecc.o [4]
ecc_oid_secp256r1       0x0806f0dc     0x8  Data  Lc  ecc.o [4]
ecc_oid_secp384r1       0x0806f0e4     0x8  Data  Lc  ecc.o [4]
ecc_oid_secp521r1       0x0806f0ec     0x8  Data  Lc  ecc.o [4]
ecc_projective_add_point
                        0x080173bb   0x3a8  Code  Gb  ecc.o [4]
ecc_projective_dbl_point
                        0x080177c9   0x28a  Code  Gb  ecc.o [4]
ecc_sets                0x08018964   0x208  Data  Gb  ecc.o [4]
echo_cmd_handler        0x08057775    0x8a  Code  Lc  mico_cli.o [1]
empty_cache             0x0807529c     0x8  Data  Lc  dhcp_server.o [5]
enable_dns_redirector   0x20000590     0x4  Data  Lc  wifimgr.o [5]
enable_ps               0x08030c5d     0xa  Code  Lc  wifimgr.o [5]
entropyA                0x0801d280    0x30  Data  Gb  random.o [4]
entropyB                0x0801d350    0x30  Data  Gb  random.o [4]
err_msg                 0x0806709c   0x118  Data  Lc  tftpc.o [1]
err_tcp                 0x0806007f    0xb8  Code  Lc  api_msg.o [5]
err_to_errno_table      0x08073a30    0x40  Data  Lc  sockets.o [5]
errno                   0x20008484     0x4  Data  Gb  sockets.o [5]
es_key                  0x20008588     0x4  Data  Lc  smart_config.o [5]
es_key_len              0x2000858c     0x4  Data  Lc  smart_config.o [5]
es_recv_time            0x200005b8     0x4  Data  Lc  smart_config.o [5]
es_switch_interval      0x200005b4     0x4  Data  Lc  smart_config.o [5]
etharp_arp_input        0x08049c49   0x144  Code  Lc  etharp.o [5]
etharp_cached_entry     0x20008694     0x1  Data  Lc  etharp.o [5]
etharp_find_addr        0x08049bf1    0x58  Code  Gb  etharp.o [5]
etharp_output           0x08049d8d    0xfa  Code  Gb  etharp.o [5]
etharp_query            0x08049e87   0x198  Code  Gb  etharp.o [5]
etharp_raw              0x0804a01f    0xc8  Code  Lc  etharp.o [5]
etharp_remove_all_entry
                        0x08049bd9    0x18  Code  Gb  etharp.o [5]
etharp_request          0x0804a0e7    0x24  Code  Gb  etharp.o [5]
etharp_send_ip          0x08049ae3    0x34  Code  Lc  etharp.o [5]
etharp_tmr              0x080498f3    0x74  Code  Gb  etharp.o [5]
ethbroadcast            0x0807526c     0x8  Data  Gb  etharp.o [5]
ethernet_input          0x0804a225    0x5c  Code  Gb  etharp.o [5]
ethernetif_init         0x0805fd6d    0x30  Code  Gb  wwd_network.o [5]
ethif                   0x2000861c     0x4  Data  Lc  ip.o [5]
ethzero                 0x08075274     0x8  Data  Gb  etharp.o [5]
event_callback          0x0803c319   0x164  Code  Lc  sockets.o [5]
event_list              0x20007f4c    0x3c  Data  Lc  wwd_sdpcm.o [5]
event_rx_cb             0x0803cc77    0x5e  Code  Gb  sockets.o [5]
event_semaphore         0x20008590     0x4  Data  Lc  wps_host.o [5]
events                  0x20007a34    0x60  Data  Lc  sockets.o [5]
exit                    0x080698a9     0x4  Code  Gb  exit.o [7]
expired                 0x08065d39    0x24  Code  Gb  MQTTMiCO.o [1]
extAltNamesHwNameOid    0x0801df3c     0x8  Data  Lc  asn.o [4]
extAltNamesOid          0x0801defc     0x4  Data  Lc  asn.o [4]
extAuthInfoCaIssuerOid  0x0801df30     0x8  Data  Lc  asn.o [4]
extAuthInfoOcspOid      0x0801df28     0x8  Data  Lc  asn.o [4]
extAuthInfoOid          0x0801df04     0x8  Data  Lc  asn.o [4]
extAuthKeyOid           0x0801df0c     0x4  Data  Lc  asn.o [4]
extBasicCaOid           0x0801def8     0x4  Data  Lc  asn.o [4]
extCertPolicyAnyOid     0x0801df38     0x4  Data  Lc  asn.o [4]
extCertPolicyOid        0x0801df14     0x4  Data  Lc  asn.o [4]
extCrlDistOid           0x0801df00     0x4  Data  Lc  asn.o [4]
extExtKeyUsageAnyOid    0x0801df44     0x4  Data  Lc  asn.o [4]
extExtKeyUsageClientAuthOid
                        0x0801df50     0x8  Data  Lc  asn.o [4]
extExtKeyUsageOcspSignOid
                        0x0801df58     0x8  Data  Lc  asn.o [4]
extExtKeyUsageOid       0x0801df20     0x4  Data  Lc  asn.o [4]
extExtKeyUsageServerAuthOid
                        0x0801df48     0x8  Data  Lc  asn.o [4]
extInhibitAnyOid        0x0801df1c     0x4  Data  Lc  asn.o [4]
extKeyUsageOid          0x0801df18     0x4  Data  Lc  asn.o [4]
extNameConsOid          0x0801df24     0x4  Data  Lc  asn.o [4]
extSubjKeyOid           0x0801df10     0x4  Data  Lc  asn.o [4]
fast_mp_invmod          0x080278a5   0x1d6  Code  Gb  integer.o [4]
fast_mp_montgomery_reduce
                        0x0802851d   0x12a  Code  Gb  integer.o [4]
fast_s_mp_mul_digs      0x08028b41    0xd6  Code  Gb  integer.o [4]
fast_s_mp_mul_high_digs
                        0x0802927f    0xd2  Code  Gb  integer.o [4]
fast_s_mp_sqr           0x08028a57    0xea  Code  Gb  integer.o [4]
fclose                  0x0806adff    0x7a  Code  Gb  fclose.o [7]
fflush                  0x0806af7f    0x34  Code  Gb  fflush.o [7]
fflushOne               0x0806af09    0x76  Code  Lc  fflush.o [7]
file_mtx                0x20008000    0x20  Data  Lc  xsyslock_mtx.o [7]
fill_ssid               0x08045f3d    0x54  Code  Lc  smart_config.o [5]
findChunkedDataLength   0x08064329    0x54  Code  Gb  HTTPUtils.o [1]
find_entry              0x08049967   0x17c  Code  Lc  etharp.o [5]
find_option             0x0805fa3b    0x32  Code  Lc  dhcp_server.o [5]
find_record_by_service  0x08062035    0x3e  Code  Lc  mico_mdns.o [1]
find_ssid_by_bssid      0x08043aa7    0x38  Code  Lc  smart_config.o [5]
flags                   0x20008692     0x1  Data  Lc  tcp_in.o [5]
fog_des_g               0x200004e0     0x4  Data  Gb  fog_v2.o [1]
fog_des_init            0x08035a99   0x14c  Code  Lc  fog_v2.o [1]
fog_des_recovery        0x08035405   0x152  Code  Gb  fog_v2.o [1]
fog_http_requeset       0x200081dc     0x4  Data  Lc  fog_http_client.o [1]
fog_http_request_queue  0x200081e0     0x4  Data  Gb  fog_http_client.o [1]
fog_http_res            0x200081cc    0x10  Data  Lc  fog_http_client.o [1]
fog_http_response_queue
                        0x200081e4     0x4  Data  Gb  fog_http_client.o [1]
fog_init                0x0803a7b5   0x40a  Code  Lc  fog_v2.o [1]
fog_local_response_http
                        0x20000510     0x4  Data  Gb  fog_tcp_server.o [1]
fog_local_response_vercode_error
                        0x20000508     0x4  Data  Gb  fog_tcp_server.o [1]
fog_local_response_vercode_is_bind
                        0x2000050c     0x4  Data  Gb  fog_tcp_server.o [1]
fog_local_response_vercode_json
                        0x20000504     0x4  Data  Gb  fog_tcp_server.o [1]
fog_ota_thread          0x0805237d   0x938  Code  Gb  fog_ota.o [1]
fog_tcp_client_thread   0x08054835   0x2ec  Code  Gb  fog_tcp_server.o [1]
fog_tcp_server_close    0x080550d1    0xee  Code  Gb  fog_tcp_server.o [1]
fog_tcp_server_start    0x08054f7f   0x152  Code  Gb  fog_tcp_server.o [1]
fog_tcp_server_thread   0x08054b25   0x45a  Code  Gb  fog_tcp_server.o [1]
fog_v2_close_tcp_server
                        0x200083e8     0x4  Data  Lc  fog_tcp_server.o [1]
fog_v2_device_activate  0x08037521   0x42e  Code  Lc  fog_v2.o [1]
fog_v2_device_check_superuser
                        0x08037f81   0x2e6  Code  Lc  fog_v2.o [1]
fog_v2_device_generate_device_vercode
                        0x08039629   0x3ba  Code  Gb  fog_v2.o [1]
fog_v2_device_get_token
                        0x08037a65   0x3d4  Code  Lc  fog_v2.o [1]
fog_v2_device_recovery  0x08038443   0x324  Code  Lc  fog_v2.o [1]
fog_v2_device_recv_mqtt_message
                        0x0806f2ed   0x238  Code  Gb  user_downstream.o [1]
fog_v2_device_sync_status
                        0x080388c9   0x29c  Code  Lc  fog_v2.o [1]
fog_v2_http_client_thread
                        0x0804ff89   0x988  Code  Lc  fog_http_client.o [1]
fog_v2_init_complete_sem
                        0x200004ec     0x4  Data  Lc  fog_v2.o [1]
fog_v2_is_have_superuser
                        0x080352b1    0x5c  Code  Gb  fog_v2.o [1]
fog_v2_is_mqtt_connect  0x0803530d     0x8  Code  Gb  fog_v2.o [1]
fog_v2_is_tcp_server_start
                        0x200083e5     0x1  Data  Lc  fog_tcp_server.o [1]
fog_v2_ota              0x0805180d   0x44c  Code  Gb  fog_ota.o [1]
fog_v2_ota_check        0x08038d1d   0x3ce  Code  Gb  fog_v2.o [1]
fog_v2_ota_finish       0x08051c65   0x408  Code  Lc  fog_ota.o [1]
fog_v2_ota_upload_log   0x08039201   0x2b6  Code  Gb  fog_v2.o [1]
fog_v2_push_http_req_mutex
                        0x0803655d   0x35c  Code  Gb  fog_v2.o [1]
fog_v2_sdk_init_success
                        0x200004dc     0x1  Data  Lc  fog_v2.o [1]
fog_v2_set_device_recovery_flag
                        0x08035315    0xb2  Code  Gb  fog_v2.o [1]
fog_v2_tcp_server_has_client
                        0x200083e4     0x1  Data  Gb  fog_tcp_server.o [1]
formatMACAddr           0x080467b5    0x9c  Code  Gb  StringUtils.o [1]
fputc                   0x08073865    0x56  Code  Gb  fputc.o [7]
free_ap_list            0x08031eb9    0x22  Code  Lc  wifimgr.o [5]
free_entry              0x080498bf    0x34  Code  Lc  etharp.o [5]
free_etharp_q           0x080498a1    0x1e  Code  Lc  etharp.o [5]
free_socket             0x0803b63d    0x38  Code  Lc  sockets.o [5]
frmds_bcast_mask        0x08074f00     0xc  Data  Lc  smart_config.o [5]
frmds_bcast_match       0x08074f0c     0xc  Data  Lc  smart_config.o [5]
frmds_brast_pattern     0x08074f24     0xc  Data  Lc  smart_config.o [5]
frmds_filter            0x08074f60     0xc  Data  Lc  smart_config.o [5]
fseek                   0x080736d5    0x22  Code  Gb  fseek.o [7]
gApAdvList              0x2000840c     0x8  Data  Lc  wifimgr.o [5]
gApList                 0x20008404     0x8  Data  Lc  wifimgr.o [5]
g_ap_entry              0x20007960    0x70  Data  Lc  wifimgr.o [5]
generate_fog_http_request
                        0x0804f745   0x270  Code  Lc  fog_http_client.o [1]
generate_keystream      0x08022751   0x5ba  Code  Lc  hc128.o [4]
generic_sflash_command  0x0805b109    0x7a  Code  Gb  spi_flash.o [1]
getNetPara              0x0802d2f1    0xdc  Code  Gb  mxchipWNET.o [5]
get_client_ip_address_from_cache
                        0x0805fa6d    0x3e  Code  Lc  dhcp_server.o [5]
get_digit_count         0x080173b5     0x6  Code  Lc  ecc.o [4]
get_easylink_channel_list
                        0x08032459    0xea  Code  Gb  wifimgr.o [5]
get_ethnetif            0x08047729     0x8  Code  Gb  ip.o [5]
get_event_by_fd         0x0803cbc1    0x2c  Code  Lc  sockets.o [5]
get_fd_by_event         0x0803cbed    0x24  Code  Lc  sockets.o [5]
get_fog_des_g           0x080352a9     0x8  Code  Gb  fog_v2.o [1]
get_http_res_from_queue
                        0x0803609d   0x336  Code  Gb  fog_v2.o [1]
get_input               0x080572bb    0xa4  Code  Lc  mico_cli.o [1]
get_max_channel         0x08040605    0x2c  Code  Gb  wifi.o [5]
get_scan_result_adv_list
                        0x08031829    0x68  Code  Lc  wifimgr.o [5]
get_scan_result_list    0x08031781    0x6c  Code  Lc  wifimgr.o [5]
get_sniffer_channel     0x08043f25    0xbc  Code  Gb  smart_config.o [5]
get_socket              0x0803b52b    0x30  Code  Lc  sockets.o [5]
get_ssid_key_end        0x08044081    0x1c  Code  Lc  smart_config.o [5]
get_sta_connection      0x08030f17     0x8  Code  Gb  wifimgr.o [5]
get_vercode_from_fog    0x0805467d   0x1b8  Code  Gb  fog_tcp_server.o [1]
get_version             0x080575dd   0x18c  Code  Lc  mico_cli.o [1]
get_wifi_status         0x08035289    0x20  Code  Gb  fog_v2.o [1]
gethostbyname           0x0803cf7f     0x4  Code  Gb  mico_socket.o [1]
getsockopt              0x0803cf07     0xe  Code  Gb  mico_socket.o [1]
gpio_irq                0x0802b705    0xf0  Code  Gb  platform_gpio.o [1]
gpio_irq_data           0x200075d8    0xc0  Data  Lc  platform_gpio.o [1]
gpio_peripheral_clocks  0x0802b848    0x20  Data  Gb  platform_gpio.o [1]
h_errno                 0x200084e8     0x4  Data  Gb  netdb.o [5]
handle_input            0x0805702d   0x1d8  Code  Lc  mico_cli.o [1]
hard_fault_handler_c    0x08071e45   0x206  Code  Gb  hardfault.o [1]
hashMd2hOid             0x0801de1c     0x8  Data  Lc  asn.o [4]
hashMd5hOid             0x0801de24     0x8  Data  Lc  asn.o [4]
hashSha1hOid            0x0801de2c     0x8  Data  Lc  asn.o [4]
hashSha256hOid          0x0801de34     0xc  Data  Lc  asn.o [4]
hashSha384hOid          0x0801de40     0xc  Data  Lc  asn.o [4]
hashSha512hOid          0x0801de4c     0xc  Data  Lc  asn.o [4]
health_monitor_enabled  0x20000598     0x4  Data  Lc  wifimgr.o [5]
health_monitor_thread   0x080322d9   0x158  Code  Lc  wifimgr.o [5]
help_command            0x08057801    0xa0  Code  Lc  mico_cli.o [1]
host_buffer_add_remove_at_front
                        0x0805c685    0x26  Code  Gb  wwd_buffer.o [5]
host_buffer_get         0x0805c5c9    0x88  Code  Gb  wwd_buffer.o [5]
host_buffer_get_current_piece_data_pointer
                        0x0805c665    0x10  Code  Gb  wwd_buffer.o [5]
host_buffer_get_current_piece_size
                        0x0805c675    0x10  Code  Gb  wwd_buffer.o [5]
host_buffer_init        0x0805c5c5     0x4  Code  Gb  wwd_buffer.o [5]
host_buffer_release     0x0805c651    0x14  Code  Gb  wwd_buffer.o [5]
host_buffer_set_data_end
                        0x0805c6ab     0xe  Code  Gb  wwd_buffer.o [5]
host_enable_oob_interrupt
                        0x0805c6bd    0x20  Code  Gb  wlan_bus_SDIO.o [1]
host_network_process_eapol_data
                        0x080685a9    0x38  Code  Gb  wps_host.o [5]
host_network_process_ethernet_data
                        0x0805fcdf    0x8e  Code  Gb  wwd_network.o [5]
host_network_process_raw_packet
                        0x0804638d    0x8a  Code  Gb  smart_config.o [5]
host_platform_bus_deinit
                        0x0805c8d1    0x82  Code  Gb  wlan_bus_SDIO.o [1]
host_platform_bus_init  0x0805c751    0xf0  Code  Gb  wlan_bus_SDIO.o [1]
host_platform_deinit    0x0802c041     0x2  Code  Gb  wlan_platform_common.o [1]
host_platform_deinit_wlan_powersave_clock
                        0x0802c05b     0x4  Code  Gb  wlan_platform_common.o [1]
host_platform_enable_high_speed_sdio
                        0x0805cc77    0xa6  Code  Gb  wlan_bus_SDIO.o [1]
host_platform_get_oob_interrupt_pin
                        0x0805c6dd     0x4  Code  Gb  wlan_bus_SDIO.o [1]
host_platform_init      0x0802c03d     0x4  Code  Gb  wlan_platform_common.o [1]
host_platform_init_wlan_powersave_clock
                        0x0805db85     0x4  Code  Gb  wlan_platform.o [1]
host_platform_is_sdio_int_asserted
                        0x0805d901     0x4  Code  Wk  wwd_thread.o [5]
host_platform_memory_wifi_nvram_size
                        0x08068499     0x6  Code  Wk  wwd_firmware.o [5]
host_platform_power_wifi
                        0x0802c03b     0x2  Code  Gb  wlan_platform_common.o [1]
host_platform_read_memory_wifi_firmware
                        0x080683db    0x4a  Code  Gb  wwd_firmware.o [5]
host_platform_read_memory_wifi_nvram
                        0x08068425    0x74  Code  Gb  wwd_firmware.o [5]
host_platform_read_wifi_firmware
                        0x0806a195     0x8  Code  Gb  read_wifi_firmware.o [5]
host_platform_read_wifi_nvram
                        0x0806a19d     0x8  Code  Gb  read_wifi_firmware.o [5]
host_platform_read_wifi_nvram_image
                        0x0806849f     0x6  Code  Wk  wwd_firmware.o [5]
host_platform_reset_wifi
                        0x0802c029    0x12  Code  Gb  wlan_platform_common.o [1]
host_platform_sdio_enumerate
                        0x0805c841    0x90  Code  Gb  wlan_bus_SDIO.o [1]
host_platform_sdio_transfer
                        0x0805c955   0x322  Code  Gb  wlan_bus_SDIO.o [1]
host_platform_wifi_nvram_size
                        0x0806a1a5     0x8  Code  Gb  read_wifi_firmware.o [5]
host_rtos_create_thread
                        0x080414ed    0x18  Code  Gb  wwd_rtos.o [5]
host_rtos_deinit_semaphore
                        0x0804152d     0x8  Code  Gb  wwd_rtos.o [5]
host_rtos_delay_milliseconds
                        0x0804153d     0x8  Code  Gb  wwd_rtos.o [5]
host_rtos_delete_terminated_thread
                        0x0804150d     0x4  Code  Gb  wwd_rtos.o [5]
host_rtos_finish_thread
                        0x08041505     0x8  Code  Gb  wwd_rtos.o [5]
host_rtos_get_semaphore
                        0x0804151d     0x8  Code  Gb  wwd_rtos.o [5]
host_rtos_get_time      0x08041535     0x8  Code  Gb  wwd_rtos.o [5]
host_rtos_init_semaphore
                        0x08041511     0xc  Code  Gb  wwd_rtos.o [5]
host_rtos_set_semaphore
                        0x08041525     0x8  Code  Gb  wwd_rtos.o [5]
hostname                0x2000049c    0x20  Data  Lc  wiced_network.o [5]
htobe16                 0x0804826d     0xc  Code  Lc  dns_redirect.o [5]
htobe32                 0x08048279    0x18  Code  Lc  dns_redirect.o [5]
htobe32                 0x0805f581    0x18  Code  Lc  dhcp_server.o [5]
htonl                   0x0802d62b     0x8  Code  Gb  mxchipWNET.o [5]
http_read_file_success  0x200000c8     0x1  Data  Lc  fog_ota.o [1]
http_send_setting_mutex
                        0x200004e8     0x4  Data  Lc  fog_v2.o [1]
i2c_address_device      0x0803ebcd    0x7c  Code  Lc  platform_i2c.o [1]
i2c_rx_no_dma           0x0803ed1d    0xfa  Code  Lc  platform_i2c.o [1]
i2c_tx_no_dma           0x0803ec49    0xcc  Code  Lc  platform_i2c.o [1]
icmp_dest_unreach       0x0805e215     0xe  Code  Gb  icmp.o [5]
icmp_input              0x0805e0a1   0x16c  Code  Gb  icmp.o [5]
icmp_send_response      0x0805e223     0x2  Code  Lc  icmp.o [5]
ifconfig_Command        0x08032a99   0x194  Code  Gb  wifimgr.o [5]
igmp_delaying_member    0x0805a493    0x30  Code  Lc  igmp.o [5]
igmp_group_list         0x20008514     0x4  Data  Lc  igmp.o [5]
igmp_init               0x0805a035    0x20  Code  Gb  igmp.o [5]
igmp_input              0x0805a1f9    0xfa  Code  Gb  igmp.o [5]
igmp_ip_output_if       0x0805a4c3    0x2e  Code  Lc  igmp.o [5]
igmp_joingroup          0x0805a2f3    0xa0  Code  Gb  igmp.o [5]
igmp_leavegroup         0x0805a393    0xa6  Code  Gb  igmp.o [5]
igmp_lookfor_group      0x0805a133    0x28  Code  Gb  igmp.o [5]
igmp_lookup_group       0x0805a15b    0x50  Code  Lc  igmp.o [5]
igmp_remove_group       0x0805a1ab    0x4e  Code  Lc  igmp.o [5]
igmp_report_groups      0x0805a111    0x22  Code  Gb  igmp.o [5]
igmp_send               0x0805a4f1    0x88  Code  Lc  igmp.o [5]
igmp_start              0x0805a055    0x68  Code  Gb  igmp.o [5]
igmp_start_timer        0x0805a471    0x1c  Code  Lc  igmp.o [5]
igmp_stop               0x0805a0bd    0x54  Code  Gb  igmp.o [5]
igmp_stop_timer         0x0805a48d     0x6  Code  Lc  igmp.o [5]
igmp_timeout            0x0805a461    0x10  Code  Lc  igmp.o [5]
igmp_timer              0x0805c16f    0x12  Code  Lc  lwiptimers.o [5]
igmp_tmr                0x0805a439    0x28  Code  Gb  igmp.o [5]
image_size              0x20008480     0x4  Data  Lc  wlan_platform_common.o [1]
inet_addr               0x0803cf83     0x4  Code  Gb  mico_socket.o [1]
inet_chksum             0x0805de6f     0xe  Code  Gb  inet_chksum.o [5]
inet_chksum_pbuf        0x0805de7d    0x56  Code  Gb  inet_chksum.o [5]
inet_chksum_pseudo      0x0805ddc7    0xa8  Code  Gb  inet_chksum.o [5]
inet_ntoa               0x0803cf87     0xa  Code  Gb  mico_socket.o [1]
infrared_reflective_init
                        0x0804db0b    0x12  Code  Gb  infrared_reflective.o [1]
initRefCount            0x20008454     0x4  Data  Lc  ssl.o [4]
initRefCount            0x20008658     0x4  Data  Lc  wc_port.o [4]
init_architecture       0x08024757    0x98  Code  Gb  platform_init.o [1]
init_bins               0x0802d953    0x1a  Code  Lc  dlmalloc.o [5]
init_clocks             0x080246ed    0x68  Code  Gb  platform_init.o [1]
init_fog_mqtt_service   0x08052fed   0x1e4  Code  Gb  fog_mqtt.o [1]
init_fog_v2_service     0x08035999    0xa8  Code  Gb  fog_v2.o [1]
init_memory             0x08024755     0x2  Code  Wk  platform_init.o [1]
init_mparams            0x0802d733    0x70  Code  Lc  dlmalloc.o [5]
init_platform           0x080248cd    0x72  Code  Gb  platform.o [1]
init_sflash             0x0805b0af    0x5a  Code  Gb  spi_flash.o [1]
init_top                0x0802d917    0x3c  Code  Lc  dlmalloc.o [5]
initlocks               0x0805dc11    0x6e  Code  Lc  xsyslock_mtx.o [7]
inseg                   0x20008314    0x14  Data  Lc  tcp_in.o [5]
insert_magic_code       0x08044e99    0x72  Code  Lc  smart_config.o [5]
insert_result_by_rssi   0x08031d3d    0x6c  Code  Lc  wifimgr.o [5]
internalFlashByteWrite  0x0803fd05    0xda  Code  Lc  platform_flash.o [1]
internalFlashErase      0x0803fa15   0x148  Code  Lc  platform_flash.o [1]
internalFlashWrite      0x0803fb5d   0x1a2  Code  Lc  platform_flash.o [1]
internal_dhcp_server    0x20007fc4    0x38  Data  Lc  wiced_network.o [5]
internal_mallinfo       0x0802d7a3    0xde  Code  Lc  dlmalloc.o [5]
internal_packet_create  0x08040c49    0x76  Code  Lc  tcpip.o [5]
internal_udp_send       0x08040cbf    0x40  Code  Lc  tcpip.o [5]
internal_update_config  0x080345bd   0x348  Code  Lc  mico_system_para_storage.o [1]
ioctl_abort_count       0x200084d4     0x4  Data  Lc  wwd_sdpcm.o [5]
ioctl_req_sent          0x20008680     0x1  Data  Lc  wwd_sdpcm.o [5]
ip4_addr_isbroadcast    0x08047b81    0x4c  Code  Gb  ip_addr.o [5]
ip_addr_any             0x080752ac     0x4  Data  Gb  ip_addr.o [5]
ip_addr_broadcast       0x080752b0     0x4  Data  Gb  ip_addr.o [5]
ip_id                   0x2000866e     0x2  Data  Lc  ip.o [5]
ip_input                0x080477a3   0x228  Code  Gb  ip.o [5]
ip_networking_up        0x20008670     0x2  Data  Lc  wiced_network.o [5]
ip_output               0x08047b2b    0x34  Code  Gb  ip.o [5]
ip_output_if            0x080479cb    0x22  Code  Gb  ip.o [5]
ip_output_if_opt        0x080479ed   0x13e  Code  Gb  ip.o [5]
ip_route                0x08047731    0x72  Code  Gb  ip.o [5]
ipaddr_addr             0x08047bcd    0x16  Code  Gb  ip_addr.o [5]
ipaddr_aton             0x08047be3   0x158  Code  Gb  ip_addr.o [5]
ipaddr_ntoa             0x08047d3b     0xc  Code  Gb  ip_addr.o [5]
ipaddr_ntoa_r           0x08047d4d    0x8e  Code  Gb  ip_addr.o [5]
iphdr                   0x200085ec     0x4  Data  Lc  tcp_in.o [5]
ipv4_to_string          0x0805fb89    0x48  Code  Lc  dhcp_server.o [5]
isTopicMatched          0x08065763    0x72  Code  Gb  MQTTClient.o [1]
is_buffer_in_send_queue
                        0x080496d5    0x30  Code  Gb  wwd_sdpcm.o [5]
is_config_server_established
                        0x2000822c     0x1  Data  Gb  config_server.o [1]
is_http_loop_fault      0x20008677     0x1  Data  Gb  user_main.o [1]
is_https_connect        0x20008674     0x1  Data  Lc  fog_v2.o [1]
is_mqtt_connect         0x200004dd     0x1  Data  Lc  fog_v2.o [1]
is_ps_enabled           0x0802d593     0x8  Code  Gb  mxchipWNET.o [5]
is_valid_channel        0x08044a91    0x50  Code  Gb  smart_config.o [5]
isalpha                 0x0805dd11    0x14  Code  Gb  isxxx.o [7]
ispunct                 0x0805dd25    0x14  Code  Gb  isxxx.o [7]
isspace                 0x0805dd39    0x14  Code  Gb  isxxx.o [7]
isudp                   0x200005ac     0x4  Data  Lc  mftest.o [5]
join_events             0x080745a0    0x1c  Data  Gb  wwd_wifi.o [5]
join_fail               0x08026ef5    0x1a  Code  Gb  mico_system_notification.o [1]
json_escape_str         0x0804eabd    0xde  Code  Lc  json_object.o [1]
json_hex_chars          0x20000574     0x4  Data  Gb  json_object.o [1]
json_number_chars       0x20000570     0x4  Data  Gb  json_object.o [1]
json_object_array_add   0x0804f08f     0x6  Code  Gb  json_object.o [1]
json_object_array_delete
                        0x0804f03d     0xc  Code  Lc  json_object.o [1]
json_object_array_entry_free
                        0x0804f02d    0x10  Code  Lc  json_object.o [1]
json_object_array_to_json_string
                        0x0804ef89    0x5e  Code  Lc  json_object.o [1]
json_object_boolean_to_json_string
                        0x0804ed3b    0x16  Code  Lc  json_object.o [1]
json_object_double_to_json_string
                        0x0804eeb9    0x14  Code  Lc  json_object.o [1]
json_object_generic_delete
                        0x0804ebb5     0x6  Code  Lc  json_object.o [1]
json_object_get         0x0804eb9b     0xa  Code  Gb  json_object.o [1]
json_object_get_boolean
                        0x0804ed7d    0x48  Code  Gb  json_object.o [1]
json_object_get_int     0x0804ee0b    0x76  Code  Gb  json_object.o [1]
json_object_get_object  0x0804ecfd    0x10  Code  Gb  json_object.o [1]
json_object_get_string  0x0804ef79    0x10  Code  Gb  json_object.o [1]
json_object_int_to_json_string
                        0x0804edc5    0x14  Code  Lc  json_object.o [1]
json_object_lh_entry_free
                        0x0804ec79    0x20  Code  Lc  json_object.o [1]
json_object_new_array   0x0804f049    0x40  Code  Gb  json_object.o [1]
json_object_new_boolean
                        0x0804ed51    0x24  Code  Gb  json_object.o [1]
json_object_new_double  0x0804eecd    0x32  Code  Gb  json_object.o [1]
json_object_new_int     0x0804ede5    0x26  Code  Gb  json_object.o [1]
json_object_new_int64   0x0804ee81    0x26  Code  Gb  json_object.o [1]
json_object_new_object  0x0804ecb3    0x3c  Code  Gb  json_object.o [1]
json_object_new_string  0x0804ef37    0x3e  Code  Gb  json_object.o [1]
json_object_object_add  0x0804ed0d    0x22  Code  Gb  json_object.o [1]
json_object_object_delete
                        0x0804ec99     0xa  Code  Lc  json_object.o [1]
json_object_object_get  0x0804ed2f     0xc  Code  Gb  json_object.o [1]
json_object_object_to_json_string
                        0x0804ebef    0x8a  Code  Lc  json_object.o [1]
json_object_put         0x0804eba5    0x10  Code  Gb  json_object.o [1]
json_object_string_delete
                        0x0804ef2b     0xc  Code  Lc  json_object.o [1]
json_object_string_to_json_string
                        0x0804ef05    0x26  Code  Lc  json_object.o [1]
json_object_to_json_string
                        0x0804ebbb    0x34  Code  Gb  json_object.o [1]
json_parse_int64        0x08061599    0xe0  Code  Gb  json_util.o [1]
json_tokener_parse      0x0804db91    0xba  Code  Gb  json_tokener.o [1]
json_tokener_parse_ex   0x0804dc4d   0xe50  Code  Gb  json_tokener.o [1]
keep_alive_ms           0x200085b4     0x4  Data  Lc  tcp.o [5]
keep_cnt                0x200085b8     0x4  Data  Lc  tcp.o [5]
keepalive               0x0806583b    0x6e  Code  Gb  MQTTClient.o [1]
keyEcdsaOid             0x0801decc     0x8  Data  Lc  asn.o [4]
keyRsaOid               0x0801dec0     0xc  Data  Lc  asn.o [4]
key_label               0x0801da14    0x10  Data  Lc  tls.o [4]
largest_credit_diff     0x2000867f     0x1  Data  Lc  wwd_sdpcm.o [5]
last_bus_data_credit    0x2000867d     0x1  Data  Lc  wwd_sdpcm.o [5]
last_event              0x2000868a     0x1  Data  Lc  wps_host.o [5]
last_no_bus_credit_time
                        0x200084c4     0x4  Data  Lc  wifimgr.o [5]
lease_time_option_buff  0x08075294     0x8  Data  Lc  dhcp_server.o [5]
led_blink               0x080331b9     0x2  Code  Lc  mftest.o [5]
left_ms                 0x08065d93    0x28  Code  Gb  MQTTMiCO.o [1]
lh_abort                0x080616b9    0x10  Code  Gb  linkhash.o [1]
lh_char_equal           0x080616e5     0xe  Code  Gb  linkhash.o [1]
lh_char_hash            0x080616c9    0x1c  Code  Gb  linkhash.o [1]
lh_kchar_table_new      0x080616f3    0x42  Code  Gb  linkhash.o [1]
lh_table_delete         0x0806199f    0x1a  Code  Gb  linkhash.o [1]
lh_table_delete_entry   0x08061901    0x9e  Code  Gb  linkhash.o [1]
lh_table_free           0x080617ed    0x28  Code  Gb  linkhash.o [1]
lh_table_insert         0x08061815    0x86  Code  Gb  linkhash.o [1]
lh_table_lookup         0x080618f5     0xc  Code  Gb  linkhash.o [1]
lh_table_lookup_entry   0x0806189b    0x5a  Code  Gb  linkhash.o [1]
lh_table_resize         0x0806175d    0x90  Code  Gb  linkhash.o [1]
light_sensor_init       0x0804daf9    0x12  Code  Gb  light_sensor.o [1]
link_down_callbacks     0x2000833c    0x14  Data  Lc  wiced_network.o [5]
link_events             0x08074e70     0xc  Data  Lc  wifimgr.o [5]
link_subscribe_mutex    0x2000862c     0x4  Data  Lc  wiced_network.o [5]
link_up_callbacks       0x20008328    0x14  Data  Lc  wiced_network.o [5]
listen                  0x0803cf1d     0x4  Code  Gb  mico_socket.o [1]
localConfig_thread      0x0805858d   0x476  Code  Lc  config_server.o [1]
localConfiglistener_thread
                        0x08058169   0x31e  Code  Lc  config_server.o [1]
localeconv              0x0803d91b    0x16  Code  Gb  localeconv.o [7]
log_function            0x2000863c     0x4  Data  Lc  logging.o [4]
loggingEnabled          0x20008640     0x4  Data  Lc  logging.o [4]
loop_netif              0x20007cdc    0x44  Data  Lc  netif.o [5]
low_level_init          0x0805fc79    0x3a  Code  Lc  wwd_network.o [5]
low_level_output        0x0805fcb3    0x2c  Code  Lc  wwd_network.o [5]
lwip_accept             0x0803b675   0x166  Code  Gb  sockets.o [5]
lwip_bind               0x0803b7db    0x9c  Code  Gb  sockets.o [5]
lwip_close              0x0803b877    0x44  Code  Gb  sockets.o [5]
lwip_connect            0x0803b8bb    0xac  Code  Gb  sockets.o [5]
lwip_gethostbyname      0x0805a59d    0x50  Code  Gb  netdb.o [5]
lwip_getsockopt         0x0803c47d   0x196  Code  Gb  sockets.o [5]
lwip_getsockopt_internal
                        0x0803c615   0x1ec  Code  Lc  sockets.o [5]
lwip_htonl              0x080464cf    0x18  Code  Gb  def.o [5]
lwip_htons              0x080464b9     0xc  Code  Gb  def.o [5]
lwip_igmp_mac_filter    0x0805fd9d    0x5a  Code  Lc  wwd_network.o [5]
lwip_init               0x08067ded    0x20  Code  Gb  init.o [5]
lwip_listen             0x0803b967    0x74  Code  Gb  sockets.o [5]
lwip_ntohl              0x080464e7     0x8  Code  Gb  def.o [5]
lwip_ntohs              0x080464c5     0xa  Code  Gb  def.o [5]
lwip_recv               0x0803bc27    0x10  Code  Gb  sockets.o [5]
lwip_recvfrom           0x0803b9db   0x24c  Code  Gb  sockets.o [5]
lwip_select             0x0803c309    0x10  Code  Gb  sockets.o [5]
lwip_select2            0x0803c063   0x29e  Code  Gb  sockets.o [5]
lwip_selscan            0x0803be9d   0x1c6  Code  Lc  sockets.o [5]
lwip_send               0x0803bc37    0xb8  Code  Gb  sockets.o [5]
lwip_sendto             0x0803bcef   0x102  Code  Gb  sockets.o [5]
lwip_setsockopt         0x0803c801   0x1c2  Code  Gb  sockets.o [5]
lwip_setsockopt_internal
                        0x0803c9d1   0x1f0  Code  Lc  sockets.o [5]
lwip_socket             0x0803bdf1    0xa2  Code  Gb  sockets.o [5]
lwip_socket_init        0x0803b529     0x2  Code  Gb  sockets.o [5]
lwip_standard_chksum    0x0805dd63    0x64  Code  Lc  inet_chksum.o [5]
mDNS_fd                 0x20000480     0x4  Data  Lc  mico_mdns.o [1]
mac_monitor             0x20008564     0x4  Data  Lc  smart_config.o [5]
mac_report_cb           0x0802d6df     0x2  Code  Wk  mxchipWNET.o [5]
magic_code_valide       0x08044d35   0x156  Code  Lc  smart_config.o [5]
magic_tbl               0x200080e4    0x28  Data  Lc  smart_config.o [5]
main                    0x08016511    0x58  Code  Gb  mico_rtos.o [1]
master_label            0x0801da04    0x10  Data  Lc  tls.o [4]
max_bus_credit_diff     0x200005a4     0x4  Data  Lc  wwd_sdpcm.o [5]
max_channel             0x200005b0     0x4  Data  Lc  smart_config.o [5]
max_channel_index       0x20008544     0x4  Data  Lc  smart_config.o [5]
max_syscall_int_prio    0x20000518     0x4  Data  Gb  mico_rtos.o [1]
mbox                    0x2000852c     0x4  Data  Lc  lwiptcpip.o [5]
mcs_data_rate_lookup_table
                        0x080733f0   0x100  Data  Lc  wwd_wifi.o [5]
mdns_add_record         0x0806210b   0x1aa  Code  Gb  mico_mdns.o [1]
mdns_addr               0x20008520     0x4  Data  Lc  igmp.o [5]
mdns_get_record_status  0x0806244f    0x1a  Code  Gb  mico_mdns.o [1]
mdns_resume_record      0x080623c5    0x8a  Code  Gb  mico_mdns.o [1]
mdns_send_message       0x08061fc3    0x60  Code  Lc  mico_mdns.o [1]
mdns_suspend_record     0x0806231f    0xa6  Code  Gb  mico_mdns.o [1]
mdns_update_txt_record  0x080622b5    0x6a  Code  Gb  mico_mdns.o [1]
memchr                  0x0803cfc9          Code  Gb  memchr.o [10]
memory_dump_Command     0x08032f79    0xa0  Code  Gb  wifimgr.o [5]
memory_set_Command      0x08033019    0x96  Code  Gb  wifimgr.o [5]
memory_show_Command     0x08032f01    0x6e  Code  Gb  wifimgr.o [5]
memp_desc               0x2000037c    0x40  Data  Lc  memp.o [5]
memp_desc_get           0x0805c4e5     0xa  Code  Gb  memp.o [5]
memp_dump_Command       0x0805c4ef    0xae  Code  Gb  memp.o [5]
memp_free               0x0805c46f    0x26  Code  Gb  memp.o [5]
memp_free_use           0x0805c4c1    0x24  Code  Gb  memp.o [5]
memp_head               0x20007da0    0x40  Data  Lc  memp.o [5]
memp_in_use             0x0805c495    0x2c  Code  Gb  memp.o [5]
memp_init               0x0805c3dd    0x62  Code  Gb  memp.o [5]
memp_malloc             0x0805c43f    0x30  Code  Gb  memp.o [5]
memp_memory             0x2000062c  0x533c  Data  Lc  memp.o [5]
memp_num                0x080742f8    0x20  Data  Lc  memp.o [5]
memp_sizes              0x080742d8    0x20  Data  Lc  memp.o [5]
memp_tab                0x20007d60    0x40  Data  Lc  memp.o [5]
messageArrived          0x08054219   0x10e  Code  Lc  fog_mqtt.o [1]
mf_get_line             0x0802fd1b    0x82  Code  Gb  qc_test_cli.o [1]
mf_join_ap              0x0803321d    0x2a  Code  Lc  mftest.o [5]
mf_printf               0x0802fd05    0x16  Code  Gb  qc_test_cli.o [1]
mfg_connect             0x080333b1   0x138  Code  Gb  mftest.o [5]
mfg_scan                0x08033371    0x40  Code  Gb  mftest.o [5]
mfg_test_module_number  0x200083f6     0x2  Data  Gb  micokit_ext_mfg.o [1]
mfg_test_state_change_sem
                        0x200083f8     0x4  Data  Gb  micokit_ext_mfg.o [1]
mfi_bonjour_thread_handler
                        0x20000498     0x4  Data  Lc  mico_mdns.o [1]
mgmt_smart_type         0x2000855c     0x4  Data  Lc  smart_config.o [5]
micoNotify_ConnectFailedHandler
                        0x0802feb7    0x4e  Code  Lc  system_misc.o [1]
micoNotify_DHCPCompleteHandler
                        0x0802fe25    0x92  Code  Lc  system_misc.o [1]
micoNotify_StackOverflowErrHandler
                        0x0802ff65    0x56  Code  Lc  system_misc.o [1]
micoNotify_WiFIParaChangedHandler
                        0x080300f9   0x104  Code  Lc  system_misc.o [1]
micoNotify_WifiStatusHandler
                        0x0802ffbb   0x13a  Code  Lc  system_misc.o [1]
micoNotify_WlanFatalErrHandler
                        0x0802ff0d    0x58  Code  Lc  system_misc.o [1]
mico_app_info           0x0803076d    0x26  Code  Gb  system_misc.o [1]
mico_create_event_fd    0x0803cc11    0x2e  Code  Gb  sockets.o [5]
mico_debug_enabled      0x20000580     0x4  Data  Gb  mico_config.o [1]
mico_deinit_timer       0x08016c51    0x22  Code  Gb  mico_rtos.o [1]
mico_delete_event_fd    0x0803cc3f    0x38  Code  Gb  sockets.o [5]
mico_easylink_bonjour_start
                        0x08056725   0x142  Code  Lc  system_easylink.o [1]
mico_free               0x08016ccd     0x4  Code  Gb  mico_rtos.o [1]
mico_get_bootloader_ver
                        0x0802ce45    0x6e  Code  Gb  mico_platform_common.o [1]
mico_get_time           0x0802d63b     0x8  Code  Gb  mxchipWNET.o [5]
mico_gpio_input_get     0x0802c749    0x14  Code  Gb  mico_platform_common.o [1]
mico_hardware_io_worker_thread
                        0x20008350     0x8  Data  Gb  mico_rtos_common.o [1]
mico_init_timer         0x08016b19    0x94  Code  Gb  mico_rtos.o [1]
mico_malloc             0x08016cc9     0x4  Code  Gb  mico_rtos.o [1]
mico_memory_info        0x0802d6ad    0x28  Code  Wk  mxchipWNET.o [5]
mico_monitor            0x200080a8     0x8  Data  Lc  mico_system_monitor.o [1]
mico_nanosecond_delay   0x0802cefd     0x4  Code  Gb  mico_platform_common.o [1]
mico_nmode_enable       0x08074df4     0x4  Data  Gb  mico_config.o [1]
mico_ota_finished       0x080671b5    0x44  Code  Wk  tftp_ota.o [1]
mico_ota_switch_to_new_fw
                        0x08035115    0x36  Code  Gb  mico_system_para_storage.o [1]
mico_partitions         0x08072458    0xa0  Data  Gb  platform.o [1]
mico_platform_init      0x0802c649    0xa2  Code  Gb  mico_platform_common.o [1]
mico_realloc            0x08016cd1     0x4  Code  Gb  mico_rtos.o [1]
mico_rtos_create_thread
                        0x08016585    0x36  Code  Gb  mico_rtos.o [1]
mico_rtos_deinit_mutex  0x080169c9    0x6c  Code  Gb  mico_rtos.o [1]
mico_rtos_deinit_queue  0x08016ac3    0x10  Code  Gb  mico_rtos.o [1]
mico_rtos_deinit_semaphore
                        0x08016849    0x14  Code  Gb  mico_rtos.o [1]
mico_rtos_delay_milliseconds
                        0x08016c81    0x16  Code  Gb  mico_rtos.o [1]
mico_rtos_delete_thread
                        0x080165bb    0x1e  Code  Gb  mico_rtos.o [1]
mico_rtos_deregister_timed_event
                        0x080337fb    0x20  Code  Gb  mico_rtos_common.o [1]
mico_rtos_enter_critical
                        0x0801685d     0x4  Code  Gb  mico_rtos.o [1]
mico_rtos_exit_critical
                        0x08016861     0x4  Code  Gb  mico_rtos.o [1]
mico_rtos_get_semaphore
                        0x080167dd    0x24  Code  Gb  mico_rtos.o [1]
mico_rtos_get_time      0x08016c73     0xe  Code  Gb  mico_rtos.o [1]
mico_rtos_init          0x080336a5    0xf8  Code  Gb  mico_rtos_common.o [1]
mico_rtos_init_mutex    0x08016869    0x70  Code  Gb  mico_rtos.o [1]
mico_rtos_init_queue    0x08016a35    0x18  Code  Gb  mico_rtos.o [1]
mico_rtos_init_semaphore
                        0x080167c3    0x14  Code  Gb  mico_rtos.o [1]
mico_rtos_is_current_thread
                        0x08016605    0x16  Code  Gb  mico_rtos.o [1]
mico_rtos_is_queue_empty
                        0x08016ad3    0x10  Code  Gb  mico_rtos.o [1]
mico_rtos_is_queue_full
                        0x08016ae3     0xe  Code  Gb  mico_rtos.o [1]
mico_rtos_lock_mutex    0x080168d9    0x78  Code  Gb  mico_rtos.o [1]
mico_rtos_pop_from_queue
                        0x08016aa5    0x1e  Code  Gb  mico_rtos.o [1]
mico_rtos_print_thread_status
                        0x0801661b   0x182  Code  Gb  mico_rtos.o [1]
mico_rtos_push_to_queue
                        0x08016a4d    0x52  Code  Gb  mico_rtos.o [1]
mico_rtos_register_timed_event
                        0x080337b9    0x42  Code  Gb  mico_rtos_common.o [1]
mico_rtos_send_asynchronous_event
                        0x0803381b    0x18  Code  Gb  mico_rtos_common.o [1]
mico_rtos_set_semaphore
                        0x08016801    0x42  Code  Gb  mico_rtos.o [1]
mico_rtos_stack_overflow
                        0x08026f25    0x1a  Code  Gb  mico_system_notification.o [1]
mico_rtos_thread_force_awake
                        0x0801679d     0xc  Code  Gb  mico_rtos.o [1]
mico_rtos_thread_join   0x080165d9    0x2c  Code  Gb  mico_rtos.o [1]
mico_rtos_thread_msleep
                        0x08033855     0x4  Code  Gb  mico_rtos_common.o [1]
mico_rtos_thread_sleep  0x08033853     0x2  Code  Gb  mico_rtos_common.o [1]
mico_rtos_unlock_mutex  0x08016951    0x76  Code  Gb  mico_rtos.o [1]
mico_sdk_version        0x08030725     0xc  Code  Gb  system_misc.o [1]
mico_spi_flash          0x080724f8     0xc  Data  Gb  platform.o [1]
mico_start_timer        0x08016bad    0x56  Code  Gb  mico_rtos.o [1]
mico_stop_timer         0x08016c03    0x4e  Code  Gb  mico_rtos.o [1]
mico_system_context_get
                        0x080345a5     0x8  Code  Gb  mico_system_para_storage.o [1]
mico_system_context_get_user_data
                        0x080345ad     0xe  Code  Gb  mico_system_para_storage.o [1]
mico_system_context_init
                        0x0803448f    0xe6  Code  Gb  mico_system_para_storage.o [1]
mico_system_context_restore
                        0x08034941    0xfc  Code  Gb  mico_system_para_storage.o [1]
mico_system_context_update
                        0x08035037    0xb8  Code  Gb  mico_system_para_storage.o [1]
mico_system_delegate_config_recv_auth_data
                        0x08066a79     0x4  Code  Wk  system_easylink_delegate.o [1]
mico_system_delegate_config_recv_ssid
                        0x08066a39    0x2c  Code  Wk  system_easylink_delegate.o [1]
mico_system_delegate_config_success
                        0x08066a77     0x2  Code  Wk  system_easylink_delegate.o [1]
mico_system_delegate_config_will_start
                        0x080669eb    0x20  Code  Wk  system_easylink_delegate.o [1]
mico_system_delegate_config_will_stop
                        0x08066a0b    0x22  Code  Wk  system_easylink_delegate.o [1]
mico_system_get_status_wlan
                        0x08030731    0x12  Code  Gb  system_misc.o [1]
mico_system_init        0x0803afe9   0x312  Code  Gb  mico_system_init.o [1]
mico_system_monitor_daemen_start
                        0x08056e23    0xf2  Code  Gb  mico_system_monitor.o [1]
mico_system_monitor_thread_main
                        0x08056dd5    0x32  Code  Gb  mico_system_monitor.o [1]
mico_system_notify_register
                        0x08026f3f    0x9c  Code  Gb  mico_system_notification.o [1]
mico_system_notify_remove
                        0x08026fdb    0xd6  Code  Gb  mico_system_notification.o [1]
mico_system_notify_remove_all
                        0x080270b1    0x20  Code  Gb  mico_system_notification.o [1]
mico_system_power_perform
                        0x08034179    0x84  Code  Gb  mico_system_power_daemon.o [1]
mico_system_qc_test     0x08025545    0x22  Code  Gb  qc_test.o [1]
mico_tick_rate_hz       0x08074dec     0x4  Data  Gb  mico_config.o [1]
mico_time_get_time      0x080167a9    0x1a  Code  Gb  mico_rtos.o [1]
mico_time_offset        0x20000514     0x4  Data  Lc  mico_rtos.o [1]
mico_worker_thread      0x20008358     0x8  Data  Gb  mico_rtos_common.o [1]
micodebug_Command       0x080578f5    0x7e  Code  Lc  mico_cli.o [1]
micokit_ext_init        0x08034441     0x2  Code  Gb  micokit_ext.o [1]
micokit_spi_oled        0x0804d4f8     0xc  Data  Gb  oled.o [1]
min                     0x0801a833     0xa  Code  Lc  sha512.o [4]
min                     0x0800c1bd     0xa  Code  Lc  internal.o [4]
minus_data_decode       0x080451d9   0x17c  Code  Lc  smart_config.o [5]
minus_got_pkt           0x20008434     0x8  Data  Lc  smart_config.o [5]
minus_pkt_len           0x20008689     0x1  Data  Lc  smart_config.o [5]
minus_pkt_num           0x20008688     0x1  Data  Lc  smart_config.o [5]
mmap_resize             0x0802d881    0x96  Code  Lc  dlmalloc.o [5]
modbus_device_relation_event
                        0x0803a141   0x4a0  Code  Gb  fog_v2.o [1]
modbus_devices_activate
                        0x0806b0e1   0x35e  Code  Gb  user_uart_data_process.o [1]
modbus_devs             0x200070d0    0x24  Data  Gb  user_uart_data_process.o [1]
modbus_fog_v2_device_send_event
                        0x08039b25   0x496  Code  Gb  fog_v2.o [1]
modbus_real_data_queue  0x200071f8     0x4  Data  Gb  user_uart_data_process.o [1]
monitor_ignore          0x2000857c     0x4  Data  Lc  smart_config.o [5]
monitor_mode_enabled    0x2000868f     0x1  Data  Gb  wwd_wifi.o [5]
monitor_normal_filter   0x08044849    0x7a  Code  Gb  smart_config.o [5]
monitor_normal_filter_remove
                        0x080448cd    0x24  Code  Gb  smart_config.o [5]
mp_2expt                0x08028889    0x10  Code  Gb  integer.o [4]
mp_abs                  0x0802786f    0x14  Code  Gb  integer.o [4]
mp_add                  0x08027fa1    0x3e  Code  Gb  integer.o [4]
mp_add_d                0x08029357    0xa0  Code  Gb  integer.o [4]
mp_clamp                0x0802753f    0x1e  Code  Gb  integer.o [4]
mp_clear                0x080272c9    0x24  Code  Gb  integer.o [4]
mp_cmp                  0x08027d3b    0x20  Code  Gb  integer.o [4]
mp_cmp_d                0x08027d5b    0x22  Code  Gb  integer.o [4]
mp_cmp_mag              0x08027cf1    0x4a  Code  Gb  integer.o [4]
mp_copy                 0x080273fb    0x54  Code  Gb  integer.o [4]
mp_count_bits           0x08027339    0x26  Code  Gb  integer.o [4]
mp_div                  0x08027ddb   0x158  Code  Gb  integer.o [4]
mp_div_2                0x08027f39    0x68  Code  Gb  integer.o [4]
mp_div_2d               0x0802748f    0x92  Code  Gb  integer.o [4]
mp_dr_is_modulus        0x080281dd    0x26  Code  Gb  integer.o [4]
mp_dr_reduce            0x08028725    0x74  Code  Gb  integer.o [4]
mp_dr_setup             0x08028719     0xc  Code  Gb  integer.o [4]
mp_exch                 0x0802755d    0x2a  Code  Gb  integer.o [4]
mp_exptmod              0x080277a7    0xbc  Code  Gb  integer.o [4]
mp_exptmod_fast         0x08028203   0x2b8  Code  Gb  integer.o [4]
mp_forcezero            0x080272ed    0x26  Code  Gb  integer.o [4]
mp_grow                 0x08027457    0x38  Code  Gb  integer.o [4]
mp_init                 0x0802729d    0x2c  Code  Gb  integer.o [4]
mp_init_copy            0x080273e3    0x18  Code  Gb  integer.o [4]
mp_init_multi           0x080271e1    0xb8  Code  Gb  integer.o [4]
mp_init_size            0x08028a2b    0x2c  Code  Gb  integer.o [4]
mp_invmod               0x08027883    0x22  Code  Gb  integer.o [4]
mp_invmod_slow          0x08027a81   0x258  Code  Gb  integer.o [4]
mp_leading_bit          0x0802735f    0x30  Code  Gb  integer.o [4]
mp_lshd                 0x0802775f    0x48  Code  Gb  integer.o [4]
mp_mod                  0x08027d9b    0x40  Code  Gb  integer.o [4]
mp_mod_2d               0x080275ff    0x7a  Code  Gb  integer.o [4]
mp_montgomery_calc_normalization
                        0x08028d6b    0x68  Code  Gb  integer.o [4]
mp_montgomery_reduce    0x0802864d    0xc6  Code  Gb  integer.o [4]
mp_montgomery_setup     0x080284d5    0x40  Code  Gb  integer.o [4]
mp_mul                  0x0802897f    0x40  Code  Gb  integer.o [4]
mp_mul_2                0x080289bf    0x6c  Code  Gb  integer.o [4]
mp_mul_2d               0x080276c9    0x96  Code  Gb  integer.o [4]
mp_mul_d                0x080288a1    0x72  Code  Gb  integer.o [4]
mp_mulmod               0x08028913    0x28  Code  Gb  integer.o [4]
mp_read_radix           0x080294d7    0x86  Code  Gb  integer.o [4]
mp_read_unsigned_bin    0x08027679    0x50  Code  Gb  integer.o [4]
mp_reduce               0x0802906d    0xc8  Code  Gb  integer.o [4]
mp_reduce_2k            0x080287a1    0x50  Code  Gb  integer.o [4]
mp_reduce_2k_l          0x08029135    0x4a  Code  Gb  integer.o [4]
mp_reduce_2k_setup      0x080287f7    0x48  Code  Gb  integer.o [4]
mp_reduce_2k_setup_l    0x080291ab    0x30  Code  Gb  integer.o [4]
mp_reduce_is_2k         0x08028199    0x44  Code  Gb  integer.o [4]
mp_reduce_is_2k_l       0x0802815f    0x3a  Code  Gb  integer.o [4]
mp_reduce_setup         0x08029041    0x28  Code  Gb  integer.o [4]
mp_rshb                 0x08027587    0x34  Code  Gb  integer.o [4]
mp_rshd                 0x080275bb    0x44  Code  Gb  integer.o [4]
mp_s_rmap               0x200005d0     0x4  Data  Gb  integer.o [4]
mp_set                  0x08027d83    0x18  Code  Gb  integer.o [4]
mp_set_bit              0x08028849    0x40  Code  Gb  integer.o [4]
mp_sqr                  0x08028959    0x26  Code  Gb  integer.o [4]
mp_sub                  0x0802811d    0x42  Code  Gb  integer.o [4]
mp_sub_d                0x08029407    0x9c  Code  Gb  integer.o [4]
mp_to_unsigned_bin      0x0802738f    0x4a  Code  Gb  integer.o [4]
mp_unsigned_bin_size    0x0802731f    0x1a  Code  Gb  integer.o [4]
mp_zero                 0x08027521    0x1e  Code  Gb  integer.o [4]
mparams                 0x20008294    0x18  Data  Lc  dlmalloc.o [5]
mqtt_client_thread      0x080532dd   0x9d0  Code  Lc  fog_mqtt.o [1]
mqtt_context            0x20008460     0x4  Data  Gb  fog_mqtt.o [1]
ms_per_channel          0x200005a0     0x4  Data  Lc  wifimgr.o [5]
ms_to_tick_ratio        0x2000051c     0x4  Data  Gb  mico_rtos.o [1]
msleep                  0x08033865     0x4  Code  Gb  mico_rtos_common.o [1]
mtu_option_buff         0x080752bc     0x4  Data  Lc  dhcp_server.o [5]
mtx                     0x20008020    0x14  Data  Lc  xsyslock_mtx.o [7]
mxchipInit              0x0802d2b1    0x40  Code  Gb  mxchipWNET.o [5]
mxchip_easy_link_start  0x08044a19     0xa  Code  Gb  smart_config.o [5]
mxchip_inited           0x20008498     0x4  Data  Lc  mxchipWNET.o [5]
mxchip_thread_init      0x08032061    0x5c  Code  Gb  wifimgr.o [5]
mxchip_timer_inited     0x20000528     0x4  Data  Lc  mico_rtos_common.o [1]
mystrnstr               0x080141e1    0x3a  Code  Gb  ssl.o [4]
name_server_get         0x08040dd1     0xe  Code  Gb  dns.o [5]
ndigs                   0x08060e80    0x28  Data  Lc  xstoul.o [7]
ndigs                   0x0806a418    0x28  Data  Lc  xstoull.o [7]
needs_update            0x20008248     0x1  Data  Lc  mico_system_power_daemon.o [1]
netbuf_alloc            0x08059c9f    0x3c  Code  Gb  netbuf.o [5]
netbuf_delete           0x08059c79    0x26  Code  Gb  netbuf.o [5]
netbuf_first            0x08059d27     0xa  Code  Gb  netbuf.o [5]
netbuf_free             0x08059cdb    0x1e  Code  Gb  netbuf.o [5]
netbuf_new              0x08059c57    0x22  Code  Gb  netbuf.o [5]
netbuf_next             0x08059cf9    0x2e  Code  Gb  netbuf.o [5]
netconn_accept          0x0804a4b1    0xbe  Code  Gb  api_lib.o [5]
netconn_alloc           0x080602ad    0x90  Code  Gb  api_msg.o [5]
netconn_bind            0x0804a3ad    0x42  Code  Gb  api_lib.o [5]
netconn_connect         0x0804a3ef    0x46  Code  Gb  api_lib.o [5]
netconn_delete          0x0804a32d    0x28  Code  Gb  api_lib.o [5]
netconn_disconnect      0x0804a435    0x3c  Code  Gb  api_lib.o [5]
netconn_drain           0x0806036b    0xba  Code  Lc  api_msg.o [5]
netconn_free            0x0806033d    0x2e  Code  Gb  api_msg.o [5]
netconn_getaddr         0x0804a355    0x58  Code  Gb  api_lib.o [5]
netconn_gethostbyname   0x0804a87f    0x62  Code  Gb  api_lib.o [5]
netconn_listen_with_backlog
                        0x0804a471    0x40  Code  Gb  api_lib.o [5]
netconn_new_with_proto_and_callback
                        0x0804a2c9    0x64  Code  Gb  api_lib.o [5]
netconn_recv            0x0804a69b    0xa6  Code  Gb  api_lib.o [5]
netconn_recv_data       0x0804a56f   0x114  Code  Lc  api_lib.o [5]
netconn_recv_tcp_pbuf   0x0804a683    0x18  Code  Gb  api_lib.o [5]
netconn_recved          0x0804a741    0x28  Code  Gb  api_lib.o [5]
netconn_send            0x0804a769    0x3c  Code  Gb  api_lib.o [5]
netconn_write           0x0804a7a5    0x56  Code  Gb  api_lib.o [5]
netconn_write_partyly   0x0804a7fb    0x84  Code  Gb  api_lib.o [5]
netif_add               0x0805e26d    0x70  Code  Gb  netif.o [5]
netif_add_udp_recv_filter
                        0x0804ca29    0x56  Code  Gb  udp.o [5]
netif_default           0x20008648     0x4  Data  Gb  netif.o [5]
netif_find              0x0805e389    0x40  Code  Gb  netif.o [5]
netif_init              0x0805e23b    0x32  Code  Gb  netif.o [5]
netif_list              0x20008644     0x4  Data  Gb  netif.o [5]
netif_loop_output       0x0805e4b5    0x70  Code  Gb  netif.o [5]
netif_loopif_init       0x0805e225    0x16  Code  Lc  netif.o [5]
netif_poll              0x0805e525    0x58  Code  Gb  netif.o [5]
netif_remove            0x0805e321    0x68  Code  Gb  netif.o [5]
netif_remove_pcbs       0x0805e2fd    0x24  Code  Lc  netif.o [5]
netif_remove_udp_recv_filter
                        0x0804ca7f    0x60  Code  Gb  udp.o [5]
netif_set_addr          0x0805e2dd    0x20  Code  Gb  netif.o [5]
netif_set_default       0x0805e431     0x6  Code  Gb  netif.o [5]
netif_set_down          0x0805e49d    0x16  Code  Gb  netif.o [5]
netif_set_gw            0x0805e415     0xe  Code  Gb  netif.o [5]
netif_set_ipaddr        0x0805e3c9    0x4c  Code  Gb  netif.o [5]
netif_set_netmask       0x0805e423     0xe  Code  Gb  netif.o [5]
netif_set_up            0x0805e45d    0x40  Code  Gb  netif.o [5]
netif_unwanted_udp_packet
                        0x0804cadf    0x30  Code  Gb  udp.o [5]
netifapi_netif_common   0x0805fbf7    0x1c  Code  Gb  netifapi.o [5]
network_tcp_send_packet
                        0x080408b5    0x8e  Code  Gb  tcpip.o [5]
next_timeout            0x2000864c     0x4  Data  Lc  lwiptimers.o [5]
no_pmk_cache            0x200084bc     0x4  Data  Lc  wifimgr.o [5]
ns_divisor              0x200082c0     0x4  Data  Lc  platform_nsclock.o [1]
nsclock_nsec            0x200082b0     0x8  Data  Lc  platform_nsclock.o [1]
nsclock_sec             0x200082b8     0x4  Data  Lc  platform_nsclock.o [1]
ntohl                   0x0802d633     0x8  Code  Gb  mxchipWNET.o [5]
number_of_probes_per_channel
                        0x2000059c     0x4  Data  Lc  wifimgr.o [5]
obuf                    0x20007c8c    0x50  Data  Lc  xfiles.o [7]
off_channel_results     0x200085d8     0x4  Data  Lc  wifi.o [5]
onClearData             0x08050b31    0x12  Code  Lc  fog_http_client.o [1]
onClearHTTPHeader       0x08058c49    0x1a  Code  Lc  config_server.o [1]
onReceivedData          0x08058a39   0x208  Code  Lc  config_server.o [1]
onReceivedData          0x08050929   0x162  Code  Lc  fog_http_client.o [1]
onReceivedData          0x08052cdd   0x1b6  Code  Lc  fog_ota.o [1]
os_tick_                0x0802d643     0x2  Code  Gb  mxchipWNET.o [5]
ota_Command             0x080575b5    0x22  Code  Lc  mico_cli.o [1]
ota_file_len            0x200000d4     0x4  Data  Lc  fog_ota.o [1]
ota_file_md5            0x200000dc    0x80  Data  Lc  fog_ota.o [1]
ota_reveive_index       0x200000d0     0x4  Data  Lc  fog_ota.o [1]
ota_sem                 0x200000cc     0x4  Data  Lc  fog_ota.o [1]
ota_set_tcp_keepalive   0x08052085   0x2aa  Code  Lc  fog_ota.o [1]
outputA                 0x0801d2d0    0x80  Data  Gb  random.o [4]
outputB                 0x0801d380    0x80  Data  Gb  random.o [4]
pCli                    0x20007a94     0x4  Data  Lc  mico_cli.o [1]
pPrintffunc             0x20008600     0x4  Data  Gb  mxchip_debug.o [5]
p_bme280                0x2000845c     0x4  Data  Lc  bme280.o [1]
p_hash                  0x0801d40b    0xf6  Code  Lc  tls.o [4]
p_minus_buffer          0x20008578     0x4  Data  Lc  smart_config.o [5]
p_result_head           0x200084a0     0x4  Data  Lc  wifimgr.o [5]
p_scan_buff             0x2000058c     0x4  Data  Gb  wifimgr.o [5]
p_sem                   0x20008540     0x4  Data  Lc  smart_config.o [5]
parse_mqtt_msg          0x0806f525   0x52c  Code  Gb  user_downstream.o [1]
parse_ota_respose       0x08050c87   0x66e  Code  Lc  fog_ota.o [1]
parse_query             0x080651ff    0x7c  Code  Gb  url.o [1]
parse_ssid_ie           0x08045381   0x1ce  Code  Lc  smart_config.o [5]
partShow_Command        0x08057521    0x56  Code  Lc  mico_cli.o [1]
pbkdf2Oid               0x0801df60     0xc  Data  Lc  asn.o [4]
pbuf_alloc              0x080471d9   0x17c  Code  Gb  pbuf.o [5]
pbuf_alloc_copy         0x08047355    0x5a  Code  Gb  pbuf.o [5]
pbuf_cat                0x08047531    0x28  Code  Gb  pbuf.o [5]
pbuf_chain              0x08047559    0x12  Code  Gb  pbuf.o [5]
pbuf_clen               0x08047507    0x12  Code  Gb  pbuf.o [5]
pbuf_copy               0x0804756b    0xb4  Code  Gb  pbuf.o [5]
pbuf_copy_partial       0x0804761f    0x9c  Code  Gb  pbuf.o [5]
pbuf_free               0x0804748f    0x78  Code  Gb  pbuf.o [5]
pbuf_free_ooseq         0x08047165    0x30  Code  Lc  pbuf.o [5]
pbuf_free_ooseq_queued  0x20008685     0x1  Data  Lc  pbuf.o [5]
pbuf_header             0x080473fb    0x94  Code  Gb  pbuf.o [5]
pbuf_pool_is_empty      0x08047195    0x38  Code  Lc  pbuf.o [5]
pbuf_realloc            0x080473af    0x4c  Code  Gb  pbuf.o [5]
pbuf_ref                0x08047519    0x18  Code  Gb  pbuf.o [5]
pbuf_take               0x080476bb    0x6c  Code  Gb  pbuf.o [5]
pcb_new                 0x080601e9    0xa4  Code  Lc  api_msg.o [5]
ping_Command            0x08032cd9    0xde  Code  Gb  wifimgr.o [5]
ping_packet             0x20008134    0x28  Data  Lc  wiced_ping.o [5]
ping_prepare_echo       0x0805b30d    0x48  Code  Lc  wiced_ping.o [5]
ping_recv               0x0805b3a1    0x64  Code  Lc  wiced_ping.o [5]
ping_send               0x0805b355    0x4c  Code  Lc  wiced_ping.o [5]
ping_seq_num            0x20008672     0x2  Data  Lc  wiced_ping.o [5]
ping_target_ip          0x20008300    0x14  Data  Lc  mftest.o [5]
ping_timed_event        0x2000827c    0x18  Data  Gb  mftest.o [5]
ping_times              0x200084f8     0x4  Data  Lc  mftest.o [5]
pkt_buffer              0x20007310   0x100  Data  Lc  smart_config.o [5]
pkt_num                 0x2000853c     0x4  Data  Lc  smart_config.o [5]
pkt_state               0x20007410   0x100  Data  Lc  smart_config.o [5]
pkt_tbl                 0x20007bec    0x50  Data  Lc  smart_config.o [5]
pkt_type                0x08045559    0xb8  Code  Lc  smart_config.o [5]
platform_adc_init       0x0803e6e1   0x120  Code  Gb  platform_adc.o [1]
platform_adc_peripherals
                        0x08072504    0x28  Data  Gb  platform.o [1]
platform_flash_drivers  0x20008264    0x18  Data  Gb  platform.o [1]
platform_flash_erase    0x0803f665   0x184  Code  Gb  platform_flash.o [1]
platform_flash_init     0x0803f5dd    0x88  Code  Gb  platform_flash.o [1]
platform_flash_peripherals
                        0x08072438    0x20  Data  Gb  platform.o [1]
platform_flash_read     0x0803f919    0xf8  Code  Gb  platform_flash.o [1]
platform_flash_write    0x0803f7e9   0x12c  Code  Gb  platform_flash.o [1]
platform_get_cycle_count
                        0x080269a5     0x6  Code  Gb  platform_core.o [1]
platform_get_nanosecond_clock_value
                        0x0802c109    0x7c  Code  Gb  platform_nsclock.o [1]
platform_get_wifi_image
                        0x0802c0c7    0x36  Code  Gb  wlan_platform_common.o [1]
platform_get_wifi_image_size
                        0x0802c05f    0x68  Code  Gb  wlan_platform_common.o [1]
platform_gpio_deinit    0x0802b391    0x3e  Code  Gb  platform_gpio.o [1]
platform_gpio_enable_clock
                        0x0802b5df    0x78  Code  Gb  platform_gpio.o [1]
platform_gpio_init      0x0802b29d    0xf4  Code  Gb  platform_gpio.o [1]
platform_gpio_input_get
                        0x0802b43b    0x1c  Code  Gb  platform_gpio.o [1]
platform_gpio_irq_enable
                        0x0802b457   0x170  Code  Gb  platform_gpio.o [1]
platform_gpio_irq_manager_init
                        0x0802b5c7    0x18  Code  Gb  platform_gpio.o [1]
platform_gpio_output_high
                        0x0802b3cf    0x20  Code  Gb  platform_gpio.o [1]
platform_gpio_output_low
                        0x0802b3ef    0x1e  Code  Gb  platform_gpio.o [1]
platform_gpio_output_trigger
                        0x0802b415    0x26  Code  Gb  platform_gpio.o [1]
platform_gpio_pins      0x08072240    0xf0  Data  Gb  platform.o [1]
platform_gpio_set_alternate_function
                        0x0802b657    0xae  Code  Gb  platform_gpio.o [1]
platform_i2c_deinit     0x0803eba7    0x20  Code  Gb  platform_i2c.o [1]
platform_i2c_drivers    0x20008470     0x4  Data  Gb  platform.o [1]
platform_i2c_init       0x0803e8d5   0x162  Code  Gb  platform_i2c.o [1]
platform_i2c_init_combined_message
                        0x0803eac5    0x3a  Code  Gb  platform_i2c.o [1]
platform_i2c_init_rx_message
                        0x0803ea97    0x28  Code  Gb  platform_i2c.o [1]
platform_i2c_init_tx_message
                        0x0803ea6d    0x2a  Code  Gb  platform_i2c.o [1]
platform_i2c_peripherals
                        0x08072330    0x34  Data  Gb  platform.o [1]
platform_i2c_probe_device
                        0x0803ea37    0x36  Code  Gb  platform_i2c.o [1]
platform_i2c_transfer   0x0803eaff    0xa8  Code  Gb  platform_i2c.o [1]
platform_init_nanosecond_clock
                        0x0802c185    0x42  Code  Gb  platform_nsclock.o [1]
platform_init_peripheral_irq_priorities
                        0x0802486b    0x62  Code  Gb  platform.o [1]
platform_is_in_interrupt_context
                        0x080269ab    0x12  Code  Gb  platform_core.o [1]
platform_mcu_enter_standby
                        0x0802c465   0x11c  Code  Gb  platform_mcu_powersave.o [1]
platform_mcu_powersave_disable
                        0x0802c421    0x24  Code  Gb  platform_mcu_powersave.o [1]
platform_mcu_powersave_enable
                        0x0802c445    0x20  Code  Gb  platform_mcu_powersave.o [1]
platform_mcu_powersave_init
                        0x0802c33d    0xe4  Code  Gb  platform_mcu_powersave.o [1]
platform_mcu_reset      0x080246d5    0x18  Code  Gb  platform_init.o [1]
platform_nanosecond_delay
                        0x0802c1dd    0x22  Code  Gb  platform_nsclock.o [1]
platform_rtc_get_time   0x0802c277    0x4a  Code  Gb  platform_rtc.o [1]
platform_rtc_init       0x0802c201    0x76  Code  Gb  platform_rtc.o [1]
platform_rtc_set_time   0x0802c2c1    0x6e  Code  Gb  platform_rtc.o [1]
platform_spi_drivers    0x200083fc     0x8  Data  Gb  platform.o [1]
platform_spi_init       0x0803f045   0x224  Code  Gb  platform_spi.o [1]
platform_spi_peripherals
                        0x080723ec    0x4c  Data  Gb  platform.o [1]
platform_spi_transfer   0x0803f269   0x16e  Code  Gb  platform_spi.o [1]
platform_uart_drivers   0x20007aec    0x58  Data  Gb  platform.o [1]
platform_uart_get_length_in_buffer
                        0x0802be2d     0x6  Code  Gb  platform_uart.o [1]
platform_uart_init      0x0802b8e1   0x36a  Code  Gb  platform_uart.o [1]
platform_uart_irq       0x0802be6b    0x3c  Code  Gb  platform_uart.o [1]
platform_uart_peripherals
                        0x08072364    0x88  Data  Gb  platform.o [1]
platform_uart_receive_bytes
                        0x0802bcf3    0xac  Code  Gb  platform_uart.o [1]
platform_uart_rx_dma_irq
                        0x0802bf23    0x7c  Code  Gb  platform_uart.o [1]
platform_uart_transmit_bytes
                        0x0802bc4b    0xa8  Code  Gb  platform_uart.o [1]
platform_uart_tx_dma_irq
                        0x0802bea7    0x7c  Code  Gb  platform_uart.o [1]
platform_watchdog_check_last_reset
                        0x0803e5ef    0x18  Code  Gb  platform_watchdog.o [1]
platform_watchdog_init  0x0803e411    0x90  Code  Gb  platform_watchdog.o [1]
platform_watchdog_kick  0x0803e4a1     0xa  Code  Gb  platform_watchdog.o [1]
poll_tcp                0x0805ffbb    0x62  Code  Lc  api_msg.o [5]
pows                    0x0806aaf0    0x48  Data  Lc  xdtento.o [9]
prefix_tbl              0x2000842c     0x8  Data  Lc  smart_config.o [5]
prefix_valid            0x2000856c     0x4  Data  Lc  smart_config.o [5]
prefix_validate         0x08044f1d   0x152  Code  Lc  smart_config.o [5]
prepend_alloc           0x0802d96d   0x3ea  Code  Lc  dlmalloc.o [5]
prev_cycles             0x200082bc     0x4  Data  Lc  platform_nsclock.o [1]
print_buffer            0x0804409d    0xa8  Code  Lc  smart_config.o [5]
printbuf_free           0x08061533    0x18  Code  Gb  printbuf.o [1]
printbuf_memappend      0x08061431    0x4e  Code  Gb  printbuf.o [1]
printbuf_new            0x08061405    0x2c  Code  Gb  printbuf.o [1]
printbuf_reset          0x08061529     0xa  Code  Gb  printbuf.o [1]
printf                  0x08026ac1    0x24  Code  Gb  printf.o [7]
probe_req_filter        0x08074f84     0xc  Data  Lc  smart_config.o [5]
probe_req_match         0x08024407     0x1  Data  Lc  smart_config.o [5]
probe_req_pattern       0x08074f48     0xc  Data  Lc  smart_config.o [5]
probe_request_rx_cb     0x0802d711     0x2  Code  Wk  mxchipWNET.o [5]
probe_rsp_filter        0x08074f78     0xc  Data  Lc  smart_config.o [5]
probe_rsp_match         0x08024406     0x1  Data  Lc  smart_config.o [5]
probe_rsp_pattern       0x08074f3c     0xc  Data  Lc  smart_config.o [5]
process_dns_questions   0x08061b05   0x2f6  Code  Gb  mico_mdns.o [1]
process_fog_v2_mqtt_cmd
                        0x08066265   0x4ae  Code  Gb  fog_process_mqtt_cmd.o [1]
process_path            0x0805152d   0x1d2  Code  Gb  fog_ota.o [1]
process_response_body   0x08036a25   0x224  Code  Gb  fog_v2.o [1]
process_response_body_bool
                        0x08037101   0x25a  Code  Gb  fog_v2.o [1]
process_response_body_string
                        0x08036cf9   0x346  Code  Gb  fog_v2.o [1]
prvAddCurrentTaskToDelayedList
                        0x0802547d    0x70  Code  Lc  tasks.o [1]
prvAddNewTaskToReadyList
                        0x08024a7b    0xc0  Code  Lc  tasks.o [1]
prvCheckForValidListAndQueue
                        0x08026da1    0x3c  Code  Lc  timers.o [1]
prvCopyDataFromQueue    0x080268b1    0x26  Code  Lc  queue.o [1]
prvCopyDataToQueue      0x08026849    0x68  Code  Lc  queue.o [1]
prvIdleTask             0x0802522d    0x6c  Code  Lc  tasks.o [1]
prvInsertTimerInActiveList
                        0x08026d6b    0x36  Code  Lc  timers.o [1]
prvListTasksWithinSingleList
                        0x080252a1    0xba  Code  Lc  tasks.o [1]
prvSampleTimeNow        0x08026ce9    0x82  Code  Lc  timers.o [1]
prvTaskExitError        0x080269ed    0x10  Code  Lc  port.o [1]
prvTimerTask            0x08026b95   0x154  Code  Lc  timers.o [1]
prvUnlockQueue          0x080268d7    0x6c  Code  Lc  queue.o [1]
prvkey_buf              0x200004f4     0x4  Data  Lc  ssl_wrap.o [4]
ps_enable               0x0802d515    0x12  Code  Gb  mxchipWNET.o [5]
ps_enabled              0x20008490     0x4  Data  Lc  mxchipWNET.o [5]
push_modbus_device_real_data_to_queue
                        0x0806c331   0x1fc  Code  Gb  user_uart_data_process.o [1]
putchar                 0x080748ad     0xc  Code  Gb  putchar.o [7]
pvPortMalloc            0x080262b5    0x1e  Code  Gb  heap_3.o [1]
pvPortRealloc           0x080262ed    0x1c  Code  Gb  heap_3.o [1]
pvTaskIncrementMutexHeldCount
                        0x08025469    0x14  Code  Gb  tasks.o [1]
pvTimerGetTimerID       0x08026de5     0xa  Code  Gb  timers.o [1]
pxCurrentTCB            0x200076c0     0x4  Data  Gb  tasks.o [1]
pxCurrentTimerList      0x20007e20     0x4  Data  Lc  timers.o [1]
pxDelayedTaskList       0x200076c4     0x4  Data  Lc  tasks.o [1]
pxOverflowDelayedTaskList
                        0x200076c8     0x4  Data  Lc  tasks.o [1]
pxOverflowTimerList     0x20007e24     0x4  Data  Lc  timers.o [1]
pxPortInitialiseStack   0x080269c5    0x28  Code  Gb  port.o [1]
pxReadyTasksLists       0x20007510    0xc8  Data  Lc  tasks.o [1]
qc_test_tcpip           0x08033561    0xaa  Code  Gb  qc_test_tcpip.o [1]
raddr                   0x200005a8     0x4  Data  Lc  mftest.o [5]
rand                    0x080295a5    0xe0  Code  Gb  rand.o [7]
raw_bind                0x0805df63    0x10  Code  Gb  raw.o [5]
raw_connect             0x0805df73    0x10  Code  Gb  raw.o [5]
raw_input               0x0805ded5    0x8e  Code  Gb  raw.o [5]
raw_new                 0x0805e067    0x2e  Code  Gb  raw.o [5]
raw_pcbs                0x2000865c     0x4  Data  Lc  raw.o [5]
raw_recv                0x0805df83     0x6  Code  Gb  raw.o [5]
raw_remove              0x0805e02b    0x3c  Code  Gb  raw.o [5]
raw_send                0x0805e021     0xa  Code  Gb  raw.o [5]
raw_sendto              0x0805df89    0x98  Code  Gb  raw.o [5]
rb_clear                0x0806c83f     0x6  Code  Gb  user_stack.o [1]
rb_initialize           0x0806c831     0xe  Code  Gb  user_stack.o [1]
rb_is_empty             0x0806c893    0x10  Code  Gb  user_stack.o [1]
rb_pop                  0x0806c86d    0x26  Code  Gb  user_stack.o [1]
rb_push                 0x0806c84b    0x22  Code  Gb  user_stack.o [1]
rcon                    0x0806ce58    0x28  Data  Lc  aes.o [4]
read                    0x0803cf6f     0x6  Code  Gb  mico_socket.o [1]
readChar                0x08069adb     0x6  Code  Gb  MQTTPacket.o [1]
readInt                 0x08069acd     0xe  Code  Gb  MQTTPacket.o [1]
readMQTTLenString       0x08069b97    0x32  Code  Gb  MQTTPacket.o [1]
readPacket              0x0806568b    0xd8  Code  Gb  MQTTClient.o [1]
reboot                  0x08057771     0x4  Code  Lc  mico_cli.o [1]
receive_bytes           0x0802bd9f    0x8e  Code  Lc  platform_uart.o [1]
received_byte_count     0x20008554     0x4  Data  Lc  smart_config.o [5]
received_packet         0x20008594     0x4  Data  Lc  wps_host.o [5]
recv                    0x0803cf5b     0x4  Code  Gb  mico_socket.o [1]
recv_data               0x200085f8     0x4  Data  Lc  tcp_in.o [5]
recv_flags              0x20008693     0x1  Data  Lc  tcp_in.o [5]
recv_raw                0x0805fe09    0xa4  Code  Lc  api_msg.o [5]
recv_tcp                0x0805ff2f    0x8c  Code  Lc  api_msg.o [5]
recv_udp                0x0805fead    0x82  Code  Lc  api_msg.o [5]
recvfrom                0x0803cf5f    0x10  Code  Gb  mico_socket.o [1]
release_unused_segments
                        0x0802e167    0x28  Code  Lc  dlmalloc.o [5]
remote_ip               0x20008424     0x8  Data  Lc  smart_config.o [5]
remove                  0x0806afd3    0x16  Code  Gb  remove.o [11]
remove_bonjour_for_easylink
                        0x08056895     0x4  Code  Lc  system_easylink.o [1]
renew_tcp_port          0x08041aa1     0xe  Code  Gb  tcp.o [5]
report_ap_info          0x08043b49    0x5c  Code  Gb  smart_config.o [5]
req_packet              0x08066a7d    0x44  Code  Lc  tftpc.o [1]
requested_ioctl_id      0x20008668     0x2  Data  Lc  wwd_sdpcm.o [5]
reseedEntropyA          0x0801d2b0    0x20  Data  Gb  random.o [4]
reset_pkt_buffer        0x080439a5    0x2c  Code  Lc  smart_config.o [5]
reset_recv_state        0x080439d1    0xd6  Code  Lc  smart_config.o [5]
reset_without_dataclean
                        0x08043adf    0x5c  Code  Lc  smart_config.o [5]
result_buff             0x20007e5c    0x3c  Data  Gb  wifimgr.o [5]
rgb_led_init            0x0802d1ab    0x16  Code  Gb  rgb_led.o [1]
rgb_led_open            0x0802d1c1    0x52  Code  Gb  rgb_led.o [1]
ring_buffer_consume     0x0802b8cb    0x14  Code  Gb  RingBufferUtils.o [1]
ring_buffer_get_data    0x0802b895    0x36  Code  Gb  RingBufferUtils.o [1]
ring_buffer_init        0x0802b869    0x14  Code  Gb  RingBufferUtils.o [1]
ring_buffer_used_space  0x0802b881     0x8  Code  Gb  RingBufferUtils.o [1]
rotlFixed               0x08018bd9     0x8  Code  Lc  md5.o [4]
rotlFixed               0x080193c5     0x8  Code  Lc  sha.o [4]
rotrFixed               0x0802274d     0x4  Code  Lc  hc128.o [4]
rotrFixed               0x0801a069     0x4  Code  Lc  sha256.o [4]
rotrFixed64             0x0801a7cd    0x26  Code  Lc  sha512.o [4]
rssi_2_quility          0x08030bb1    0x24  Code  Lc  wifimgr.o [5]
rx_buffer               0x20008370    0x10  Data  Lc  qc_test.o [1]
rx_buffer               0x20007200    0x10  Data  Gb  user_uart.o [1]
rx_data                 0x20007210   0x100  Data  Gb  user_uart.o [1]
sFileInfo               0x200078e0    0x80  Data  Lc  XShHandles.o [7]
s_mp_add                0x08027fdf    0xb0  Code  Gb  integer.o [4]
s_mp_exptmod            0x08028ddd   0x256  Code  Gb  integer.o [4]
s_mp_mul_digs           0x08028cc1    0xa4  Code  Gb  integer.o [4]
s_mp_mul_high_digs      0x080291db    0x9e  Code  Gb  integer.o [4]
s_mp_sqr                0x08028c23    0x98  Code  Gb  integer.o [4]
s_mp_sub                0x0802808f    0x86  Code  Gb  integer.o [4]
sc_channel              0x20008538     0x4  Data  Lc  smart_config.o [5]
sc_loop_num             0x2000854c     0x4  Data  Lc  smart_config.o [5]
sc_state                0x20008534     0x4  Data  Lc  smart_config.o [5]
scan_adv_finished       0x08031899    0x20  Code  Lc  wifimgr.o [5]
scan_bssid_list         0x200085e0     0x4  Data  Lc  wifi.o [5]
scan_end                0x200084f4     0x4  Data  Lc  mftest.o [5]
scan_events             0x08075224     0x8  Data  Lc  wwd_wifi.o [5]
scan_finished           0x080317f1    0x28  Code  Lc  wifimgr.o [5]
scan_report             0x0802d623     0x8  Code  Gb  mxchipWNET.o [5]
scan_result_ap_num      0x200084fc     0x4  Data  Lc  mftest.o [5]
scan_result_callback    0x200085c4     0x4  Data  Lc  wwd_wifi.o [5]
scan_result_handler     0x080331bb    0x62  Code  Lc  mftest.o [5]
scan_result_handler     0x08042591   0x31c  Code  Lc  wwd_wifi.o [5]
scan_result_handler     0x080403c1   0x244  Code  Lc  wifi.o [5]
scan_result_ptr         0x200085c8     0x4  Data  Lc  wwd_wifi.o [5]
scan_result_ptr         0x200085dc     0x4  Data  Lc  wifi.o [5]
scan_results_handler    0x08031dc1    0xf2  Code  Lc  wifimgr.o [5]
scan_sem                0x200084b0     0x4  Data  Lc  wifimgr.o [5]
scan_semaphore          0x200085d4     0x4  Data  Lc  wifi.o [5]
scanap_done             0x200083f4     0x1  Data  Gb  micokit_ext_mfg.o [1]
sdio_1_bit_mode         0x20008464     0x4  Data  Gb  mico_config.o [1]
sdio_cmd52              0x0805d5b7    0x6a  Code  Lc  wwd_bus_protocol.o [5]
sdio_cmd53              0x0805d621    0xae  Code  Lc  wwd_bus_protocol.o [5]
sdio_irq_               0x20008508     0x4  Data  Gb  wwd_thread.o [5]
sdio_oob_irq_handler    0x0805c6b9     0x4  Code  Lc  wlan_bus_SDIO.o [1]
sdio_transfer_failed    0x20005968     0x1  Data  Lc  wlan_bus_SDIO.o [1]
sdio_transfer_finished_semaphore
                        0x2000617c     0x4  Data  Lc  wlan_bus_SDIO.o [1]
sdpcm_enabled           0x20008681     0x1  Data  Lc  wwd_sdpcm.o [5]
sdpcm_highest_rx_tos    0x2000867c     0x1  Data  Lc  wwd_sdpcm.o [5]
sdpcm_line              0x200084e4     0x4  Data  Gb  wwd_sdpcm.o [5]
sdpcm_packet_transmit_sequence_number
                        0x2000867b     0x1  Data  Lc  wwd_sdpcm.o [5]
sectype_bcm2mx          0x08030bd5    0x46  Code  Lc  wifimgr.o [5]
sectype_mx2bcm          0x08030c1b    0x42  Code  Lc  wifimgr.o [5]
seedNum                 0x200083ec     0x4  Data  Lc  mico_system_para_storage.o [1]
segment_holding         0x0802d715    0x1e  Code  Lc  dlmalloc.o [5]
select                  0x0803cf25    0x22  Code  Gb  mico_socket.o [1]
select_ap_to_join       0x080318f1   0x43c  Code  Lc  wifimgr.o [5]
select_cb_ctr           0x2000848c     0x4  Data  Lc  sockets.o [5]
select_cb_list          0x20008488     0x4  Data  Lc  sockets.o [5]
send                    0x0803cf47     0x4  Code  Gb  mico_socket.o [1]
sendNotifySYSWillPowerOff
                        0x08026edf    0x16  Code  Gb  mico_system_notification.o [1]
sendPacket              0x08065589    0x50  Code  Gb  MQTTClient.o [1]
send_interface_mutex    0x20008628     0x4  Data  Gb  wiced_network.o [5]
send_ping               0x08033247    0x52  Code  Lc  mftest.o [5]
send_response_to_queue  0x0804fa65   0x25a  Code  Gb  fog_http_client.o [1]
sendto                  0x0803cf4b    0x10  Code  Gb  mico_socket.o [1]
sent_tcp                0x0806001d    0x62  Code  Lc  api_msg.o [5]
seqno                   0x200085f0     0x4  Data  Lc  tcp_in.o [5]
server                  0x08010640     0x4  Data  Lc  internal.o [4]
set_conncetion_status   0x0802d2af     0x2  Code  Gb  mxchipWNET.o [5]
set_fog_v2_http_req     0x08035ca9   0x2d2  Code  Lc  fog_v2.o [1]
set_https_connect_status
                        0x080353fd     0x8  Code  Gb  fog_v2.o [1]
set_mqtt_connect_status
                        0x080353f5     0x8  Code  Gb  fog_v2.o [1]
set_sta_connection      0x08030e79    0x90  Code  Lc  wifimgr.o [5]
set_sta_retry_interval  0x08030f49     0xe  Code  Gb  wifimgr.o [5]
set_static_ip           0x08030ff1    0x72  Code  Lc  wifimgr.o [5]
set_uap_connection      0x08030f1f    0x2a  Code  Lc  wifimgr.o [5]
setsockopt              0x0803cef9     0xe  Code  Gb  mico_socket.o [1]
setup_tcp               0x08060137    0x38  Code  Lc  api_msg.o [5]
setup_update            0x08022e23   0x506  Code  Lc  hc128.o [4]
sflash_handle           0x200083c0     0xc  Data  Lc  platform_flash.o [1]
sflash_platform_init    0x08067e0d    0x18  Code  Gb  spi_flash_platform.o [1]
sflash_platform_send_recv
                        0x08067e25     0xc  Code  Gb  spi_flash_platform.o [1]
sflash_read             0x0805af11    0x2a  Code  Gb  spi_flash.o [1]
sflash_sector_erase     0x0805ae89    0x88  Code  Gb  spi_flash.o [1]
sflash_write            0x0805b011    0x9e  Code  Gb  spi_flash.o [1]
sflash_write_enable     0x0805ae01    0x86  Code  Gb  spi_flash.o [1]
sflash_write_page       0x0805af45    0xc6  Code  Gb  spi_flash.o [1]
sigMd2wRsaOid           0x0801de58     0xc  Data  Lc  asn.o [4]
sigMd5wRsaOid           0x0801de64     0xc  Data  Lc  asn.o [4]
sigSha1wEcdsaOid        0x0801dea0     0x8  Data  Lc  asn.o [4]
sigSha1wRsaOid          0x0801de70     0xc  Data  Lc  asn.o [4]
sigSha256wEcdsaOid      0x0801dea8     0x8  Data  Lc  asn.o [4]
sigSha256wRsaOid        0x0801de7c     0xc  Data  Lc  asn.o [4]
sigSha384wEcdsaOid      0x0801deb0     0x8  Data  Lc  asn.o [4]
sigSha384wRsaOid        0x0801de88     0xc  Data  Lc  asn.o [4]
sigSha512wEcdsaOid      0x0801deb8     0x8  Data  Lc  asn.o [4]
sigSha512wRsaOid        0x0801de94     0xc  Data  Lc  asn.o [4]
sleep                   0x08033859     0x2  Code  Gb  mico_rtos_common.o [1]
smart_cfg_process       0x08045fa9   0x3e4  Code  Lc  smart_config.o [5]
smart_config_done       0x0802d59b    0x48  Code  Gb  mxchipWNET.o [5]
smart_insert_tbl        0x08044145   0x144  Code  Gb  smart_config.o [5]
sniffer_callback        0x20008530     0x4  Data  Lc  smart_config.o [5]
snprintf                0x08026309    0x44  Code  Gb  snprintf.o [7]
socket                  0x0803cef5     0x4  Code  Gb  mico_socket.o [1]
socket_connected        0x08026ec5    0x1a  Code  Gb  mico_system_notification.o [1]
socket_for_ping         0x20008654     0x4  Data  Gb  wiced_ping.o [5]
socket_show             0x0803ccff   0x108  Code  Gb  sockets.o [5]
socket_show_Command     0x08032ec1    0x40  Code  Gb  wifimgr.o [5]
socket_state            0x0803ccd5    0x2a  Code  Lc  sockets.o [5]
sockets                 0x20006f3c   0x180  Data  Lc  sockets.o [5]
softap_channel          0x20000594     0x4  Data  Lc  wifimgr.o [5]
source                  0x200082c6     0x1  Data  Lc  system_easylink.o [1]
spi_baudrate_prescalers
                        0x0803f5bc    0x20  Data  Lc  platform_spi.o [1]
spi_dma_config          0x0803f3dd    0xaa  Code  Lc  platform_spi.o [1]
sprintbuf               0x080614cb    0x56  Code  Gb  printbuf.o [1]
sprintf                 0x080244ad    0x34  Code  Gb  sprintf.o [7]
srand                   0x08041545    0x20  Code  Gb  srand.o [7]
sscanf                  0x0806167d    0x24  Code  Gb  sscanf.o [7]
ssl_close               0x08029b55    0x28  Code  Gb  ssl_wrap.o [4]
ssl_connect             0x08029ac3    0x80  Code  Gb  ssl_wrap.o [4]
ssl_recv                0x08029b51     0x4  Code  Gb  ssl_wrap.o [4]
ssl_send                0x08029b4d     0x4  Code  Gb  ssl_wrap.o [4]
ssl_set_client_version  0x080299ed     0xc  Code  Gb  ssl_wrap.o [4]
ssl_socket              0x08029b81     0x4  Code  Gb  ssl_wrap.o [4]
ssl_version             0x20000500     0x4  Data  Lc  ssl_wrap.o [4]
ssl_wrap_init           0x080299f9    0xb2  Code  Lc  ssl_wrap.o [4]
sta_connect_with_apinfo
                        0x08031063   0x1ac  Code  Lc  wifimgr.o [5]
sta_connected           0x20008678     0x1  Data  Lc  wifimgr.o [5]
sta_dhcp_mode           0x200084a4     0x4  Data  Lc  wifimgr.o [5]
sta_disconnect          0x080315a9    0x30  Code  Gb  wifimgr.o [5]
sta_down                0x08030f63    0x10  Code  Gb  wifimgr.o [5]
sta_ip_settings         0x20007e98    0x3c  Data  Lc  wifimgr.o [5]
sta_link_events_handler
                        0x08031fdb    0x80  Code  Lc  wifimgr.o [5]
sta_link_up             0x08030f61     0x2  Code  Lc  wifimgr.o [5]
sta_retry_interval      0x20000588     0x4  Data  Lc  wifimgr.o [5]
sta_state               0x2000867a     0x1  Data  Lc  wifimgr.o [5]
sta_up                  0x08030f57     0xa  Code  Gb  wifimgr.o [5]
startUserMainThread     0x08025b89    0x70  Code  Gb  MICOAppEntrance.o [1]
start_bonjour_service   0x08062615   0x25c  Code  Lc  mico_mdns.o [1]
start_fog_bonjour       0x0804f0b9   0x254  Code  Gb  fog_bonjour.o [1]
start_fog_v2_service    0x0803ac61   0x154  Code  Gb  fog_v2.o [1]
start_fogcloud_http_client
                        0x0804f4e9   0x1a4  Code  Gb  fog_http_client.o [1]
start_scan              0x08031f05    0xce  Code  Lc  wifimgr.o [5]
station_dhcp_mode       0x08032435     0x6  Code  Gb  wifimgr.o [5]
station_up              0x0802d3cd    0xd4  Code  Gb  mxchipWNET.o [5]
stdio_hardfault         0x080247ef    0x1a  Code  Gb  platform_init.o [1]
stdio_rx_buffer         0x20007b44    0x10  Data  Lc  platform_init.o [1]
stdio_rx_data           0x20007b54    0x40  Data  Lc  platform_init.o [1]
stdio_rx_mutex          0x20007b94     0x4  Data  Gb  platform_init.o [1]
stdio_tx_mutex          0x20007b98     0x4  Data  Gb  platform_init.o [1]
stdio_uart_config       0x08024820     0xc  Data  Lc  platform_init.o [1]
stm32f2_clock_needed_counter
                        0x20008474     0x4  Data  Lc  platform_mcu_powersave.o [1]
stop_fog_bonjour        0x0804f329     0xc  Code  Gb  fog_bonjour.o [1]
stopscan                0x08030f09     0xe  Code  Lc  wifimgr.o [5]
str2hex                 0x080468e7    0x70  Code  Gb  StringUtils.o [1]
strcasecmp              0x0804a281    0x46  Code  Gb  strcasecmp.o [7]
strchr                  0x0803cf91          Code  Gb  strchr.o [10]
strdup                  0x080616a1    0x18  Code  Gb  strdup.o [7]
strlen                  0x080204b5          Code  Gb  strlen.o [10]
strncasecmp             0x0806154b    0x4e  Code  Gb  strncasecmp.o [7]
strncmp                 0x080243d9    0x2a  Code  Gb  strncmp.o [7]
strndup                 0x080651cd    0x32  Code  Lc  url.o [1]
strnicmp                0x08046ab5    0x38  Code  Gb  StringUtils.o [1]
strnicmp_suffix         0x08047117    0x2a  Code  Gb  StringUtils.o [1]
strnicmpx               0x08046aed    0x3a  Code  Gb  StringUtils.o [1]
strnlen                 0x0805dd4d    0x16  Code  Gb  strnlen.o [7]
strstr                  0x08024403     0x4  Code  Gb  internal.o [4]
strtoul                 0x0804cb2d     0x4  Code  Gb  strtoul.o [7]
switch_channle          0x08043fe1    0x9c  Code  Lc  smart_config.o [5]
sys_alloc               0x0802df99   0x1ce  Code  Lc  dlmalloc.o [5]
sys_arch_mbox_fetch     0x08059abf    0x5c  Code  Gb  sys_arch.o [5]
sys_arch_mbox_tryfetch  0x08059bf5    0x1c  Code  Gb  sys_arch.o [5]
sys_arch_protect        0x08059be3     0xa  Code  Gb  sys_arch.o [5]
sys_arch_sem_wait       0x08059b67    0x48  Code  Gb  sys_arch.o [5]
sys_arch_unprotect      0x08059bed     0x8  Code  Gb  sys_arch.o [5]
sys_context             0x200083f0     0x4  Data  Gb  mico_system_para_storage.o [1]
sys_init                0x08059bbf     0x2  Code  Gb  sys_arch.o [5]
sys_mbox_free           0x08059a99    0x18  Code  Gb  sys_arch.o [5]
sys_mbox_new            0x08059a79    0x1e  Code  Gb  sys_arch.o [5]
sys_mbox_post           0x08059ab1     0xe  Code  Gb  sys_arch.o [5]
sys_mbox_set_invalid    0x08059c4b     0x6  Code  Gb  sys_arch.o [5]
sys_mbox_trypost        0x08059c11    0x1a  Code  Gb  sys_arch.o [5]
sys_mbox_valid          0x08059c2b    0x10  Code  Gb  sys_arch.o [5]
sys_msleep              0x0805f559    0x28  Code  Gb  sys.o [5]
sys_now                 0x08059a71     0x8  Code  Gb  sys_arch.o [5]
sys_sem_free            0x08059bb7     0x8  Code  Gb  sys_arch.o [5]
sys_sem_new             0x08059b1b    0x4c  Code  Gb  sys_arch.o [5]
sys_sem_set_invalid     0x08059c51     0x6  Code  Gb  sys_arch.o [5]
sys_sem_signal          0x08059baf     0x8  Code  Gb  sys_arch.o [5]
sys_sem_valid           0x08059c3b    0x10  Code  Gb  sys_arch.o [5]
sys_thread_new          0x08059bc1    0x22  Code  Gb  sys_arch.o [5]
sys_timeout             0x0805c24f    0x8c  Code  Gb  lwiptimers.o [5]
sys_timeouts_init       0x0805c211    0x3e  Code  Gb  lwiptimers.o [5]
sys_timeouts_mbox_fetch
                        0x0805c333    0x82  Code  Gb  lwiptimers.o [5]
sys_timeouts_resume     0x0805c1c9    0x48  Code  Gb  lwiptimers.o [5]
sys_timeouts_suspend    0x0805c195    0x34  Code  Gb  lwiptimers.o [5]
sys_trim                0x0802e18f    0x98  Code  Lc  dlmalloc.o [5]
sys_untimeout           0x0805c2db    0x58  Code  Gb  lwiptimers.o [5]
syslock_o               0x20007ffc     0x4  Data  Lc  xsyslock_mtx.o [7]
system_config_mode_worker
                        0x0803af35    0xae  Code  Lc  mico_system_init.o [1]
system_connect_wifi_fast
                        0x080304b1    0xee  Code  Gb  system_misc.o [1]
system_connect_wifi_normal
                        0x080303db    0xd0  Code  Gb  system_misc.o [1]
system_context          0x0802fe1d     0x8  Code  Gb  system_misc.o [1]
system_debug_enable     0x08047151    0x14  Code  Gb  mxchip_debug.o [5]
system_easylink_start   0x08055fa1   0x108  Code  Gb  system_easylink.o [1]
system_lib_version      0x0802d2a9     0x6  Code  Gb  mxchipWNET.o [5]
system_monitors         0x20008094    0x14  Data  Lc  mico_system_monitor.o [1]
system_network_daemen_start
                        0x0803059f   0x186  Code  Gb  system_misc.o [1]
system_notification_init
                        0x080301fd   0x1de  Code  Gb  system_misc.o [1]
system_version          0x0802d6d5     0xa  Code  Wk  mxchipWNET.o [5]
tab_complete            0x08057205    0xb6  Code  Lc  mico_cli.o [1]
task_Command            0x08057419     0x4  Code  Lc  mico_cli.o [1]
tcp_abandon             0x080417b5    0xaa  Code  Gb  tcp.o [5]
tcp_abort               0x0804185f     0xa  Code  Gb  tcp.o [5]
tcp_accept              0x08042231     0x4  Code  Gb  tcp.o [5]
tcp_accept_null         0x08041909     0x6  Code  Lc  tcp.o [5]
tcp_active_pcbs         0x200085ac     0x4  Data  Gb  tcp.o [5]
tcp_alloc               0x08042113    0xe8  Code  Gb  tcp.o [5]
tcp_arg                 0x0804221b     0x4  Code  Gb  tcp.o [5]
tcp_backoff             0x08074d5c    0x10  Data  Gb  tcp.o [5]
tcp_bind                0x08041869    0xa0  Code  Gb  tcp.o [5]
tcp_bound_pcbs          0x200085a4     0x4  Data  Gb  tcp.o [5]
tcp_close               0x08041743    0x1c  Code  Gb  tcp.o [5]
tcp_close_shutdown      0x08041589   0x1ba  Code  Lc  tcp.o [5]
tcp_connect             0x08041b23   0x174  Code  Gb  tcp.o [5]
tcp_create_segment      0x0805b4d7    0xb8  Code  Lc  tcp_out.o [5]
tcp_dump                0x0804c145   0x194  Code  Gb  tcp_in.o [5]
tcp_eff_send_mss        0x08042381    0x28  Code  Gb  tcp.o [5]
tcp_enqueue_flags       0x0805ba0f   0x106  Code  Gb  tcp_out.o [5]
tcp_err                 0x0804222b     0x6  Code  Gb  tcp.o [5]
tcp_fasttmr             0x08041f8d    0x86  Code  Gb  tcp.o [5]
tcp_input               0x0804a911   0x4f6  Code  Gb  tcp_in.o [5]
tcp_input_cb            0x0802d70d     0x2  Code  Wk  mxchipWNET.o [5]
tcp_input_pcb           0x200085fc     0x4  Data  Gb  tcp_in.o [5]
tcp_keepalive           0x0805bfe3    0x4e  Code  Gb  tcp_out.o [5]
tcp_kill_older          0x0804ae07    0x5e  Code  Lc  tcp_in.o [5]
tcp_kill_prio           0x08042091    0x4c  Code  Lc  tcp.o [5]
tcp_kill_timewait       0x080420dd    0x36  Code  Lc  tcp.o [5]
tcp_listen_input        0x0804ae65   0x152  Code  Lc  tcp_in.o [5]
tcp_listen_pcbs         0x200085a8     0x4  Data  Gb  tcp.o [5]
tcp_listen_with_backlog
                        0x0804190f   0x112  Code  Gb  tcp.o [5]
tcp_new                 0x08042211     0xa  Code  Gb  tcp.o [5]
tcp_new_port            0x08041aaf    0x74  Code  Lc  tcp.o [5]
tcp_next_iss            0x0804236d    0x14  Code  Gb  tcp.o [5]
tcp_next_port           0x2000866a     0x2  Data  Lc  tcp.o [5]
tcp_oos_insert_segment  0x0804b581    0x8c  Code  Lc  tcp_in.o [5]
tcp_output              0x0805bb7b   0x20a  Code  Gb  tcp_out.o [5]
tcp_output_alloc_header
                        0x0805b41d    0x78  Code  Lc  tcp_out.o [5]
tcp_output_segment      0x0805bd85    0xd8  Code  Lc  tcp_out.o [5]
tcp_parseopt            0x0804c085    0xae  Code  Lc  tcp_in.o [5]
tcp_pbuf_prealloc       0x0805b58f    0x2c  Code  Lc  tcp_out.o [5]
tcp_pcb_lists           0x20000544    0x10  Data  Gb  tcp.o [5]
tcp_pcb_purge           0x0804223f    0xb6  Code  Gb  tcp.o [5]
tcp_pcb_remove          0x080422f5    0x78  Code  Gb  tcp.o [5]
tcp_persist_backoff     0x080751fc     0x8  Data  Gb  tcp.o [5]
tcp_poll                0x08042235     0xa  Code  Gb  tcp.o [5]
tcp_process             0x0804b05f   0x522  Code  Lc  tcp_in.o [5]
tcp_receive             0x0804b64d   0xa38  Code  Lc  tcp_in.o [5]
tcp_recv                0x0804221f     0x6  Code  Gb  tcp.o [5]
tcp_recv_null           0x0804206b    0x26  Code  Gb  tcp.o [5]
tcp_recved              0x08041a69    0x38  Code  Gb  tcp.o [5]
tcp_rexmit              0x0805bf25    0x4e  Code  Gb  tcp_out.o [5]
tcp_rexmit_fast         0x0805bf73    0x70  Code  Gb  tcp_out.o [5]
tcp_rexmit_rto          0x0805bef1    0x34  Code  Gb  tcp_out.o [5]
tcp_rst                 0x0805be69    0x88  Code  Gb  tcp_out.o [5]
tcp_seg_copy            0x08042043    0x28  Code  Gb  tcp.o [5]
tcp_seg_free            0x08042025    0x1e  Code  Gb  tcp.o [5]
tcp_segs_free           0x08042013    0x12  Code  Gb  tcp.o [5]
tcp_send_empty_ack      0x0805bb15    0x66  Code  Gb  tcp_out.o [5]
tcp_send_fin            0x0805b495    0x42  Code  Gb  tcp_out.o [5]
tcp_sent                0x08042225     0x6  Code  Gb  tcp.o [5]
tcp_shutdown            0x0804175f    0x56  Code  Gb  tcp.o [5]
tcp_slowtmr             0x08041c97   0x2f6  Code  Gb  tcp.o [5]
tcp_socket              0x20008064    0x30  Data  Lc  mftest.o [5]
tcp_ticks               0x200085a0     0x4  Data  Gb  tcp.o [5]
tcp_timer               0x2000868e     0x1  Data  Lc  tcp.o [5]
tcp_timer_needed        0x0805c107    0x2c  Code  Gb  lwiptimers.o [5]
tcp_timewait_input      0x0804afb7    0xa8  Code  Lc  tcp_in.o [5]
tcp_tmp_pcb             0x200085bc     0x4  Data  Gb  tcp.o [5]
tcp_tmr                 0x08041565    0x24  Code  Gb  tcp.o [5]
tcp_tw_pcbs             0x200085b0     0x4  Data  Gb  tcp.o [5]
tcp_update_rcv_ann_wnd  0x08041a21    0x48  Code  Gb  tcp.o [5]
tcp_write               0x0805b631   0x3de  Code  Gb  tcp_out.o [5]
tcp_write_checks        0x0805b5bb    0x76  Code  Lc  tcp_out.o [5]
tcp_zero_window_probe   0x0805c031    0xaa  Code  Gb  tcp_out.o [5]
tcphdr                  0x200085e8     0x4  Data  Lc  tcp_in.o [5]
tcpip_activate_tcpip_timeouts
                        0x08059f2b    0x32  Code  Gb  lwiptcpip.o [5]
tcpip_apimsg            0x08059f5d    0x44  Code  Gb  lwiptcpip.o [5]
tcpip_callback_with_block
                        0x08059e9b    0x5e  Code  Gb  lwiptcpip.o [5]
tcpip_deactivate_tcpip_timeouts
                        0x08059ef9    0x32  Code  Gb  lwiptcpip.o [5]
tcpip_init              0x08059ff1    0x30  Code  Gb  lwiptcpip.o [5]
tcpip_init_done         0x20008524     0x4  Data  Lc  lwiptcpip.o [5]
tcpip_init_done         0x08047ef5     0x8  Code  Lc  wiced_network.o [5]
tcpip_init_done_arg     0x20008528     0x4  Data  Lc  lwiptcpip.o [5]
tcpip_input             0x08059e29    0x72  Code  Gb  lwiptcpip.o [5]
tcpip_netifapi          0x08059fa1    0x50  Code  Gb  lwiptcpip.o [5]
tcpip_tcp_timer         0x0805c0dd    0x2a  Code  Lc  lwiptimers.o [5]
tcpip_tcp_timer_active  0x20008650     0x4  Data  Lc  lwiptimers.o [5]
tcpip_thread            0x08059d31    0xf8  Code  Lc  lwiptcpip.o [5]
tcplen                  0x2000866c     0x2  Data  Lc  tcp_in.o [5]
temp_dma_buffer         0x2000597c   0x800  Data  Lc  wlan_bus_SDIO.o [1]
temp_hum_sensor_init    0x0804db1d    0x28  Code  Gb  temp_hum_sensor.o [1]
temp_hum_sensor_type    0x20008676     0x1  Data  Lc  temp_hum_sensor.o [1]
tftp_Command            0x0805741d    0xfe  Code  Lc  mico_cli.o [1]
tftp_ota                0x0806720b   0x5c0  Code  Gb  tftp_ota.o [1]
tftp_ota_thread         0x080575a5    0x10  Code  Gb  mico_cli.o [1]
tget                    0x08066e63   0x204  Code  Gb  tftpc.o [1]
thread_created          0x20008550     0x4  Data  Lc  smart_config.o [5]
timed_event_handler     0x08033835    0x14  Code  Lc  mico_rtos_common.o [1]
timer_callback          0x08016b01    0x16  Code  Lc  mico_rtos.o [1]
timer_head              0x20000524     0x4  Data  Gb  mico_rtos_common.o [1]
timer_sem               0x20000530     0x4  Data  Lc  mico_rtos_common.o [1]
timer_sem               0x200084a8     0x4  Data  Lc  wifimgr.o [5]
timer_thread_func       0x0803392d    0x78  Code  Lc  mico_rtos_common.o [1]
timer_thread_wait       0x2000052c     0x4  Data  Lc  mico_rtos_common.o [1]
tls_client              0x0801d9e4    0x10  Data  Lc  tls.o [4]
tls_server              0x0801d9f4    0x10  Data  Lc  tls.o [4]
tmalloc_large           0x0802e7bd   0x44c  Code  Lc  dlmalloc.o [5]
tmalloc_small           0x0802ec09   0x272  Code  Lc  dlmalloc.o [5]
tmpCC4                  0x20008360     0x4  Data  Gb  platform_watchdog.o [1]
tods_bcast_mask         0x08074864    0x18  Data  Lc  smart_config.o [5]
tods_bcast_match        0x0807487c    0x18  Data  Lc  smart_config.o [5]
tods_brast_pattern      0x08074f18     0xc  Data  Lc  smart_config.o [5]
tods_filter             0x08074f54     0xc  Data  Lc  smart_config.o [5]
tolower                 0x0801da25    0x14  Code  Gb  tolower.o [7]
total_data_len          0x20008570     0x4  Data  Lc  smart_config.o [5]
total_data_validate     0x08045081    0xb8  Code  Lc  smart_config.o [5]
toupper                 0x0805dcf9    0x18  Code  Gb  toupper.o [7]
tpsk                    0x20007de0    0x40  Data  Lc  smart_config.o [5]
try_adv_connect         0x0803120f   0x128  Code  Gb  wifimgr.o [5]
try_realloc_chunk       0x0802f8b9   0x3a8  Code  Lc  dlmalloc.o [5]
tryget_socket           0x0803b55b    0x2a  Code  Lc  sockets.o [5]
tsend                   0x08066ac1   0x39a  Code  Gb  tftpc.o [1]
tssid                   0x200081ec    0x20  Data  Lc  smart_config.o [5]
tx_count                0x20008500     0x4  Data  Lc  mftest.o [5]
tx_tcp_packet           0x08033309    0x68  Code  Lc  mftest.o [5]
tx_udp_packet           0x08033299    0x70  Code  Lc  mftest.o [5]
type_subtype_mask       0x080204ea     0x1  Data  Lc  smart_config.o [5]
uap_connected           0x20008679     0x1  Data  Lc  wifimgr.o [5]
uap_down                0x08030fcb    0x20  Code  Lc  wifimgr.o [5]
uap_ip_settings         0x20007ed4    0x3c  Data  Lc  wifimgr.o [5]
uart_alternate_functions
                        0x0802bfe8     0x8  Data  Lc  platform_uart.o [1]
uart_irq_vectors        0x0802c020     0x8  Data  Lc  platform_uart.o [1]
uart_peripheral_clock_functions
                        0x0802bff0    0x18  Data  Lc  platform_uart.o [1]
uart_peripheral_clocks  0x0802c008    0x18  Data  Lc  platform_uart.o [1]
uart_printf_array       0x0806c2d5    0x42  Code  Gb  user_uart_data_process.o [1]
uart_recv_thread        0x0806caf5   0x154  Code  Gb  user_uart.o [1]
udp_bind                0x0804c7fb    0xb2  Code  Gb  udp.o [5]
udp_connect             0x0804c8b5    0x5a  Code  Gb  udp.o [5]
udp_disconnect          0x0804c915    0x12  Code  Gb  udp.o [5]
udp_dump                0x0804c991    0x98  Code  Gb  udp.o [5]
udp_input               0x0804c321   0x25c  Code  Gb  udp.o [5]
udp_new                 0x0804c971    0x20  Code  Gb  udp.o [5]
udp_pcbs                0x20008620     0x4  Data  Gb  udp.o [5]
udp_recv                0x0804c927     0x6  Code  Gb  udp.o [5]
udp_recv_filter         0x20008624     0x4  Data  Lc  udp.o [5]
udp_remove              0x0804c92d    0x44  Code  Gb  udp.o [5]
udp_send                0x0804c57d     0xc  Code  Gb  udp.o [5]
udp_send_message        0x08030c67    0x8a  Code  Gb  wifimgr.o [5]
udp_sendto              0x0804c589   0x14c  Code  Gb  udp.o [5]
udp_sendto_if           0x0804c6d5   0x126  Code  Gb  udp.o [5]
udp_socket              0x20008034    0x30  Data  Lc  mftest.o [5]
update_arp_entry        0x08049b17    0xc2  Code  Lc  etharp.o [5]
update_bus_credit_time  0x080322a5    0x28  Code  Gb  wifimgr.o [5]
update_connected_ap_info
                        0x08031edb    0x24  Code  Lc  wifimgr.o [5]
update_rx_time          0x0802d527     0x2  Code  Gb  mxchipWNET.o [5]
update_state_fd         0x2000048c     0x4  Data  Lc  mico_mdns.o [1]
update_state_sem        0x20000488     0x4  Data  Lc  mico_mdns.o [1]
upload_info             0x08030cf1   0x188  Code  Lc  wifimgr.o [5]
uptime_Command          0x08057577    0x2e  Code  Lc  mico_cli.o [1]
url_free                0x0806550d    0x7c  Code  Gb  url.o [1]
url_parse               0x0806527b   0x292  Code  Gb  url.o [1]
use_5g_join_param       0x200085c0     0x4  Data  Lc  wwd_wifi.o [5]
user_clis               0x08058044     0xc  Data  Lc  mico_cli.o [1]
user_data               0x2000596c     0x4  Data  Lc  wlan_bus_SDIO.o [1]
user_data_size          0x20005970     0x4  Data  Lc  wlan_bus_SDIO.o [1]
user_downstream_thread  0x0806f0f5   0x1f8  Code  Gb  user_downstream.o [1]
user_fog_v2_ota_notification
                        0x08025919   0x15c  Code  Gb  MICOAppEntrance.o [1]
user_i2c_device         0x20000374     0x8  Data  Gb  bme280_user.o [1]
user_key1_clicked_callback
                        0x080738bd    0x28  Code  Wk  micokit_ext_mfg.o [1]
user_key2_clicked_callback
                        0x080738e5    0x1c  Code  Wk  micokit_ext_mfg.o [1]
user_main               0x08033ac5   0x2b0  Code  Gb  user_main.o [1]
user_main_thread        0x08025b21    0x68  Code  Gb  MICOAppEntrance.o [1]
user_modules_init       0x08034355    0xe0  Code  Gb  micokit_ext.o [1]
user_req_scan           0x200084b4     0x4  Data  Lc  wifimgr.o [5]
user_ring_buff          0x200070bc    0x14  Data  Gb  user_uart_data_process.o [1]
user_set_tcp_keepalive  0x0804fcc5   0x288  Code  Lc  fog_http_client.o [1]
user_stop_sta           0x200084b8     0x4  Data  Lc  wifimgr.o [5]
user_str2hex            0x08050bfd    0x8a  Code  Gb  fog_ota.o [1]
user_uart_data_process_thread
                        0x0806b651   0x538  Code  Gb  user_uart_data_process.o [1]
user_uart_init          0x0806c8a5   0x15a  Code  Gb  user_uart.o [1]
user_uart_rb_initialize
                        0x0806b0c9    0x16  Code  Gb  user_uart_data_process.o [1]
user_uart_send          0x0806c9ff    0xf2  Code  Gb  user_uart.o [1]
user_upstream_thread    0x080717e1   0x43e  Code  Gb  user_upstream.o [1]
utf8_replacement_char   0x20000578     0x4  Data  Lc  json_tokener.o [1]
utoa                    0x0806851d    0x88  Code  Gb  wiced_lib.o [5]
uxCriticalNesting       0x20000584     0x4  Data  Lc  port.o [1]
uxCurrentNumberOfTasks  0x200076e4     0x4  Data  Lc  tasks.o [1]
uxDeletedTasksWaitingCleanUp
                        0x200076cc     0x4  Data  Lc  tasks.o [1]
uxListRemove            0x0802d283    0x24  Code  Gb  list.o [1]
uxPendedTicks           0x200076f4     0x4  Data  Lc  tasks.o [1]
uxSchedulerSuspended    0x20007708     0x4  Data  Lc  tasks.o [1]
uxTaskGetNumberOfTasks  0x08024dd3     0x8  Code  Gb  tasks.o [1]
uxTaskGetSystemState    0x08024ddb   0x148  Code  Gb  tasks.o [1]
uxTaskNumber            0x20007700     0x4  Data  Lc  tasks.o [1]
uxTopReadyPriority      0x200076ec     0x4  Data  Lc  tasks.o [1]
vApplicationMallocFailedHook
                        0x08016cc7     0x2  Code  Gb  mico_rtos.o [1]
vApplicationStackOverflowHook
                        0x08016cc1     0x6  Code  Gb  mico_rtos.o [1]
vListInitialise         0x0802d217    0x1a  Code  Gb  list.o [1]
vListInitialiseItem     0x0802d231     0x6  Code  Gb  list.o [1]
vListInsert             0x0802d24f    0x34  Code  Gb  list.o [1]
vListInsertEnd          0x0802d237    0x18  Code  Gb  list.o [1]
vPortEnableVFP          0x0803ced5          Code  Gb  portasm.o [1]
vPortEnterCritical      0x08026a31    0x18  Code  Gb  port.o [1]
vPortExitCritical       0x08026a49    0x12  Code  Gb  port.o [1]
vPortFree               0x080262d3    0x1a  Code  Gb  heap_3.o [1]
vPortSVCHandler         0x0803cea1          Code  Gb  portasm.o [1]
vPortSetupTimerInterrupt
                        0x08026a81     0xc  Code  Wk  port.o [1]
vPortStartFirstTask     0x0803cebd          Code  Gb  portasm.o [1]
vQueueDelete            0x08026845     0x4  Code  Gb  queue.o [1]
vQueueWaitForMessageRestricted
                        0x0802695d    0x48  Code  Gb  queue.o [1]
vTaskDelay              0x08024be5    0x76  Code  Gb  tasks.o [1]
vTaskDelete             0x08024b3b    0xaa  Code  Gb  tasks.o [1]
vTaskMissedYield        0x08025223     0xa  Code  Gb  tasks.o [1]
vTaskPlaceOnEventList   0x080250c7    0x5e  Code  Gb  tasks.o [1]
vTaskPlaceOnEventListRestricted
                        0x08025141    0x22  Code  Gb  tasks.o [1]
vTaskPriorityInherit    0x08025381    0x7c  Code  Gb  tasks.o [1]
vTaskSetTimeOutState    0x080251bb     0xe  Code  Gb  tasks.o [1]
vTaskStartScheduler     0x08024cab    0x52  Code  Gb  tasks.o [1]
vTaskSuspendAll         0x08024d09     0xc  Code  Gb  tasks.o [1]
vTaskSwitchContext      0x08025055    0x72  Code  Gb  tasks.o [1]
valid_dir               0x20008568     0x4  Data  Lc  smart_config.o [5]
valid_ssid              0x20000629     0x1  Data  Lc  smart_config.o [5]
vasprintf               0x0806147f    0x40  Code  Gb  printbuf.o [1]
vprintf                 0x08069891    0x18  Code  Gb  vprintf.o [7]
vsnprintf               0x08067c2d    0x3c  Code  Gb  vsnprint.o [7]
vsprintf                0x08068b71    0x2c  Code  Gb  vsprintf.o [7]
wc_AesCbcDecrypt        0x0802225d    0x4c  Code  Gb  aes.o [4]
wc_AesCbcEncrypt        0x0802221f    0x3e  Code  Gb  aes.o [4]
wc_AesDecrypt           0x08020781   0x20c  Code  Lc  aes.o [4]
wc_AesEncrypt           0x08020573   0x20e  Code  Lc  aes.o [4]
wc_AesGcmDecrypt        0x08022615    0xf0  Code  Gb  aes.o [4]
wc_AesGcmEncrypt        0x08022549    0xcc  Code  Gb  aes.o [4]
wc_AesGcmSetKey         0x080222bd    0x44  Code  Gb  aes.o [4]
wc_AesSetIV             0x080221fd    0x22  Code  Gb  aes.o [4]
wc_AesSetKey            0x080221dd    0x16  Code  Gb  aes.o [4]
wc_AesSetKeyLocal       0x08020b71   0x1d0  Code  Lc  aes.o [4]
wc_Arc4Process          0x0805e5c5    0x3e  Code  Gb  arc4.o [4]
wc_Arc4SetKey           0x0805e57d    0x48  Code  Gb  arc4.o [4]
wc_EccPrivateKeyDecode  0x080201f5   0x14c  Code  Gb  asn.o [4]
wc_EncodeSignature      0x0801ed99    0x54  Code  Gb  asn.o [4]
wc_FreeRng              0x0801d149    0x2e  Code  Gb  random.o [4]
wc_FreeRsaKey           0x08016ed3    0x50  Code  Gb  rsa.o [4]
wc_GenerateSeed         0x0801d24d    0x32  Code  Gb  random.o [4]
wc_Hash                 0x08024101    0x76  Code  Gb  hash.o [4]
wc_HashGetDigestSize    0x080240d1    0x2e  Code  Gb  hash.o [4]
wc_Hc128_Process        0x08023631    0x66  Code  Gb  hc128.o [4]
wc_Hc128_SetKey         0x08023523    0x40  Code  Gb  hc128.o [4]
wc_HmacFinal            0x08029899   0x122  Code  Gb  hmac.o [4]
wc_HmacSetKey           0x08029685   0x13e  Code  Gb  hmac.o [4]
wc_HmacUpdate           0x0802982d    0x64  Code  Gb  hmac.o [4]
wc_InitMd5              0x08018be1    0x22  Code  Gb  md5.o [4]
wc_InitRng_ex           0x0801d02d    0x80  Code  Gb  random.o [4]
wc_InitRsaKey           0x08016eb1    0x22  Code  Gb  rsa.o [4]
wc_InitSha              0x080193fd    0x2a  Code  Gb  sha.o [4]
wc_InitSha256           0x0801a097    0x2c  Code  Gb  sha256.o [4]
wc_InitSha384           0x0801aea9    0x80  Code  Gb  sha512.o [4]
wc_InitSha512           0x0801a83d    0x3e  Code  Gb  sha512.o [4]
wc_Md5Final             0x08019317    0x86  Code  Gb  md5.o [4]
wc_Md5GetHash           0x0802417f    0x24  Code  Gb  hash.o [4]
wc_Md5Hash              0x0801939d    0x28  Code  Gb  md5.o [4]
wc_Md5RestorePos        0x080241a3     0x6  Code  Gb  hash.o [4]
wc_Md5Update            0x080192c9    0x4e  Code  Gb  md5.o [4]
wc_RNG_GenerateBlock    0x0801d0ad    0x94  Code  Gb  random.o [4]
wc_RNG_HealthTest       0x0801d177    0x6a  Code  Gb  random.o [4]
wc_RNG_HealthTestLocal  0x0801d1e9    0x64  Code  Lc  random.o [4]
wc_RsaEncryptSize       0x0801720d     0x4  Code  Gb  rsa.o [4]
wc_RsaFunction          0x0801701d    0xc4  Code  Lc  rsa.o [4]
wc_RsaPad               0x08016f23    0x80  Code  Lc  rsa.o [4]
wc_RsaPrivateDecryptInline
                        0x0801714b    0x26  Code  Gb  rsa.o [4]
wc_RsaPrivateKeyDecode  0x0801e0b9    0x98  Code  Gb  asn.o [4]
wc_RsaPublicEncrypt     0x080170e1    0x58  Code  Gb  rsa.o [4]
wc_RsaPublicKeyDecode   0x0801e1ef    0x8e  Code  Gb  asn.o [4]
wc_RsaSSL_Sign          0x080171a3    0x64  Code  Gb  rsa.o [4]
wc_RsaSSL_VerifyInline  0x08017171    0x26  Code  Gb  rsa.o [4]
wc_Sha256Final          0x0801a5b1    0xa0  Code  Gb  sha256.o [4]
wc_Sha256GetHash        0x08024211    0x28  Code  Gb  hash.o [4]
wc_Sha256Hash           0x08024239    0x42  Code  Gb  hash.o [4]
wc_Sha256Update         0x0801a559    0x58  Code  Gb  sha256.o [4]
wc_Sha384Final          0x0801c94f    0x50  Code  Gb  sha512.o [4]
wc_Sha384Hash           0x080242cb    0x3c  Code  Gb  hash.o [4]
wc_Sha384Update         0x0801c8d1    0x3c  Code  Gb  sha512.o [4]
wc_Sha512Final          0x0801ae57    0x50  Code  Gb  sha512.o [4]
wc_Sha512Hash           0x0802427b    0x3e  Code  Gb  hash.o [4]
wc_Sha512Update         0x0801ae1b    0x3c  Code  Gb  sha512.o [4]
wc_ShaFinal             0x08019fbd    0x9e  Code  Gb  sha.o [4]
wc_ShaGetHash           0x080241a9    0x28  Code  Gb  hash.o [4]
wc_ShaHash              0x080241e1    0x30  Code  Gb  hash.o [4]
wc_ShaRestorePos        0x080241db     0x6  Code  Gb  hash.o [4]
wc_ShaUpdate            0x08019f69    0x54  Code  Gb  sha.o [4]
wc_ecc_del_point_h      0x08017f2d    0x26  Code  Gb  ecc.o [4]
wc_ecc_export_x963      0x08018721    0xa2  Code  Gb  ecc.o [4]
wc_ecc_free             0x08018401    0x20  Code  Gb  ecc.o [4]
wc_ecc_get_oid          0x08018929    0x3a  Code  Gb  ecc.o [4]
wc_ecc_import_private_key
                        0x080188d1    0x2a  Code  Gb  ecc.o [4]
wc_ecc_import_x963      0x080188cd     0x4  Code  Gb  ecc.o [4]
wc_ecc_import_x963_ex   0x08018809    0xb8  Code  Gb  ecc.o [4]
wc_ecc_init             0x080181f3    0x1c  Code  Gb  ecc.o [4]
wc_ecc_init_h           0x0801820f    0x10  Code  Gb  ecc.o [4]
wc_ecc_is_valid_idx     0x08017f53    0x26  Code  Gb  ecc.o [4]
wc_ecc_make_key         0x080181ef     0x4  Code  Gb  ecc.o [4]
wc_ecc_make_key_ex      0x0801809b   0x134  Code  Gb  ecc.o [4]
wc_ecc_mulmod           0x08017edb    0x18  Code  Gb  ecc.o [4]
wc_ecc_mulmod_ex        0x08017b9d   0x302  Code  Gb  ecc.o [4]
wc_ecc_new_point_h      0x08017ef3    0x3a  Code  Gb  ecc.o [4]
wc_ecc_set_curve        0x08017361    0x54  Code  Lc  ecc.o [4]
wc_ecc_shared_secret    0x08017f7d    0xe6  Code  Gb  ecc.o [4]
wc_ecc_sig_size         0x08018919    0x10  Code  Gb  ecc.o [4]
wc_ecc_sign_hash        0x0801821f    0x66  Code  Gb  ecc.o [4]
wc_ecc_sign_hash_ex     0x080182a3   0x15e  Code  Gb  ecc.o [4]
wc_ecc_size             0x08018911     0x8  Code  Gb  ecc.o [4]
wc_ecc_verify_hash      0x08018439    0x68  Code  Gb  ecc.o [4]
wc_ecc_verify_hash_ex   0x080184a1   0x254  Code  Gb  ecc.o [4]
wiced_abort_read        0x0805d7d7    0x4e  Code  Gb  wwd_bus_protocol.o [5]
wiced_bus_deinit        0x0805d2cf    0x14  Code  Gb  wwd_bus_protocol.o [5]
wiced_bus_flow_controlled
                        0x20008699     0x1  Data  Lc  wwd_bus_protocol.o [5]
wiced_bus_init          0x0805cfb1   0x31e  Code  Gb  wwd_bus_protocol.o [5]
wiced_bus_interrupt     0x20008684     0x1  Data  Lc  wwd_thread.o [5]
wiced_bus_is_flow_controlled
                        0x0805d87d     0x6  Code  Gb  wwd_bus_protocol.o [5]
wiced_bus_poke_wlan     0x0805d857     0xe  Code  Gb  wwd_bus_protocol.o [5]
wiced_bus_process_interrupt
                        0x0805d2e3    0x22  Code  Gb  wwd_bus_protocol.o [5]
wiced_bus_set_flow_control
                        0x0805d865    0x18  Code  Gb  wwd_bus_protocol.o [5]
wiced_bus_transfer_buffer
                        0x0805cf79    0x38  Code  Gb  wwd_bus_protocol.o [5]
wiced_bus_transfer_bytes
                        0x0805d50d    0x16  Code  Gb  wwd_bus_protocol.o [5]
wiced_device_core_is_up
                        0x08068011    0x5c  Code  Gb  wwd_internal.o [5]
wiced_dhcp_handle       0x20007f88    0x3c  Data  Gb  wiced_network.o [5]
wiced_disable_device_core
                        0x0806806d    0x9e  Code  Gb  wwd_internal.o [5]
wiced_dns_redirector_start
                        0x08048291    0x42  Code  Gb  dns_redirect.o [5]
wiced_dns_redirector_stop
                        0x080482d3    0x30  Code  Gb  dns_redirect.o [5]
wiced_download_firmware
                        0x0805d6cf   0x108  Code  Lc  wwd_bus_protocol.o [5]
wiced_get_available_bus_credits
                        0x0804961f     0xe  Code  Gb  wwd_sdpcm.o [5]
wiced_get_core_address  0x08068005     0xc  Code  Lc  wwd_internal.o [5]
wiced_get_ioctl_buffer  0x08049535    0x26  Code  Gb  wwd_sdpcm.o [5]
wiced_get_iovar_buffer  0x080494cd    0x68  Code  Gb  wwd_sdpcm.o [5]
wiced_get_mac_addr      0x08046733    0x10  Code  Gb  wwd_management.o [5]
wiced_get_next_buffer_in_queue
                        0x080496bd     0xa  Code  Lc  wwd_sdpcm.o [5]
wiced_get_packet_to_send
                        0x0804955b    0xc4  Code  Gb  wwd_sdpcm.o [5]
wiced_handle_apsta_event
                        0x08048459    0x3c  Code  Lc  wwd_ap.o [5]
wiced_init              0x08040211    0x84  Code  Gb  wifi.o [5]
wiced_init_sdpcm        0x08048b65    0xe4  Code  Gb  wwd_sdpcm.o [5]
wiced_inited            0x20008683     0x1  Data  Lc  wwd_thread.o [5]
wiced_initialised       0x20008691     0x1  Data  Lc  wifi.o [5]
wiced_ioctl_response    0x200084cc     0x4  Data  Lc  wwd_sdpcm.o [5]
wiced_ioctl_sleep       0x200084d0     0x4  Data  Lc  wwd_sdpcm.o [5]
wiced_ip_broadcast      0x08074b24    0x14  Data  Gb  wiced_network.o [5]
wiced_ip_down           0x08048193    0x7e  Code  Gb  wiced_network.o [5]
wiced_ip_get_gateway_address
                        0x08040689    0x24  Code  Gb  tcpip.o [5]
wiced_ip_get_ipaddr     0x080406d1    0x56  Code  Gb  tcpip.o [5]
wiced_ip_get_ipv4_address
                        0x08040a99    0x24  Code  Gb  tcpip.o [5]
wiced_ip_get_netmask    0x080406ad    0x24  Code  Gb  tcpip.o [5]
wiced_ip_handle         0x200077d8    0x88  Data  Gb  wiced_network.o [5]
wiced_ip_up             0x08047f25   0x26e  Code  Gb  wiced_network.o [5]
wiced_join_events_handler
                        0x08042fd9   0x12a  Code  Lc  wwd_wifi.o [5]
wiced_join_status       0x200085cc     0x4  Data  Gb  wwd_wifi.o [5]
wiced_mac_addr          0x2000844c     0x8  Data  Lc  wwd_management.o [5]
wiced_management_init   0x080464f1    0x1e  Code  Gb  wwd_management.o [5]
wiced_management_set_event_handler
                        0x08049339     0xa  Code  Gb  wwd_sdpcm.o [5]
wiced_management_wifi_off
                        0x080466e3    0x50  Code  Gb  wwd_management.o [5]
wiced_management_wifi_on
                        0x0804650f   0x1d4  Code  Gb  wwd_management.o [5]
wiced_network_init      0x08047e69    0x8c  Code  Gb  wiced_network.o [5]
wiced_network_link_renew_handler
                        0x08048211    0x18  Code  Gb  wiced_network.o [5]
wiced_network_resume    0x08047f11    0x14  Code  Gb  wiced_network.o [5]
wiced_network_send_ethernet_data
                        0x08048cc7    0x8a  Code  Gb  wwd_sdpcm.o [5]
wiced_network_suspend   0x08047efd    0x14  Code  Gb  wiced_network.o [5]
wiced_packet_create_tcp
                        0x08040943    0x6c  Code  Gb  tcpip.o [5]
wiced_packet_create_udp
                        0x080409af    0x12  Code  Gb  tcpip.o [5]
wiced_packet_delete     0x080409c1    0x16  Code  Gb  tcpip.o [5]
wiced_packet_get_data   0x08040a09    0x90  Code  Gb  tcpip.o [5]
wiced_packet_set_data_end
                        0x080409d7    0x16  Code  Gb  tcpip.o [5]
wiced_ping              0x08040661    0x28  Code  Gb  tcpip.o [5]
wiced_ping_send         0x0805b281    0x8c  Code  Gb  wiced_ping.o [5]
wiced_process_bus_credit_update
                        0x08048d51    0x72  Code  Gb  wwd_sdpcm.o [5]
wiced_process_sdpcm     0x08048dc3   0x372  Code  Gb  wwd_sdpcm.o [5]
wiced_quit_sdpcm        0x08048c49    0x4e  Code  Gb  wwd_sdpcm.o [5]
wiced_read_backplane_value
                        0x0805d4b9    0x36  Code  Gb  wwd_bus_protocol.o [5]
wiced_read_frame        0x0805d305   0x182  Code  Gb  wwd_bus_protocol.o [5]
wiced_read_register_value
                        0x0805d825    0x32  Code  Gb  wwd_bus_protocol.o [5]
wiced_receive_one_packet
                        0x0805d995    0x38  Code  Gb  wwd_thread.o [5]
wiced_reset_device_core
                        0x0806810b    0x9e  Code  Gb  wwd_internal.o [5]
wiced_rtos_create_thread
                        0x08048a3b    0x12  Code  Gb  wiced_rtos.o [5]
wiced_rtos_deinit_semaphore
                        0x08048a93     0x8  Code  Gb  wiced_rtos.o [5]
wiced_rtos_delay_milliseconds
                        0x08048ad1     0x8  Code  Gb  wiced_rtos.o [5]
wiced_rtos_delete_thread
                        0x08048a4d     0x8  Code  Gb  wiced_rtos.o [5]
wiced_rtos_deregister_timed_event
                        0x08048ae7     0x8  Code  Gb  wiced_rtos.o [5]
wiced_rtos_enter_critical
                        0x08048aef     0x8  Code  Gb  wiced_rtos.o [5]
wiced_rtos_exit_critical
                        0x08048af7     0x8  Code  Gb  wiced_rtos.o [5]
wiced_rtos_get_semaphore
                        0x08048a83     0x8  Code  Gb  wiced_rtos.o [5]
wiced_rtos_init         0x08048a33     0x8  Code  Gb  wiced_rtos.o [5]
wiced_rtos_init_mutex   0x08048a9b     0x8  Code  Gb  wiced_rtos.o [5]
wiced_rtos_init_semaphore
                        0x08048a77     0xc  Code  Gb  wiced_rtos.o [5]
wiced_rtos_is_current_thread
                        0x08048a5d     0xa  Code  Gb  wiced_rtos.o [5]
wiced_rtos_is_queue_empty
                        0x08048ab3    0x16  Code  Gb  wiced_rtos.o [5]
wiced_rtos_lock_mutex   0x08048aa3     0x8  Code  Gb  wiced_rtos.o [5]
wiced_rtos_register_timed_event
                        0x08048ad9     0xe  Code  Gb  wiced_rtos.o [5]
wiced_rtos_send_asynchronous_event
                        0x08048ac9     0x8  Code  Gb  wiced_rtos.o [5]
wiced_rtos_set_semaphore
                        0x08048a8b     0x8  Code  Gb  wiced_rtos.o [5]
wiced_rtos_thread_force_awake
                        0x08048a67     0x8  Code  Gb  wiced_rtos.o [5]
wiced_rtos_thread_join  0x08048a55     0x8  Code  Gb  wiced_rtos.o [5]
wiced_rtos_unlock_mutex
                        0x08048aab     0x8  Code  Gb  wiced_rtos.o [5]
wiced_sdio_redirect_oob_interrupt
                        0x0805d88b    0x36  Code  Lc  wwd_bus_protocol.o [5]
wiced_sdio_transfer     0x0805d523    0x94  Code  Lc  wwd_bus_protocol.o [5]
wiced_sdpcm_ioctl_mutex
                        0x200084c8     0x4  Data  Lc  wwd_sdpcm.o [5]
wiced_sdpcm_send_queue_head
                        0x200084dc     0x4  Data  Lc  wwd_sdpcm.o [5]
wiced_sdpcm_send_queue_mutex
                        0x200084d8     0x4  Data  Lc  wwd_sdpcm.o [5]
wiced_sdpcm_send_queue_tail
                        0x200084e0     0x4  Data  Lc  wwd_sdpcm.o [5]
wiced_send_ioctl        0x08049139   0x200  Code  Gb  wwd_sdpcm.o [5]
wiced_send_iovar        0x08048c97    0x30  Code  Gb  wwd_sdpcm.o [5]
wiced_send_one_packet   0x0805d953    0x42  Code  Gb  wwd_thread.o [5]
wiced_send_sdpcm_common
                        0x0804962d    0x90  Code  Lc  wwd_sdpcm.o [5]
wiced_set_backplane_window
                        0x08067f5d    0xa8  Code  Gb  wwd_internal.o [5]
wiced_set_next_buffer_in_queue
                        0x080496c7     0xe  Code  Lc  wwd_sdpcm.o [5]
wiced_start_dhcp_server
                        0x0805f599    0x58  Code  Gb  dhcp_server.o [5]
wiced_stop_dhcp         0x08048229     0x8  Code  Gb  wiced_network.o [5]
wiced_stop_dhcp_server  0x0805f5f1    0x2a  Code  Gb  dhcp_server.o [5]
wiced_tcp_bind          0x0804083f    0x56  Code  Gb  tcpip.o [5]
wiced_tcp_connect       0x08040785    0xba  Code  Gb  tcpip.o [5]
wiced_tcp_create_socket
                        0x08040727    0x5e  Code  Gb  tcpip.o [5]
wiced_tcp_send_packet   0x08040895    0x20  Code  Gb  tcpip.o [5]
wiced_tcp_start_tls     0x0805b417     0x6  Code  Gb  mxchipbesl.o [5]
wiced_thread            0x2000850c     0x4  Data  Lc  wwd_thread.o [5]
wiced_thread_func       0x0805da2d   0x132  Code  Lc  wwd_thread.o [5]
wiced_thread_init       0x0805d905    0x4e  Code  Gb  wwd_thread.o [5]
wiced_thread_notify     0x0805da17    0x14  Code  Gb  wwd_thread.o [5]
wiced_thread_quit       0x0805d9cd    0x28  Code  Gb  wwd_thread.o [5]
wiced_thread_quit_flag  0x20008682     0x1  Data  Lc  wwd_thread.o [5]
wiced_time_get_time     0x08048a6f     0x8  Code  Gb  wiced_rtos.o [5]
wiced_tls_encrypt_packet
                        0x0805b411     0x6  Code  Gb  mxchipbesl.o [5]
wiced_transceive_semaphore
                        0x20008510     0x4  Data  Lc  wwd_thread.o [5]
wiced_udp_create_socket
                        0x08040abd    0x86  Code  Gb  tcpip.o [5]
wiced_udp_delete_socket
                        0x08040c19    0x2a  Code  Gb  tcpip.o [5]
wiced_udp_packet_get_info
                        0x080409ed    0x1c  Code  Gb  tcpip.o [5]
wiced_udp_receive       0x08040bd1    0x48  Code  Gb  tcpip.o [5]
wiced_udp_send          0x08040b43    0x8e  Code  Gb  tcpip.o [5]
wiced_using_dhcp        0x20008695     0x1  Data  Lc  wiced_network.o [5]
wiced_wifi_add_packet_filter
                        0x0804370d    0x86  Code  Gb  wwd_wifi.o [5]
wiced_wifi_ap_is_up     0x20008697     0x1  Data  Gb  wwd_ap.o [5]
wiced_wifi_disable_monitor_mode
                        0x080435c1    0x5c  Code  Gb  wwd_wifi.o [5]
wiced_wifi_enable_monitor_mode
                        0x0804355d    0x5c  Code  Gb  wwd_wifi.o [5]
wiced_wifi_enable_packet_filter
                        0x080437c1     0xc  Code  Gb  wwd_wifi.o [5]
wiced_wifi_enable_powersave_with_throughput
                        0x08043209    0x8a  Code  Gb  wwd_wifi.o [5]
wiced_wifi_get_ap_name  0x08043809    0x72  Code  Gb  wwd_wifi.o [5]
wiced_wifi_get_channel  0x0804364d     0xc  Code  Gb  wwd_wifi.o [5]
wiced_wifi_get_mac_address
                        0x08043109    0x58  Code  Gb  wwd_wifi.o [5]
wiced_wifi_get_pmk      0x080432a1    0x86  Code  Gb  wwd_wifi.o [5]
wiced_wifi_get_rssi     0x0804350d    0x4c  Code  Gb  wwd_wifi.o [5]
wiced_wifi_get_wifi_version
                        0x08043905    0x52  Code  Gb  wwd_wifi.o [5]
wiced_wifi_is_packet_from_ap
                        0x08048a15     0xe  Code  Gb  wwd_ap.o [5]
wiced_wifi_is_ready_to_transceive
                        0x08043199    0x70  Code  Gb  wwd_wifi.o [5]
wiced_wifi_join         0x080428ad   0x124  Code  Gb  wwd_wifi.o [5]
wiced_wifi_join_specific
                        0x080429d1   0x194  Code  Gb  wwd_wifi.o [5]
wiced_wifi_leave        0x08042f6b    0x66  Code  Gb  wwd_wifi.o [5]
wiced_wifi_prepare_join
                        0x08042b65   0x406  Code  Lc  wwd_wifi.o [5]
wiced_wifi_register_multicast_address
                        0x08043327    0xd0  Code  Gb  wwd_wifi.o [5]
wiced_wifi_remove_packet_filter
                        0x08043793    0x2e  Code  Gb  wwd_wifi.o [5]
wiced_wifi_scan         0x080423e5   0x150  Code  Gb  wwd_wifi.o [5]
wiced_wifi_scan_networks
                        0x08040295   0x12a  Code  Gb  wifi.o [5]
wiced_wifi_set_channel  0x08043697     0xc  Code  Gb  wwd_wifi.o [5]
wiced_wifi_set_down     0x08043621    0x20  Code  Gb  wwd_wifi.o [5]
wiced_wifi_set_maxassoc
                        0x08043957    0x2c  Code  Gb  wwd_wifi.o [5]
wiced_wifi_set_nmode    0x08043165    0x2e  Code  Gb  wwd_wifi.o [5]
wiced_wifi_sleep_flag   0x20008630     0x4  Data  Lc  wwd_ap.o [5]
wiced_wifi_start_ap     0x08048495   0x444  Code  Gb  wwd_ap.o [5]
wiced_wifi_stop_ap      0x080488d9   0x100  Code  Gb  wwd_ap.o [5]
wiced_wifi_stop_scan    0x08042535    0x58  Code  Gb  wwd_wifi.o [5]
wiced_wifi_toggle_packet_filter
                        0x080437cd    0x32  Code  Gb  wwd_wifi.o [5]
wiced_wifi_unregister_multicast_address
                        0x0804340d    0xf0  Code  Gb  wwd_wifi.o [5]
wiced_wlan_status       0x20000554     0xc  Data  Gb  wwd_internal.o [5]
wiced_write_backplane_value
                        0x0805d487    0x32  Code  Gb  wwd_bus_protocol.o [5]
wiced_write_register_value
                        0x0805d4ef    0x1e  Code  Gb  wwd_bus_protocol.o [5]
wiced_write_wifi_firmware_image
                        0x080681bd    0xbe  Code  Gb  wwd_firmware.o [5]
wiced_write_wifi_nvram_image
                        0x0806827b   0x160  Code  Gb  wwd_firmware.o [5]
wifi_control_pins       0x0807252c    0x10  Data  Gb  platform.o [1]
wifi_join_aping         0x20008690     0x1  Data  Lc  wwd_wifi.o [5]
wifi_mgmt_parse         0x08045e2d   0x110  Code  Lc  smart_config.o [5]
wifi_nvram_image        0x08072574   0x30c  Data  Lc  wwd_firmware.o [5]
wifi_power_down         0x0802d645    0x26  Code  Gb  mxchipWNET.o [5]
wifi_power_is_down      0x20008494     0x4  Data  Lc  mxchipWNET.o [5]
wifi_power_up           0x0802d66b    0x20  Code  Gb  mxchipWNET.o [5]
wifi_reboot_event       0x08026f0f    0x16  Code  Gb  mico_system_notification.o [1]
wifi_reboot_only        0x080320f1    0x36  Code  Gb  wifimgr.o [5]
wifi_sdio_pins          0x0807253c    0x38  Data  Gb  platform.o [1]
wifi_sem                0x20008468     0x4  Data  Lc  MICOAppEntrance.o [1]
wifi_send_data_to_mcu_event
                        0x0806bd4d   0x522  Code  Gb  user_uart_data_process.o [1]
wifi_status_callback    0x0802d4a1    0x74  Code  Gb  mxchipWNET.o [5]
wifi_uart_rx_buff       0x200070f4   0x100  Data  Gb  user_uart_data_process.o [1]
wifi_uart_rx_queue      0x200071f4     0x4  Data  Gb  user_uart_data_process.o [1]
wifi_uart_tx_mutex      0x200071fc     0x4  Data  Lc  user_uart_data_process.o [1]
wifi_up                 0x2000847c     0x4  Data  Lc  tftp_ota.o [1]
wifidebug_Command       0x0803275f    0x70  Code  Gb  wifimgr.o [5]
wifimgr_debug_enable    0x08030b95    0x1c  Code  Gb  wifimgr.o [5]
wifimgr_sem             0x200084ac     0x4  Data  Lc  wifimgr.o [5]
wifimgr_thread          0x0803212d   0x178  Code  Lc  wifimgr.o [5]
wifiscan_Command        0x08032809   0x266  Code  Gb  wifimgr.o [5]
wifistate_Command       0x08032575   0x1ea  Code  Gb  wifimgr.o [5]
wlan_disconnect         0x080315e9    0x48  Code  Gb  wifimgr.o [5]
wlan_driver_version     0x0802d68b    0x22  Code  Gb  mxchipWNET.o [5]
wlan_get_mac_address    0x08031fd3     0x8  Code  Gb  wifimgr.o [5]
wlan_init               0x080320c1    0x28  Code  Gb  wifimgr.o [5]
wlan_notify_irq         0x0805d9f5    0x22  Code  Gb  wwd_thread.o [5]
wlu_is_ali_ie           0x0804517f    0x36  Code  Lc  smart_config.o [5]
wlu_is_wpa_ie           0x080438cf    0x36  Code  Lc  wwd_wifi.o [5]
wlu_parse_tlvs          0x08045159    0x26  Code  Lc  smart_config.o [5]
wlu_parse_tlvs          0x080438a9    0x26  Code  Lc  wwd_wifi.o [5]
wolfCrypt_Init          0x080140c9     0xe  Code  Gb  wc_port.o [4]
wolfSSL_CTX_free        0x08014301    0x16  Code  Gb  ssl.o [4]
wolfSSL_CTX_load_verify_buffer
                        0x08016349    0x36  Code  Gb  ssl.o [4]
wolfSSL_CTX_new         0x080142fd     0x4  Code  Gb  ssl.o [4]
wolfSSL_CTX_new_ex      0x0801421b    0x7a  Code  Gb  ssl.o [4]
wolfSSL_CTX_set_cipher_list
                        0x08015939    0x36  Code  Gb  ssl.o [4]
wolfSSL_CTX_set_verify  0x08015869    0x44  Code  Gb  ssl.o [4]
wolfSSL_CTX_use_PrivateKey_buffer
                        0x0801639f    0x1a  Code  Gb  ssl.o [4]
wolfSSL_CTX_use_certificate_buffer
                        0x0801637f    0x20  Code  Gb  ssl.o [4]
wolfSSL_CertManagerFree
                        0x080147bd    0x2c  Code  Gb  ssl.o [4]
wolfSSL_CertManagerNew_ex
                        0x08014749    0x4a  Code  Gb  ssl.o [4]
wolfSSL_DeriveTlsKeys   0x0801d71b    0x16  Code  Gb  tls.o [4]
wolfSSL_GetHmacType     0x0801d829    0x30  Code  Gb  tls.o [4]
wolfSSL_GetMacSecret    0x0801468f    0x1e  Code  Gb  ssl.o [4]
wolfSSL_Init            0x08014c45    0x5c  Code  Gb  ssl.o [4]
wolfSSL_MakeTlsMasterSecret
                        0x0801d785    0x14  Code  Gb  tls.o [4]
wolfSSL_SetTlsHmacInner
                        0x0801d859    0x66  Code  Gb  tls.o [4]
wolfSSL_UnloadCertsKeys
                        0x080163d9    0x68  Code  Gb  ssl.o [4]
wolfSSL_accept          0x08015e3d   0x248  Code  Gb  ssl.o [4]
wolfSSL_connect         0x080159b9   0x210  Code  Gb  ssl.o [4]
wolfSSL_dtls            0x0801444f     0x8  Code  Gb  ssl.o [4]
wolfSSL_free            0x08014371    0x18  Code  Gb  ssl.o [4]
wolfSSL_get_fd          0x080143e1    0x1c  Code  Gb  ssl.o [4]
wolfSSL_get_using_nonblock
                        0x08014409    0x24  Code  Gb  ssl.o [4]
wolfSSL_negotiate       0x08014457    0x3e  Code  Gb  ssl.o [4]
wolfSSL_new             0x08014329    0x36  Code  Gb  ssl.o [4]
wolfSSL_read            0x08014569    0x1a  Code  Gb  ssl.o [4]
wolfSSL_read_internal   0x08014505    0x4a  Code  Lc  ssl.o [4]
wolfSSL_set_fd          0x080143a1    0x2c  Code  Gb  ssl.o [4]
wolfSSL_set_verify      0x080158cd    0x56  Code  Gb  ssl.o [4]
wolfSSL_shutdown        0x080145b5    0x9c  Code  Gb  ssl.o [4]
wolfSSL_write           0x080144b5    0x42  Code  Gb  ssl.o [4]
wolfTLSv1_1_client_method
                        0x0801d931     0x4  Code  Gb  tls.o [4]
wolfTLSv1_1_client_method_ex
                        0x0801d94b    0x16  Code  Gb  tls.o [4]
wolfTLSv1_1_server_method
                        0x0801d97d     0x4  Code  Gb  tls.o [4]
wolfTLSv1_1_server_method_ex
                        0x0801d9a9    0x1a  Code  Gb  tls.o [4]
wolfTLSv1_2_client_method
                        0x0801d961     0x2  Code  Gb  tls.o [4]
wolfTLSv1_2_client_method_ex
                        0x0801d963    0x16  Code  Gb  tls.o [4]
wolfTLSv1_2_server_method
                        0x0801d9c3     0x2  Code  Gb  tls.o [4]
wolfTLSv1_2_server_method_ex
                        0x0801d9c5    0x1a  Code  Gb  tls.o [4]
wolfTLSv1_client_method
                        0x0801d92d     0x4  Code  Gb  tls.o [4]
wolfTLSv1_client_method_ex
                        0x0801d935    0x16  Code  Gb  tls.o [4]
wolfTLSv1_server_method
                        0x0801d979     0x4  Code  Gb  tls.o [4]
wolfTLSv1_server_method_ex
                        0x0801d981    0x1a  Code  Gb  tls.o [4]
wolfssl_log             0x08014105     0xc  Code  Lc  logging.o [4]
work_mode               0x20008584     0x4  Data  Lc  smart_config.o [5]
worker_thread_main      0x0803379d    0x1c  Code  Lc  mico_rtos_common.o [1]
wps_running             0x2000868b     0x1  Data  Lc  wps_host.o [5]
write                   0x0803cf75     0x6  Code  Gb  mico_socket.o [1]
writeCString            0x08069b07    0x38  Code  Gb  MQTTPacket.o [1]
writeChar               0x08069ae7     0x4  Code  Gb  MQTTPacket.o [1]
writeInt                0x08069aeb    0x12  Code  Gb  MQTTPacket.o [1]
writeMQTTString         0x08069b3f    0x58  Code  Gb  MQTTPacket.o [1]
wwd_allow_wlan_bus_to_sleep
                        0x08067f25    0x30  Code  Gb  wwd_chip_specific_functions.o [5]
wwd_bus_specific_sleep  0x0805d887     0x4  Code  Gb  wwd_bus_protocol.o [5]
wwd_bus_specific_wakeup
                        0x0805d883     0x4  Code  Gb  wwd_bus_protocol.o [5]
wwd_chip_specific_init  0x08067ea1     0x4  Code  Gb  wwd_chip_specific_functions.o [5]
wwd_chip_specific_socsram_init
                        0x08067ea5     0x4  Code  Gb  wwd_chip_specific_functions.o [5]
wwd_ensure_wlan_bus_is_up
                        0x08067ea9    0x7c  Code  Gb  wwd_chip_specific_functions.o [5]
wwd_management_set_event_handler
                        0x08049343   0x18a  Code  Gb  wwd_sdpcm.o [5]
wwd_thread_line         0x20008504     0x4  Data  Gb  wwd_thread.o [5]
wwd_wifi_get_channel    0x08043659    0x3e  Code  Gb  wwd_wifi.o [5]
wwd_wifi_set_ampdu_parameters
                        0x08048a23    0x10  Code  Gb  wwd_ap.o [5]
wwd_wifi_set_ampdu_parameters_common
                        0x0805fc19    0x52  Code  Gb  wwd_ap_common.o [5]
wwd_wifi_set_channel    0x080436a3    0x62  Code  Gb  wwd_wifi.o [5]
wwd_wifi_set_iovar_value
                        0x0804387b    0x2e  Code  Gb  wwd_wifi.o [5]
xActiveTimerList1       0x20007e34    0x14  Data  Lc  timers.o [1]
xActiveTimerList2       0x20007e48    0x14  Data  Lc  timers.o [1]
xDelayedTaskList1       0x2000770c    0x14  Data  Lc  tasks.o [1]
xDelayedTaskList2       0x20007720    0x14  Data  Lc  tasks.o [1]
xIdleTaskHandle         0x20007734     0x4  Data  Lc  tasks.o [1]
xNextTaskUnblockTime    0x20007704     0x4  Data  Lc  tasks.o [1]
xNumOfOverflows         0x200076fc     0x4  Data  Lc  tasks.o [1]
xPendingReadyList       0x20007698    0x14  Data  Lc  tasks.o [1]
xPortPendSVHandler      0x0803ce49          Code  Gb  portasm.o [1]
xPortStartScheduler     0x080269fd    0x34  Code  Gb  port.o [1]
xPortSysTickHandler     0x08026a5b    0x26  Code  Gb  port.o [1]
xQueueCreateCountingSemaphore
                        0x080264fd    0x2c  Code  Gb  queue.o [1]
xQueueCreateMutex       0x08026481    0x7c  Code  Gb  queue.o [1]
xQueueGenericCreate     0x08026407    0x7a  Code  Gb  queue.o [1]
xQueueGenericReceive    0x08026705   0x13c  Code  Gb  queue.o [1]
xQueueGenericReset      0x08026391    0x76  Code  Gb  queue.o [1]
xQueueGenericSend       0x08026529   0x108  Code  Gb  queue.o [1]
xQueueGenericSendFromISR
                        0x0802663d    0x6e  Code  Gb  queue.o [1]
xQueueGiveFromISR       0x080266ab    0x5a  Code  Gb  queue.o [1]
xQueueIsQueueEmptyFromISR
                        0x08026943     0xa  Code  Gb  queue.o [1]
xQueueIsQueueFullFromISR
                        0x0802694d    0x10  Code  Gb  queue.o [1]
xSchedulerRunning       0x200076f0     0x4  Data  Lc  tasks.o [1]
xSuspendedTaskList      0x200076d0    0x14  Data  Lc  tasks.o [1]
xTaskAbortDelay         0x08024f23    0x70  Code  Gb  tasks.o [1]
xTaskCheckForTimeOut    0x080251c9    0x5a  Code  Gb  tasks.o [1]
xTaskCreate             0x080249a1    0xda  Code  Gb  tasks.o [1]
xTaskGetCurrentTaskHandle
                        0x0802535b     0x8  Code  Gb  tasks.o [1]
xTaskGetSchedulerState  0x08025363    0x18  Code  Gb  tasks.o [1]
xTaskGetTickCount       0x08024dc7     0x2  Code  Gb  tasks.o [1]
xTaskGetTickCountFromISR
                        0x08024dc9     0x2  Code  Gb  tasks.o [1]
xTaskIncrementTick      0x08024f93    0xc2  Code  Gb  tasks.o [1]
xTaskIsTaskFinished     0x080254ed    0x4e  Code  Gb  tasks.o [1]
xTaskPriorityDisinherit
                        0x080253fd    0x6c  Code  Gb  tasks.o [1]
xTaskRemoveFromEventList
                        0x08025163    0x52  Code  Gb  tasks.o [1]
xTaskResumeAll          0x08024d15    0xb2  Code  Gb  tasks.o [1]
xTasksWaitingTermination
                        0x200076ac    0x14  Data  Lc  tasks.o [1]
xTickCount              0x200076e8     0x4  Data  Lc  tasks.o [1]
xTimerCreate            0x08026b13    0x34  Code  Gb  timers.o [1]
xTimerCreateTimerTask   0x08026ae5    0x2e  Code  Gb  timers.o [1]
xTimerGenericCommand    0x08026b47    0x4e  Code  Gb  timers.o [1]
xTimerQueue             0x20007e28     0x4  Data  Lc  timers.o [1]
xTimerTaskHandle        0x20007e2c     0x4  Data  Lc  timers.o [1]
xYieldPending           0x200076f8     0x4  Data  Lc  tasks.o [1]
xorbuf                  0x08020537    0x3c  Code  Lc  aes.o [4]


[1] = E:\工作\stm32开发\WIFI\MX3165-MODBUS-1\Build\modbus\MiCOKit-3165\obj_EWARM
[2] = command line
[3] = Lib_MFi_WAC.Cortex-M4F.IAR.release.a
[4] = Lib_wolfSSL.Cortex-M4F.IAR.release.a
[5] = MiCO.1062.SDIO.Cortex-M4.IAR.a
[6] = MiCODriverMFiAuth.a
[7] = dl7M_tlf.a
[8] = libairkiss.a
[9] = m7M_tls.a
[10] = rt7M_tl.a
[11] = shb_l.a

  404 882 bytes of readonly  code memory
   26 563 bytes of readonly  data memory
  120 989 bytes of readwrite data memory

Errors: none
Warnings: 1
