Component: ARM Compiler 5.06 update 4 (build 422) Tool: armlink [4d35d2]

==============================================================================

Section Cross References

    startup_stm32f10x_hd.o(RESET) refers to startup_stm32f10x_hd.o(.text) for Reset_Handler
    startup_stm32f10x_hd.o(RESET) refers to stm32f10x_it.o(i.NMI_Handler) for NMI_Handler
    startup_stm32f10x_hd.o(RESET) refers to stm32f10x_it.o(i.HardFault_Handler) for HardFault_Handler
    startup_stm32f10x_hd.o(RESET) refers to stm32f10x_it.o(i.MemManage_Handler) for MemManage_Handler
    startup_stm32f10x_hd.o(RESET) refers to stm32f10x_it.o(i.BusFault_Handler) for BusFault_Handler
    startup_stm32f10x_hd.o(RESET) refers to stm32f10x_it.o(i.UsageFault_Handler) for UsageFault_Handler
    startup_stm32f10x_hd.o(RESET) refers to stm32f10x_it.o(i.SVC_Handler) for SVC_Handler
    startup_stm32f10x_hd.o(RESET) refers to stm32f10x_it.o(i.DebugMon_Handler) for DebugMon_Handler
    startup_stm32f10x_hd.o(RESET) refers to os_cpu_a.o(.text) for OS_CPU_PendSVHandler
    startup_stm32f10x_hd.o(RESET) refers to stm32f10x_it.o(i.SysTick_Handler) for SysTick_Handler
    startup_stm32f10x_hd.o(RESET) refers to stm32f10x_it.o(i.USART1_IRQHandler) for USART1_IRQHandler
    startup_stm32f10x_hd.o(RESET) refers to stm32f10x_it.o(i.USART2_IRQHandler) for USART2_IRQHandler
    startup_stm32f10x_hd.o(.text) refers to startup_stm32f10x_hd.o(STACK) for __initial_sp
    startup_stm32f10x_hd.o(.text) refers to entry.o(.ARM.Collect$$$$00000000) for __main
    main.o(i.main) refers to bsp.o(i.BSP_Init) for BSP_Init
    main.o(i.main) refers to malloc.o(i.mem_init) for mem_init
    main.o(i.main) refers to os_core.o(i.OSInit) for OSInit
    main.o(i.main) refers to os_task.o(i.OSTaskCreate) for OSTaskCreate
    main.o(i.main) refers to os_core.o(i.OSStart) for OSStart
    main.o(i.main) refers to main.o(.bss) for startup_task_stk
    main.o(i.main) refers to app.o(i.Task_Start) for Task_Start
    stm32f10x_it.o(i.SysTick_Handler) refers to os_core.o(i.OSIntEnter) for OSIntEnter
    stm32f10x_it.o(i.SysTick_Handler) refers to os_core.o(i.OSTimeTick) for OSTimeTick
    stm32f10x_it.o(i.SysTick_Handler) refers to os_core.o(i.OSIntExit) for OSIntExit
    stm32f10x_it.o(i.USART1_IRQHandler) refers to os_core.o(i.OSIntEnter) for OSIntEnter
    stm32f10x_it.o(i.USART1_IRQHandler) refers to stm32f10x_usart.o(i.USART_GetITStatus) for USART_GetITStatus
    stm32f10x_it.o(i.USART1_IRQHandler) refers to stm32f10x_usart.o(i.USART_ClearITPendingBit) for USART_ClearITPendingBit
    stm32f10x_it.o(i.USART1_IRQHandler) refers to os_core.o(i.OSIntExit) for OSIntExit
    stm32f10x_it.o(i.USART2_IRQHandler) refers to os_core.o(i.OSIntEnter) for OSIntEnter
    stm32f10x_it.o(i.USART2_IRQHandler) refers to stm32f10x_usart.o(i.USART_GetITStatus) for USART_GetITStatus
    stm32f10x_it.o(i.USART2_IRQHandler) refers to user_sim7600_task.o(i.sim7600_usart_recv_handler) for sim7600_usart_recv_handler
    stm32f10x_it.o(i.USART2_IRQHandler) refers to stm32f10x_usart.o(i.USART_ClearITPendingBit) for USART_ClearITPendingBit
    stm32f10x_it.o(i.USART2_IRQHandler) refers to os_core.o(i.OSIntExit) for OSIntExit
    stm32f10x_it.o(i.USART2_IRQHandler) refers to user_sim7600_task.o(.data) for uart_sim7600_rx_index
    user_flash.o(i.flash_embedded_read) refers to stm32f10x_flash.o(i.FLASH_Unlock) for FLASH_Unlock
    user_flash.o(i.flash_embedded_read) refers to stm32f10x_flash.o(i.FLASH_Lock) for FLASH_Lock
    user_flash.o(i.flash_embedded_write) refers to stm32f10x_flash.o(i.FLASH_Unlock) for FLASH_Unlock
    user_flash.o(i.flash_embedded_write) refers to stm32f10x_flash.o(i.FLASH_ProgramWord) for FLASH_ProgramWord
    user_flash.o(i.flash_embedded_write) refers to printfa.o(i.__0printf) for __2printf
    user_flash.o(i.flash_embedded_write) refers to stm32f10x_flash.o(i.FLASH_Lock) for FLASH_Lock
    user_usart.o(i.Usart_SendBytes) refers to user_usart.o(i.Usart_SendOneByte) for Usart_SendOneByte
    user_usart.o(i.Usart_SendOneByte) refers to stm32f10x_usart.o(i.USART_SendData) for USART_SendData
    user_usart.o(i.Usart_SendOneByte) refers to stm32f10x_usart.o(i.USART_GetFlagStatus) for USART_GetFlagStatus
    user_usart1.o(i.NVIC_Configuration) refers to misc.o(i.NVIC_Init) for NVIC_Init
    user_usart1.o(i.fputc) refers to stm32f10x_usart.o(i.USART_SendData) for USART_SendData
    user_usart1.o(i.fputc) refers to stm32f10x_usart.o(i.USART_GetFlagStatus) for USART_GetFlagStatus
    user_usart1.o(i.usart1_config) refers to stm32f10x_rcc.o(i.RCC_APB2PeriphClockCmd) for RCC_APB2PeriphClockCmd
    user_usart1.o(i.usart1_config) refers to stm32f10x_gpio.o(i.GPIO_Init) for GPIO_Init
    user_usart1.o(i.usart1_config) refers to stm32f10x_usart.o(i.USART_Init) for USART_Init
    user_usart1.o(i.usart1_config) refers to stm32f10x_usart.o(i.USART_Cmd) for USART_Cmd
    user_usart1.o(i.usart1_config) refers to user_usart1.o(i.NVIC_Configuration) for NVIC_Configuration
    user_usart1.o(i.usart1_config) refers to stm32f10x_usart.o(i.USART_ITConfig) for USART_ITConfig
    user_usart2.o(i.NVIC_Configuration) refers to misc.o(i.NVIC_Init) for NVIC_Init
    user_usart2.o(i.usart2_config) refers to stm32f10x_rcc.o(i.RCC_APB2PeriphClockCmd) for RCC_APB2PeriphClockCmd
    user_usart2.o(i.usart2_config) refers to stm32f10x_rcc.o(i.RCC_APB1PeriphClockCmd) for RCC_APB1PeriphClockCmd
    user_usart2.o(i.usart2_config) refers to stm32f10x_gpio.o(i.GPIO_Init) for GPIO_Init
    user_usart2.o(i.usart2_config) refers to stm32f10x_usart.o(i.USART_Init) for USART_Init
    user_usart2.o(i.usart2_config) refers to stm32f10x_usart.o(i.USART_Cmd) for USART_Cmd
    user_usart2.o(i.usart2_config) refers to user_usart2.o(i.NVIC_Configuration) for NVIC_Configuration
    user_usart2.o(i.usart2_config) refers to stm32f10x_usart.o(i.USART_ITConfig) for USART_ITConfig
    user_usart3.o(i.NVIC_Configuration) refers to misc.o(i.NVIC_Init) for NVIC_Init
    user_usart3.o(i.usart3_config) refers to stm32f10x_rcc.o(i.RCC_APB2PeriphClockCmd) for RCC_APB2PeriphClockCmd
    user_usart3.o(i.usart3_config) refers to stm32f10x_rcc.o(i.RCC_APB1PeriphClockCmd) for RCC_APB1PeriphClockCmd
    user_usart3.o(i.usart3_config) refers to stm32f10x_gpio.o(i.GPIO_Init) for GPIO_Init
    user_usart3.o(i.usart3_config) refers to stm32f10x_usart.o(i.USART_Init) for USART_Init
    user_usart3.o(i.usart3_config) refers to stm32f10x_usart.o(i.USART_Cmd) for USART_Cmd
    user_usart3.o(i.usart3_config) refers to user_usart3.o(i.NVIC_Configuration) for NVIC_Configuration
    user_usart3.o(i.usart3_config) refers to stm32f10x_usart.o(i.USART_ITConfig) for USART_ITConfig
    sim7600.o(i.device_activate_event) refers to os_mutex.o(i.OSMutexPend) for OSMutexPend
    sim7600.o(i.device_activate_event) refers to app.o(i.is_queue_full) for is_queue_full
    sim7600.o(i.device_activate_event) refers to printfa.o(i.__0printf) for __2printf
    sim7600.o(i.device_activate_event) refers to os_mutex.o(i.OSMutexPost) for OSMutexPost
    sim7600.o(i.device_activate_event) refers to os_q.o(i.OSQPend) for OSQPend
    sim7600.o(i.device_activate_event) refers to malloc.o(i.myfree) for myfree
    sim7600.o(i.device_activate_event) refers to sim7600.o(i.generate_http_session_id) for generate_http_session_id
    sim7600.o(i.device_activate_event) refers to os_q.o(i.OSQPost) for OSQPost
    sim7600.o(i.device_activate_event) refers to cjson.o(i.cJSON_Parse) for cJSON_Parse
    sim7600.o(i.device_activate_event) refers to cjson.o(i.cJSON_GetObjectItem) for cJSON_GetObjectItem
    sim7600.o(i.device_activate_event) refers to strcpy.o(.text) for strcpy
    sim7600.o(i.device_activate_event) refers to cjson.o(i.cJSON_Delete) for cJSON_Delete
    sim7600.o(i.device_activate_event) refers to app.o(.data) for upload_data_mutex
    sim7600.o(i.device_activate_event) refers to sim7600.o(.data) for is_https_action
    sim7600.o(i.device_activate_event) refers to main.o(.data) for stdio_tx_mutex
    sim7600.o(i.device_activate_event) refers to sim7600.o(.bss) for device_id
    sim7600.o(i.device_activate_event) refers to os_time.o(i.OSTimeDlyHMSM) for OSTimeDlyHMSM
    sim7600.o(i.device_get_token_event) refers to os_mutex.o(i.OSMutexPend) for OSMutexPend
    sim7600.o(i.device_get_token_event) refers to app.o(i.is_queue_full) for is_queue_full
    sim7600.o(i.device_get_token_event) refers to printfa.o(i.__0printf) for __2printf
    sim7600.o(i.device_get_token_event) refers to os_mutex.o(i.OSMutexPost) for OSMutexPost
    sim7600.o(i.device_get_token_event) refers to os_q.o(i.OSQPend) for OSQPend
    sim7600.o(i.device_get_token_event) refers to malloc.o(i.myfree) for myfree
    sim7600.o(i.device_get_token_event) refers to sim7600.o(i.generate_http_session_id) for generate_http_session_id
    sim7600.o(i.device_get_token_event) refers to os_q.o(i.OSQPost) for OSQPost
    sim7600.o(i.device_get_token_event) refers to cjson.o(i.cJSON_Parse) for cJSON_Parse
    sim7600.o(i.device_get_token_event) refers to cjson.o(i.cJSON_GetObjectItem) for cJSON_GetObjectItem
    sim7600.o(i.device_get_token_event) refers to strcpy.o(.text) for strcpy
    sim7600.o(i.device_get_token_event) refers to cjson.o(i.cJSON_Delete) for cJSON_Delete
    sim7600.o(i.device_get_token_event) refers to os_time.o(i.OSTimeDlyHMSM) for OSTimeDlyHMSM
    sim7600.o(i.device_get_token_event) refers to app.o(.data) for upload_data_mutex
    sim7600.o(i.device_get_token_event) refers to sim7600.o(.data) for is_https_action
    sim7600.o(i.device_get_token_event) refers to main.o(.data) for stdio_tx_mutex
    sim7600.o(i.device_get_token_event) refers to sim7600.o(.bss) for token_buff
    sim7600.o(i.device_ota_check_event) refers to os_mutex.o(i.OSMutexPend) for OSMutexPend
    sim7600.o(i.device_ota_check_event) refers to app.o(i.is_queue_full) for is_queue_full
    sim7600.o(i.device_ota_check_event) refers to printfa.o(i.__0printf) for __2printf
    sim7600.o(i.device_ota_check_event) refers to os_mutex.o(i.OSMutexPost) for OSMutexPost
    sim7600.o(i.device_ota_check_event) refers to os_q.o(i.OSQPend) for OSQPend
    sim7600.o(i.device_ota_check_event) refers to malloc.o(i.myfree) for myfree
    sim7600.o(i.device_ota_check_event) refers to sim7600.o(i.generate_http_session_id) for generate_http_session_id
    sim7600.o(i.device_ota_check_event) refers to os_q.o(i.OSQPost) for OSQPost
    sim7600.o(i.device_ota_check_event) refers to cjson.o(i.cJSON_Parse) for cJSON_Parse
    sim7600.o(i.device_ota_check_event) refers to cjson.o(i.cJSON_GetObjectItem) for cJSON_GetObjectItem
    sim7600.o(i.device_ota_check_event) refers to cjson.o(i.cJSON_Delete) for cJSON_Delete
    sim7600.o(i.device_ota_check_event) refers to app.o(.data) for upload_data_mutex
    sim7600.o(i.device_ota_check_event) refers to sim7600.o(.data) for is_https_action
    sim7600.o(i.device_ota_check_event) refers to main.o(.data) for stdio_tx_mutex
    sim7600.o(i.device_ota_check_event) refers to os_time.o(i.OSTimeDlyHMSM) for OSTimeDlyHMSM
    sim7600.o(i.empty_rx_buff) refers to memseta.o(.text) for __aeabi_memclr
    sim7600.o(i.generate_http_session_id) refers to sim7600.o(.data) for id
    sim7600.o(i.get_http_session_id) refers to sim7600.o(.data) for http_session_id
    sim7600.o(i.get_mqtt_connect_status_event) refers to os_mutex.o(i.OSMutexPend) for OSMutexPend
    sim7600.o(i.get_mqtt_connect_status_event) refers to printfa.o(i.__0printf) for __2printf
    sim7600.o(i.get_mqtt_connect_status_event) refers to os_mutex.o(i.OSMutexPost) for OSMutexPost
    sim7600.o(i.get_mqtt_connect_status_event) refers to app.o(i.is_queue_full) for is_queue_full
    sim7600.o(i.get_mqtt_connect_status_event) refers to os_q.o(i.OSQPend) for OSQPend
    sim7600.o(i.get_mqtt_connect_status_event) refers to os_q.o(i.OSQPost) for OSQPost
    sim7600.o(i.get_mqtt_connect_status_event) refers to os_time.o(i.OSTimeDlyHMSM) for OSTimeDlyHMSM
    sim7600.o(i.get_mqtt_connect_status_event) refers to sim7600.o(.data) for is_mqtt_inited
    sim7600.o(i.get_mqtt_connect_status_event) refers to main.o(.data) for stdio_tx_mutex
    sim7600.o(i.get_mqtt_connect_status_event) refers to app.o(.data) for upload_data_mutex
    sim7600.o(i.mqtt_init_event) refers to os_mutex.o(i.OSMutexPend) for OSMutexPend
    sim7600.o(i.mqtt_init_event) refers to app.o(i.is_queue_full) for is_queue_full
    sim7600.o(i.mqtt_init_event) refers to printfa.o(i.__0printf) for __2printf
    sim7600.o(i.mqtt_init_event) refers to os_mutex.o(i.OSMutexPost) for OSMutexPost
    sim7600.o(i.mqtt_init_event) refers to os_q.o(i.OSQPend) for OSQPend
    sim7600.o(i.mqtt_init_event) refers to os_q.o(i.OSQPost) for OSQPost
    sim7600.o(i.mqtt_init_event) refers to os_time.o(i.OSTimeDlyHMSM) for OSTimeDlyHMSM
    sim7600.o(i.mqtt_init_event) refers to app.o(.data) for upload_data_mutex
    sim7600.o(i.mqtt_init_event) refers to sim7600.o(.data) for mqtt_action
    sim7600.o(i.mqtt_init_event) refers to main.o(.data) for stdio_tx_mutex
    sim7600.o(i.parse_sim7600_cmd_result) refers to strcmp.o(.text) for strcmp
    sim7600.o(i.parse_sim7600_cmd_result) refers to sim7600.o(i.empty_rx_buff) for empty_rx_buff
    sim7600.o(i.parse_sim7600_cmd_result) refers to os_mutex.o(i.OSMutexPend) for OSMutexPend
    sim7600.o(i.parse_sim7600_cmd_result) refers to printfa.o(i.__0printf) for __2printf
    sim7600.o(i.parse_sim7600_cmd_result) refers to os_mutex.o(i.OSMutexPost) for OSMutexPost
    sim7600.o(i.parse_sim7600_cmd_result) refers to strstr.o(.text) for strstr
    sim7600.o(i.parse_sim7600_cmd_result) refers to strlen.o(.text) for strlen
    sim7600.o(i.parse_sim7600_cmd_result) refers to memseta.o(.text) for __aeabi_memclr4
    sim7600.o(i.parse_sim7600_cmd_result) refers to strncpy.o(.text) for strncpy
    sim7600.o(i.parse_sim7600_cmd_result) refers to atoi.o(.text) for atoi
    sim7600.o(i.parse_sim7600_cmd_result) refers to app.o(i.is_queue_full) for is_queue_full
    sim7600.o(i.parse_sim7600_cmd_result) refers to os_q.o(i.OSQPend) for OSQPend
    sim7600.o(i.parse_sim7600_cmd_result) refers to malloc.o(i.myfree) for myfree
    sim7600.o(i.parse_sim7600_cmd_result) refers to sim7600.o(i.string_get_int) for string_get_int
    sim7600.o(i.parse_sim7600_cmd_result) refers to sim7600.o(.bss) for sim7600_cmd_info
    sim7600.o(i.parse_sim7600_cmd_result) refers to sim7600.o(.data) for https_step
    sim7600.o(i.parse_sim7600_cmd_result) refers to main.o(.data) for stdio_tx_mutex
    sim7600.o(i.parse_sim7600_cmd_result) refers to app.o(.data) for upload_res_queue
    sim7600.o(i.parse_sim7600_cmd_result) refers to malloc.o(i.mymalloc) for mymalloc
    sim7600.o(i.parse_sim7600_cmd_result) refers to sim7600.o(i.get_http_session_id) for get_http_session_id
    sim7600.o(i.parse_sim7600_cmd_result) refers to os_q.o(i.OSQPost) for OSQPost
    sim7600.o(i.parse_sim7600_cmd_result) refers to sim7600.o(i.sim7600_http_close) for sim7600_http_close
    sim7600.o(i.parse_sim7600_cmd_result) refers to sim7600.o(i.sim7600_mqtt_close) for sim7600_mqtt_close
    sim7600.o(i.save_http_session_id) refers to sim7600.o(.data) for http_session_id
    sim7600.o(i.sim76000_reset) refers to os_mutex.o(i.OSMutexPend) for OSMutexPend
    sim7600.o(i.sim76000_reset) refers to printfa.o(i.__0printf) for __2printf
    sim7600.o(i.sim76000_reset) refers to os_mutex.o(i.OSMutexPost) for OSMutexPost
    sim7600.o(i.sim76000_reset) refers to memseta.o(.text) for __aeabi_memclr
    sim7600.o(i.sim76000_reset) refers to malloc.o(i.myfree) for myfree
    sim7600.o(i.sim76000_reset) refers to sim7600.o(i.sim7600_reset_pin_low) for sim7600_reset_pin_low
    sim7600.o(i.sim76000_reset) refers to os_time.o(i.OSTimeDlyHMSM) for OSTimeDlyHMSM
    sim7600.o(i.sim76000_reset) refers to sim7600.o(i.sim76000_reset_pin_high) for sim76000_reset_pin_high
    sim7600.o(i.sim76000_reset) refers to main.o(.data) for stdio_tx_mutex
    sim7600.o(i.sim76000_reset) refers to sim7600.o(.data) for is_disabled_cmd_echo
    sim7600.o(i.sim76000_reset) refers to sim7600.o(.bss) for sim7600_cmd_info
    sim7600.o(i.sim76000_reset_pin_high) refers to stm32f10x_gpio.o(i.GPIO_SetBits) for GPIO_SetBits
    sim7600.o(i.sim7600_disnable_command_echo) refers to memseta.o(.text) for __aeabi_memclr
    sim7600.o(i.sim7600_disnable_command_echo) refers to strcpy.o(.text) for strcpy
    sim7600.o(i.sim7600_disnable_command_echo) refers to sim7600.o(i.sim7600_send_data) for sim7600_send_data
    sim7600.o(i.sim7600_disnable_command_echo) refers to sim7600.o(.bss) for sim7600_cmd_info
    sim7600.o(i.sim7600_disnable_command_echo) refers to sim7600.o(.data) for Is_http
    sim7600.o(i.sim7600_event_scan) refers to app.o(i.is_queue_empty) for is_queue_empty
    sim7600.o(i.sim7600_event_scan) refers to os_q.o(i.OSQPend) for OSQPend
    sim7600.o(i.sim7600_event_scan) refers to os_mutex.o(i.OSMutexPend) for OSMutexPend
    sim7600.o(i.sim7600_event_scan) refers to printfa.o(i.__0printf) for __2printf
    sim7600.o(i.sim7600_event_scan) refers to os_mutex.o(i.OSMutexPost) for OSMutexPost
    sim7600.o(i.sim7600_event_scan) refers to sim7600.o(.bss) for sim7600_cmd_info
    sim7600.o(i.sim7600_event_scan) refers to sim7600.o(.data) for is_https_action
    sim7600.o(i.sim7600_event_scan) refers to app.o(.data) for mqtt_action_cmd_queue
    sim7600.o(i.sim7600_event_scan) refers to main.o(.data) for stdio_tx_mutex
    sim7600.o(i.sim7600_fogcloud_init_and_monitor_task) refers to os_time.o(i.OSTimeDlyHMSM) for OSTimeDlyHMSM
    sim7600.o(i.sim7600_fogcloud_init_and_monitor_task) refers to sim7600.o(i.sim7600_power_restart) for sim7600_power_restart
    sim7600.o(i.sim7600_fogcloud_init_and_monitor_task) refers to sim7600.o(i.sim7600_disnable_command_echo) for sim7600_disnable_command_echo
    sim7600.o(i.sim7600_fogcloud_init_and_monitor_task) refers to os_mutex.o(i.OSMutexPend) for OSMutexPend
    sim7600.o(i.sim7600_fogcloud_init_and_monitor_task) refers to printfa.o(i.__0printf) for __2printf
    sim7600.o(i.sim7600_fogcloud_init_and_monitor_task) refers to os_mutex.o(i.OSMutexPost) for OSMutexPost
    sim7600.o(i.sim7600_fogcloud_init_and_monitor_task) refers to sim7600.o(i.sim7600_get_ccid) for sim7600_get_ccid
    sim7600.o(i.sim7600_fogcloud_init_and_monitor_task) refers to sim7600.o(i.device_activate_event) for device_activate_event
    sim7600.o(i.sim7600_fogcloud_init_and_monitor_task) refers to sim7600.o(i.device_get_token_event) for device_get_token_event
    sim7600.o(i.sim7600_fogcloud_init_and_monitor_task) refers to sim7600.o(i.device_ota_check_event) for device_ota_check_event
    sim7600.o(i.sim7600_fogcloud_init_and_monitor_task) refers to sim7600.o(i.mqtt_init_event) for mqtt_init_event
    sim7600.o(i.sim7600_fogcloud_init_and_monitor_task) refers to sim7600.o(i.wifi_led_off) for wifi_led_off
    sim7600.o(i.sim7600_fogcloud_init_and_monitor_task) refers to sim7600.o(i.wifi_led_on) for wifi_led_on
    sim7600.o(i.sim7600_fogcloud_init_and_monitor_task) refers to sim7600.o(.data) for sim7600_register_net
    sim7600.o(i.sim7600_fogcloud_init_and_monitor_task) refers to main.o(.data) for stdio_tx_mutex
    sim7600.o(i.sim7600_fogcloud_init_and_monitor_task) refers to sim7600.o(.bss) for sim7600_cmd_info
    sim7600.o(i.sim7600_get_ccid) refers to memseta.o(.text) for __aeabi_memclr
    sim7600.o(i.sim7600_get_ccid) refers to strcpy.o(.text) for strcpy
    sim7600.o(i.sim7600_get_ccid) refers to sim7600.o(i.sim7600_send_data) for sim7600_send_data
    sim7600.o(i.sim7600_get_ccid) refers to sim7600.o(.bss) for sim7600_cmd_info
    sim7600.o(i.sim7600_get_ccid) refers to sim7600.o(.data) for Is_http
    sim7600.o(i.sim7600_get_mqtt_message) refers to strstr.o(.text) for strstr
    sim7600.o(i.sim7600_get_mqtt_message) refers to os_mutex.o(i.OSMutexPend) for OSMutexPend
    sim7600.o(i.sim7600_get_mqtt_message) refers to printfa.o(i.__0printf) for __2printf
    sim7600.o(i.sim7600_get_mqtt_message) refers to os_mutex.o(i.OSMutexPost) for OSMutexPost
    sim7600.o(i.sim7600_get_mqtt_message) refers to sim7600.o(i.empty_rx_buff) for empty_rx_buff
    sim7600.o(i.sim7600_get_mqtt_message) refers to app.o(i.is_queue_full) for is_queue_full
    sim7600.o(i.sim7600_get_mqtt_message) refers to os_q.o(i.OSQPend) for OSQPend
    sim7600.o(i.sim7600_get_mqtt_message) refers to malloc.o(i.myfree) for myfree
    sim7600.o(i.sim7600_get_mqtt_message) refers to malloc.o(i.mymalloc) for mymalloc
    sim7600.o(i.sim7600_get_mqtt_message) refers to memseta.o(.text) for __aeabi_memclr
    sim7600.o(i.sim7600_get_mqtt_message) refers to strncpy.o(.text) for strncpy
    sim7600.o(i.sim7600_get_mqtt_message) refers to os_q.o(i.OSQPost) for OSQPost
    sim7600.o(i.sim7600_get_mqtt_message) refers to sim7600.o(.data) for is_mqtt_inited
    sim7600.o(i.sim7600_get_mqtt_message) refers to main.o(.data) for stdio_tx_mutex
    sim7600.o(i.sim7600_get_mqtt_message) refers to app.o(.data) for mqtt_message_queue
    sim7600.o(i.sim7600_get_mqtt_message) refers to sim7600.o(.bss) for sim7600_cmd_info
    sim7600.o(i.sim7600_http_close) refers to memseta.o(.text) for __aeabi_memclr
    sim7600.o(i.sim7600_http_close) refers to strcpy.o(.text) for strcpy
    sim7600.o(i.sim7600_http_close) refers to sim7600.o(i.sim7600_send_data) for sim7600_send_data
    sim7600.o(i.sim7600_http_close) refers to os_time.o(i.OSTimeDlyHMSM) for OSTimeDlyHMSM
    sim7600.o(i.sim7600_http_close) refers to sim7600.o(.bss) for sim7600_cmd_info
    sim7600.o(i.sim7600_http_close) refers to sim7600.o(.data) for Is_http
    sim7600.o(i.sim7600_http_loop) refers to memseta.o(.text) for __aeabi_memclr
    sim7600.o(i.sim7600_http_loop) refers to strcpy.o(.text) for strcpy
    sim7600.o(i.sim7600_http_loop) refers to os_q.o(i.OSQPend) for OSQPend
    sim7600.o(i.sim7600_http_loop) refers to os_mutex.o(i.OSMutexPend) for OSMutexPend
    sim7600.o(i.sim7600_http_loop) refers to printfa.o(i.__0printf) for __2printf
    sim7600.o(i.sim7600_http_loop) refers to os_mutex.o(i.OSMutexPost) for OSMutexPost
    sim7600.o(i.sim7600_http_loop) refers to sim7600.o(i.save_http_session_id) for save_http_session_id
    sim7600.o(i.sim7600_http_loop) refers to malloc.o(i.mymalloc) for mymalloc
    sim7600.o(i.sim7600_http_loop) refers to os_time.o(i.OSTimeGet) for OSTimeGet
    sim7600.o(i.sim7600_http_loop) refers to printfa.o(i.__0sprintf) for __2sprintf
    sim7600.o(i.sim7600_http_loop) refers to strlen.o(.text) for strlen
    sim7600.o(i.sim7600_http_loop) refers to strcat.o(.text) for strcat
    sim7600.o(i.sim7600_http_loop) refers to user_sim7600_task.o(i.uart_sim7600_sendbytes) for uart_sim7600_sendbytes
    sim7600.o(i.sim7600_http_loop) refers to os_time.o(i.OSTimeDlyHMSM) for OSTimeDlyHMSM
    sim7600.o(i.sim7600_http_loop) refers to sim7600.o(.bss) for sim7600_cmd_info
    sim7600.o(i.sim7600_http_loop) refers to sim7600.o(.data) for mqtt_action
    sim7600.o(i.sim7600_http_loop) refers to app.o(.data) for upload_data_queue
    sim7600.o(i.sim7600_http_loop) refers to main.o(.data) for stdio_tx_mutex
    sim7600.o(i.sim7600_http_loop) refers to sim7600.o(.conststring) for .conststring
    sim7600.o(i.sim7600_http_loop) refers to sim7600.o(i.sim7600_send_data) for sim7600_send_data
    sim7600.o(i.sim7600_http_loop) refers to sim7600.o(i.sim7600_http_close) for sim7600_http_close
    sim7600.o(i.sim7600_mqtt_close) refers to memseta.o(.text) for __aeabi_memclr
    sim7600.o(i.sim7600_mqtt_close) refers to strcpy.o(.text) for strcpy
    sim7600.o(i.sim7600_mqtt_close) refers to sim7600.o(i.sim7600_send_data) for sim7600_send_data
    sim7600.o(i.sim7600_mqtt_close) refers to os_time.o(i.OSTimeDlyHMSM) for OSTimeDlyHMSM
    sim7600.o(i.sim7600_mqtt_close) refers to sim7600.o(.data) for Is_http
    sim7600.o(i.sim7600_mqtt_close) refers to sim7600.o(.bss) for sim7600_cmd_info
    sim7600.o(i.sim7600_mqtt_loop) refers to strcpy.o(.text) for strcpy
    sim7600.o(i.sim7600_mqtt_loop) refers to os_time.o(i.OSTimeDlyHMSM) for OSTimeDlyHMSM
    sim7600.o(i.sim7600_mqtt_loop) refers to sim7600.o(i.sim7600_send_data) for sim7600_send_data
    sim7600.o(i.sim7600_mqtt_loop) refers to sim7600.o(.bss) for sim7600_cmd_info
    sim7600.o(i.sim7600_mqtt_loop) refers to sim7600.o(.data) for is_https_action
    sim7600.o(i.sim7600_power_restart) refers to os_mutex.o(i.OSMutexPend) for OSMutexPend
    sim7600.o(i.sim7600_power_restart) refers to printfa.o(i.__0printf) for __2printf
    sim7600.o(i.sim7600_power_restart) refers to os_mutex.o(i.OSMutexPost) for OSMutexPost
    sim7600.o(i.sim7600_power_restart) refers to memseta.o(.text) for __aeabi_memclr
    sim7600.o(i.sim7600_power_restart) refers to malloc.o(i.myfree) for myfree
    sim7600.o(i.sim7600_power_restart) refers to sim7600.o(i.sim7600_powerkey_off) for sim7600_powerkey_off
    sim7600.o(i.sim7600_power_restart) refers to sim7600.o(i.sim7600_powerkey_on) for sim7600_powerkey_on
    sim7600.o(i.sim7600_power_restart) refers to main.o(.data) for stdio_tx_mutex
    sim7600.o(i.sim7600_power_restart) refers to sim7600.o(.data) for is_disabled_cmd_echo
    sim7600.o(i.sim7600_power_restart) refers to sim7600.o(.bss) for sim7600_cmd_info
    sim7600.o(i.sim7600_powerkey_off) refers to stm32f10x_gpio.o(i.GPIO_SetBits) for GPIO_SetBits
    sim7600.o(i.sim7600_powerkey_off) refers to os_time.o(i.OSTimeDlyHMSM) for OSTimeDlyHMSM
    sim7600.o(i.sim7600_powerkey_off) refers to stm32f10x_gpio.o(i.GPIO_ResetBits) for GPIO_ResetBits
    sim7600.o(i.sim7600_powerkey_off) refers to os_mutex.o(i.OSMutexPend) for OSMutexPend
    sim7600.o(i.sim7600_powerkey_off) refers to printfa.o(i.__0printf) for __2printf
    sim7600.o(i.sim7600_powerkey_off) refers to os_mutex.o(i.OSMutexPost) for OSMutexPost
    sim7600.o(i.sim7600_powerkey_off) refers to sim7600.o(.data) for is_module_powered
    sim7600.o(i.sim7600_powerkey_off) refers to main.o(.data) for stdio_tx_mutex
    sim7600.o(i.sim7600_powerkey_on) refers to stm32f10x_gpio.o(i.GPIO_SetBits) for GPIO_SetBits
    sim7600.o(i.sim7600_powerkey_on) refers to os_time.o(i.OSTimeDlyHMSM) for OSTimeDlyHMSM
    sim7600.o(i.sim7600_powerkey_on) refers to stm32f10x_gpio.o(i.GPIO_ResetBits) for GPIO_ResetBits
    sim7600.o(i.sim7600_powerkey_on) refers to os_mutex.o(i.OSMutexPend) for OSMutexPend
    sim7600.o(i.sim7600_powerkey_on) refers to printfa.o(i.__0printf) for __2printf
    sim7600.o(i.sim7600_powerkey_on) refers to os_mutex.o(i.OSMutexPost) for OSMutexPost
    sim7600.o(i.sim7600_powerkey_on) refers to sim7600.o(.data) for is_module_powered
    sim7600.o(i.sim7600_powerkey_on) refers to main.o(.data) for stdio_tx_mutex
    sim7600.o(i.sim7600_powerkey_pin_init) refers to stm32f10x_rcc.o(i.RCC_APB2PeriphClockCmd) for RCC_APB2PeriphClockCmd
    sim7600.o(i.sim7600_powerkey_pin_init) refers to stm32f10x_gpio.o(i.GPIO_Init) for GPIO_Init
    sim7600.o(i.sim7600_powerkey_pin_init) refers to stm32f10x_gpio.o(i.GPIO_SetBits) for GPIO_SetBits
    sim7600.o(i.sim7600_reset_pin_init) refers to stm32f10x_rcc.o(i.RCC_APB2PeriphClockCmd) for RCC_APB2PeriphClockCmd
    sim7600.o(i.sim7600_reset_pin_init) refers to stm32f10x_gpio.o(i.GPIO_Init) for GPIO_Init
    sim7600.o(i.sim7600_reset_pin_init) refers to stm32f10x_gpio.o(i.GPIO_SetBits) for GPIO_SetBits
    sim7600.o(i.sim7600_reset_pin_low) refers to stm32f10x_gpio.o(i.GPIO_ResetBits) for GPIO_ResetBits
    sim7600.o(i.sim7600_send_data) refers to memseta.o(.text) for __aeabi_memclr4
    sim7600.o(i.sim7600_send_data) refers to malloc.o(i.mymalloc) for mymalloc
    sim7600.o(i.sim7600_send_data) refers to strcmp.o(.text) for strcmp
    sim7600.o(i.sim7600_send_data) refers to strcpy.o(.text) for strcpy
    sim7600.o(i.sim7600_send_data) refers to printfa.o(i.__0sprintf) for __2sprintf
    sim7600.o(i.sim7600_send_data) refers to malloc.o(i.myfree) for myfree
    sim7600.o(i.sim7600_send_data) refers to strlen.o(.text) for strlen
    sim7600.o(i.sim7600_send_data) refers to user_sim7600_task.o(i.uart_sim7600_sendbytes) for uart_sim7600_sendbytes
    sim7600.o(i.sim7600_send_data) refers to os_time.o(i.OSTimeGet) for OSTimeGet
    sim7600.o(i.sim7600_send_data) refers to os_mutex.o(i.OSMutexPend) for OSMutexPend
    sim7600.o(i.sim7600_send_data) refers to printfa.o(i.__0printf) for __2printf
    sim7600.o(i.sim7600_send_data) refers to os_mutex.o(i.OSMutexPost) for OSMutexPost
    sim7600.o(i.sim7600_send_data) refers to sim7600.o(.bss) for sim7600_cmd_info
    sim7600.o(i.sim7600_send_data) refers to sim7600.o(.data) for mqtt_passowrd
    sim7600.o(i.sim7600_send_data) refers to main.o(.data) for stdio_tx_mutex
    sim7600.o(i.sim7600_wait_response) refers to strstr.o(.text) for strstr
    sim7600.o(i.sim7600_wait_response) refers to sim7600.o(i.empty_rx_buff) for empty_rx_buff
    sim7600.o(i.sim7600_wait_response) refers to os_mutex.o(i.OSMutexPend) for OSMutexPend
    sim7600.o(i.sim7600_wait_response) refers to printfa.o(i.__0printf) for __2printf
    sim7600.o(i.sim7600_wait_response) refers to os_mutex.o(i.OSMutexPost) for OSMutexPost
    sim7600.o(i.sim7600_wait_response) refers to os_time.o(i.OSTimeDlyHMSM) for OSTimeDlyHMSM
    sim7600.o(i.sim7600_wait_response) refers to os_time.o(i.OSTimeGet) for OSTimeGet
    sim7600.o(i.sim7600_wait_response) refers to sim7600.o(.data) for sim7600_register_net
    sim7600.o(i.sim7600_wait_response) refers to main.o(.data) for stdio_tx_mutex
    sim7600.o(i.sim7600_wait_response) refers to sim7600.o(.bss) for sim7600_cmd_info
    sim7600.o(i.string_get_int) refers to strlen.o(.text) for strlen
    sim7600.o(i.string_get_int) refers to memseta.o(.text) for __aeabi_memclr4
    sim7600.o(i.string_get_int) refers to strncpy.o(.text) for strncpy
    sim7600.o(i.string_get_int) refers to atoi.o(.text) for atoi
    sim7600.o(i.string_get_int) refers to sim7600.o(.bss) for sim7600_cmd_info
    sim7600.o(i.string_get_long) refers to strlen.o(.text) for strlen
    sim7600.o(i.string_get_long) refers to memseta.o(.text) for __aeabi_memclr4
    sim7600.o(i.string_get_long) refers to strncpy.o(.text) for strncpy
    sim7600.o(i.string_get_long) refers to atol.o(.text) for atol
    sim7600.o(i.string_get_long) refers to sim7600.o(.bss) for sim7600_cmd_info
    sim7600.o(i.string_get_string) refers to strlen.o(.text) for strlen
    sim7600.o(i.string_get_string) refers to memseta.o(.text) for __aeabi_memclr
    sim7600.o(i.string_get_string) refers to strncpy.o(.text) for strncpy
    sim7600.o(i.upload_data_event) refers to os_mutex.o(i.OSMutexPend) for OSMutexPend
    sim7600.o(i.upload_data_event) refers to app.o(i.is_queue_full) for is_queue_full
    sim7600.o(i.upload_data_event) refers to printfa.o(i.__0printf) for __2printf
    sim7600.o(i.upload_data_event) refers to os_mutex.o(i.OSMutexPost) for OSMutexPost
    sim7600.o(i.upload_data_event) refers to os_q.o(i.OSQPend) for OSQPend
    sim7600.o(i.upload_data_event) refers to malloc.o(i.myfree) for myfree
    sim7600.o(i.upload_data_event) refers to sim7600.o(i.generate_http_session_id) for generate_http_session_id
    sim7600.o(i.upload_data_event) refers to os_q.o(i.OSQPost) for OSQPost
    sim7600.o(i.upload_data_event) refers to strcpy.o(.text) for strcpy
    sim7600.o(i.upload_data_event) refers to os_time.o(i.OSTimeDlyHMSM) for OSTimeDlyHMSM
    sim7600.o(i.upload_data_event) refers to sim7600.o(.data) for is_sim7600_fogcloud_init
    sim7600.o(i.upload_data_event) refers to app.o(.data) for upload_data_mutex
    sim7600.o(i.upload_data_event) refers to main.o(.data) for stdio_tx_mutex
    sim7600.o(i.user_set_module_restart) refers to sim7600.o(.data) for is_module_restart
    sim7600.o(i.wifi_led_off) refers to sim7600.o(.data) for wifi_led_state
    sim7600.o(i.wifi_led_on) refers to sim7600.o(.data) for wifi_led_state
    user_mqtt_task.o(i.user_mqtt_task) refers to os_time.o(i.OSTimeDlyHMSM) for OSTimeDlyHMSM
    user_mqtt_task.o(i.user_mqtt_task) refers to app.o(i.is_queue_empty) for is_queue_empty
    user_mqtt_task.o(i.user_mqtt_task) refers to os_q.o(i.OSQPend) for OSQPend
    user_mqtt_task.o(i.user_mqtt_task) refers to os_mutex.o(i.OSMutexPend) for OSMutexPend
    user_mqtt_task.o(i.user_mqtt_task) refers to printfa.o(i.__0printf) for __2printf
    user_mqtt_task.o(i.user_mqtt_task) refers to os_mutex.o(i.OSMutexPost) for OSMutexPost
    user_mqtt_task.o(i.user_mqtt_task) refers to malloc.o(i.myfree) for myfree
    user_mqtt_task.o(i.user_mqtt_task) refers to app.o(.data) for mqtt_message_queue
    user_mqtt_task.o(i.user_mqtt_task) refers to main.o(.data) for stdio_tx_mutex
    user_sim7600_task.o(i.sim7600_task) refers to user_usart2.o(i.usart2_config) for usart2_config
    user_sim7600_task.o(i.sim7600_task) refers to malloc.o(i.mymalloc) for mymalloc
    user_sim7600_task.o(i.sim7600_task) refers to printfa.o(i.__0printf) for __2printf
    user_sim7600_task.o(i.sim7600_task) refers to memseta.o(.text) for __aeabi_memclr
    user_sim7600_task.o(i.sim7600_task) refers to user_sim7600_task.o(i.sim7600_usart_begin) for sim7600_usart_begin
    user_sim7600_task.o(i.sim7600_task) refers to sim7600.o(i.sim7600_powerkey_pin_init) for sim7600_powerkey_pin_init
    user_sim7600_task.o(i.sim7600_task) refers to sim7600.o(i.sim7600_powerkey_on) for sim7600_powerkey_on
    user_sim7600_task.o(i.sim7600_task) refers to user_sim7600_task.o(i.sim7600_usart_read) for sim7600_usart_read
    user_sim7600_task.o(i.sim7600_task) refers to sim7600.o(i.empty_rx_buff) for empty_rx_buff
    user_sim7600_task.o(i.sim7600_task) refers to user_sim7600_task.o(i.sim7600_usart_recv_available) for sim7600_usart_recv_available
    user_sim7600_task.o(i.sim7600_task) refers to sim7600.o(i.sim7600_get_mqtt_message) for sim7600_get_mqtt_message
    user_sim7600_task.o(i.sim7600_task) refers to sim7600.o(i.sim7600_event_scan) for sim7600_event_scan
    user_sim7600_task.o(i.sim7600_task) refers to sim7600.o(i.sim7600_wait_response) for sim7600_wait_response
    user_sim7600_task.o(i.sim7600_task) refers to sim7600.o(i.parse_sim7600_cmd_result) for parse_sim7600_cmd_result
    user_sim7600_task.o(i.sim7600_task) refers to sim7600.o(i.sim7600_mqtt_loop) for sim7600_mqtt_loop
    user_sim7600_task.o(i.sim7600_task) refers to sim7600.o(i.sim7600_http_loop) for sim7600_http_loop
    user_sim7600_task.o(i.sim7600_task) refers to os_time.o(i.OSTimeDlyHMSM) for OSTimeDlyHMSM
    user_sim7600_task.o(i.sim7600_task) refers to sim7600.o(.data) for is_module_powered
    user_sim7600_task.o(i.sim7600_usart_begin) refers to user_sim7600_task.o(i.sim7600_usart_rb_initialize) for sim7600_usart_rb_initialize
    user_sim7600_task.o(i.sim7600_usart_rb_initialize) refers to ringbuffer.o(i.rbInitialize) for rbInitialize
    user_sim7600_task.o(i.sim7600_usart_rb_initialize) refers to user_sim7600_task.o(.bss) for uart_sim7600_rx_buff
    user_sim7600_task.o(i.sim7600_usart_read) refers to ringbuffer.o(i.rbIsEmpty) for rbIsEmpty
    user_sim7600_task.o(i.sim7600_usart_read) refers to ringbuffer.o(i.rbPop) for rbPop
    user_sim7600_task.o(i.sim7600_usart_read) refers to user_sim7600_task.o(.bss) for m_SIM7600_Uasrt_RingBuff
    user_sim7600_task.o(i.sim7600_usart_recv_available) refers to ringbuffer.o(i.rbClear) for rbClear
    user_sim7600_task.o(i.sim7600_usart_recv_available) refers to ringbuffer.o(i.rbIsEmpty) for rbIsEmpty
    user_sim7600_task.o(i.sim7600_usart_recv_available) refers to user_sim7600_task.o(.bss) for m_SIM7600_Uasrt_RingBuff
    user_sim7600_task.o(i.sim7600_usart_recv_handler) refers to stm32f10x_usart.o(i.USART_ReceiveData) for USART_ReceiveData
    user_sim7600_task.o(i.sim7600_usart_recv_handler) refers to ringbuffer.o(i.rbPush) for rbPush
    user_sim7600_task.o(i.sim7600_usart_recv_handler) refers to user_sim7600_task.o(.bss) for m_SIM7600_Uasrt_RingBuff
    user_sim7600_task.o(i.sim7600_usart_sendbytes) refers to user_usart.o(i.Usart_SendBytes) for Usart_SendBytes
    user_sim7600_task.o(i.uart_sim7600_sendbytes) refers to user_usart.o(i.Usart_SendBytes) for Usart_SendBytes
    user_upload_data.o(i.user_upload_data_task) refers to os_time.o(i.OSTimeDlyHMSM) for OSTimeDlyHMSM
    user_upload_data.o(i.user_upload_data_task) refers to malloc.o(i.mymalloc) for mymalloc
    user_upload_data.o(i.user_upload_data_task) refers to memseta.o(.text) for __aeabi_memclr
    user_upload_data.o(i.user_upload_data_task) refers to printfa.o(i.__0sprintf) for __2sprintf
    user_upload_data.o(i.user_upload_data_task) refers to sim7600.o(i.upload_data_event) for upload_data_event
    user_upload_data.o(i.user_upload_data_task) refers to os_mutex.o(i.OSMutexPend) for OSMutexPend
    user_upload_data.o(i.user_upload_data_task) refers to printfa.o(i.__0printf) for __2printf
    user_upload_data.o(i.user_upload_data_task) refers to os_mutex.o(i.OSMutexPost) for OSMutexPost
    user_upload_data.o(i.user_upload_data_task) refers to malloc.o(i.myfree) for myfree
    user_upload_data.o(i.user_upload_data_task) refers to sim7600.o(.data) for is_sim7600_fogcloud_init
    user_upload_data.o(i.user_upload_data_task) refers to main.o(.data) for stdio_tx_mutex
    stm32f10x_flash.o(i.FLASH_EnableWriteProtection) refers to stm32f10x_flash.o(i.FLASH_WaitForLastOperation) for FLASH_WaitForLastOperation
    stm32f10x_flash.o(i.FLASH_EraseAllPages) refers to stm32f10x_flash.o(i.FLASH_WaitForLastOperation) for FLASH_WaitForLastOperation
    stm32f10x_flash.o(i.FLASH_EraseOptionBytes) refers to stm32f10x_flash.o(i.FLASH_WaitForLastOperation) for FLASH_WaitForLastOperation
    stm32f10x_flash.o(i.FLASH_ErasePage) refers to stm32f10x_flash.o(i.FLASH_WaitForLastOperation) for FLASH_WaitForLastOperation
    stm32f10x_flash.o(i.FLASH_ProgramHalfWord) refers to stm32f10x_flash.o(i.FLASH_WaitForLastOperation) for FLASH_WaitForLastOperation
    stm32f10x_flash.o(i.FLASH_ProgramOptionByteData) refers to stm32f10x_flash.o(i.FLASH_WaitForLastOperation) for FLASH_WaitForLastOperation
    stm32f10x_flash.o(i.FLASH_ProgramWord) refers to stm32f10x_flash.o(i.FLASH_WaitForLastOperation) for FLASH_WaitForLastOperation
    stm32f10x_flash.o(i.FLASH_ReadOutProtection) refers to stm32f10x_flash.o(i.FLASH_WaitForLastOperation) for FLASH_WaitForLastOperation
    stm32f10x_flash.o(i.FLASH_UserOptionByteConfig) refers to stm32f10x_flash.o(i.FLASH_WaitForLastOperation) for FLASH_WaitForLastOperation
    stm32f10x_flash.o(i.FLASH_WaitForLastOperation) refers to stm32f10x_flash.o(i.FLASH_GetStatus) for FLASH_GetStatus
    stm32f10x_flash.o(i.FLASH_WaitForLastOperation) refers to stm32f10x_flash.o(i.delay) for delay
    stm32f10x_gpio.o(i.GPIO_AFIODeInit) refers to stm32f10x_rcc.o(i.RCC_APB2PeriphResetCmd) for RCC_APB2PeriphResetCmd
    stm32f10x_gpio.o(i.GPIO_DeInit) refers to stm32f10x_rcc.o(i.RCC_APB2PeriphResetCmd) for RCC_APB2PeriphResetCmd
    stm32f10x_usart.o(i.USART_DeInit) refers to stm32f10x_rcc.o(i.RCC_APB2PeriphResetCmd) for RCC_APB2PeriphResetCmd
    stm32f10x_usart.o(i.USART_DeInit) refers to stm32f10x_rcc.o(i.RCC_APB1PeriphResetCmd) for RCC_APB1PeriphResetCmd
    stm32f10x_usart.o(i.USART_Init) refers to stm32f10x_rcc.o(i.RCC_GetClocksFreq) for RCC_GetClocksFreq
    stm32f10x_rcc.o(i.RCC_GetClocksFreq) refers to stm32f10x_rcc.o(.data) for APBAHBPrescTable
    stm32f10x_rcc.o(i.RCC_WaitForHSEStartUp) refers to stm32f10x_rcc.o(i.RCC_GetFlagStatus) for RCC_GetFlagStatus
    system_stm32f10x.o(i.SetSysClock) refers to system_stm32f10x.o(i.SetSysClockTo72) for SetSysClockTo72
    system_stm32f10x.o(i.SystemInit) refers to system_stm32f10x.o(i.SetSysClock) for SetSysClock
    bsp.o(i.BSP_Init) refers to system_stm32f10x.o(i.SystemInit) for SystemInit
    bsp.o(i.BSP_Init) refers to led.o(i.LED_GPIO_Config) for LED_GPIO_Config
    bsp.o(i.BSP_Init) refers to user_usart3.o(i.usart3_config) for usart3_config
    bsp.o(i.SysTick_init) refers to system_stm32f10x.o(.constdata) for SystemFrequency
    led.o(i.LED_GPIO_Config) refers to stm32f10x_rcc.o(i.RCC_APB2PeriphClockCmd) for RCC_APB2PeriphClockCmd
    led.o(i.LED_GPIO_Config) refers to stm32f10x_gpio.o(i.GPIO_Init) for GPIO_Init
    led.o(i.LED_GPIO_Config) refers to stm32f10x_gpio.o(i.GPIO_SetBits) for GPIO_SetBits
    app.o(i.Task_Start) refers to bsp.o(i.SysTick_init) for SysTick_init
    app.o(i.Task_Start) refers to cjson.o(i.cJSON_InitHooks) for cJSON_InitHooks
    app.o(i.Task_Start) refers to os_q.o(i.OSQCreate) for OSQCreate
    app.o(i.Task_Start) refers to os_mutex.o(i.OSMutexPend) for OSMutexPend
    app.o(i.Task_Start) refers to printfa.o(i.__0printf) for __2printf
    app.o(i.Task_Start) refers to os_mutex.o(i.OSMutexPost) for OSMutexPost
    app.o(i.Task_Start) refers to os_mutex.o(i.OSMutexCreate) for OSMutexCreate
    app.o(i.Task_Start) refers to os_task.o(i.OSTaskCreate) for OSTaskCreate
    app.o(i.Task_Start) refers to os_time.o(i.OSTimeDlyHMSM) for OSTimeDlyHMSM
    app.o(i.Task_Start) refers to stm32f10x_gpio.o(i.GPIO_ResetBits) for GPIO_ResetBits
    app.o(i.Task_Start) refers to stm32f10x_gpio.o(i.GPIO_SetBits) for GPIO_SetBits
    app.o(i.Task_Start) refers to malloc.o(i.mem_free_size) for mem_free_size
    app.o(i.Task_Start) refers to app.o(.data) for upload_res_msg
    app.o(i.Task_Start) refers to main.o(.data) for stdio_tx_mutex
    app.o(i.Task_Start) refers to app.o(.bss) for mqtt_data_msg
    app.o(i.Task_Start) refers to user_sim7600_task.o(i.sim7600_task) for sim7600_task
    app.o(i.Task_Start) refers to user_mqtt_task.o(i.user_mqtt_task) for user_mqtt_task
    app.o(i.Task_Start) refers to user_upload_data.o(i.user_upload_data_task) for user_upload_data_task
    app.o(i.Task_Start) refers to sim7600.o(i.sim7600_fogcloud_init_and_monitor_task) for sim7600_fogcloud_init_and_monitor_task
    app.o(i.is_queue_empty) refers to os_q.o(i.OSQQuery) for OSQQuery
    app.o(i.is_queue_full) refers to os_q.o(i.OSQQuery) for OSQQuery
    os_core.o(i.OSEventNameGet) refers to os_cpu_a.o(.text) for OS_CPU_SR_Save
    os_core.o(i.OSEventNameGet) refers to os_core.o(i.OS_StrCopy) for OS_StrCopy
    os_core.o(i.OSEventNameGet) refers to os_core.o(.data) for OSIntNesting
    os_core.o(i.OSEventNameSet) refers to os_cpu_a.o(.text) for OS_CPU_SR_Save
    os_core.o(i.OSEventNameSet) refers to os_core.o(i.OS_StrLen) for OS_StrLen
    os_core.o(i.OSEventNameSet) refers to os_core.o(i.OS_StrCopy) for OS_StrCopy
    os_core.o(i.OSEventNameSet) refers to os_core.o(.data) for OSIntNesting
    os_core.o(i.OSInit) refers to os_cpu_c.o(i.OSInitHookBegin) for OSInitHookBegin
    os_core.o(i.OSInit) refers to os_core.o(i.OS_InitMisc) for OS_InitMisc
    os_core.o(i.OSInit) refers to os_core.o(i.OS_InitRdyList) for OS_InitRdyList
    os_core.o(i.OSInit) refers to os_core.o(i.OS_InitTCBList) for OS_InitTCBList
    os_core.o(i.OSInit) refers to os_core.o(i.OS_InitEventList) for OS_InitEventList
    os_core.o(i.OSInit) refers to os_q.o(i.OS_QInit) for OS_QInit
    os_core.o(i.OSInit) refers to os_core.o(i.OS_InitTaskIdle) for OS_InitTaskIdle
    os_core.o(i.OSInit) refers to os_core.o(i.OS_InitTaskStat) for OS_InitTaskStat
    os_core.o(i.OSInit) refers to os_cpu_c.o(i.OSInitHookEnd) for OSInitHookEnd
    os_core.o(i.OSIntEnter) refers to os_core.o(.data) for OSRunning
    os_core.o(i.OSIntExit) refers to os_cpu_a.o(.text) for OS_CPU_SR_Save
    os_core.o(i.OSIntExit) refers to os_core.o(i.OS_SchedNew) for OS_SchedNew
    os_core.o(i.OSIntExit) refers to os_core.o(.data) for OSRunning
    os_core.o(i.OSIntExit) refers to os_core.o(.bss) for OSTCBPrioTbl
    os_core.o(i.OSSchedLock) refers to os_cpu_a.o(.text) for OS_CPU_SR_Save
    os_core.o(i.OSSchedLock) refers to os_core.o(.data) for OSRunning
    os_core.o(i.OSSchedUnlock) refers to os_cpu_a.o(.text) for OS_CPU_SR_Save
    os_core.o(i.OSSchedUnlock) refers to os_core.o(i.OS_Sched) for OS_Sched
    os_core.o(i.OSSchedUnlock) refers to os_core.o(.data) for OSRunning
    os_core.o(i.OSStart) refers to os_core.o(i.OS_SchedNew) for OS_SchedNew
    os_core.o(i.OSStart) refers to os_cpu_a.o(.text) for OSStartHighRdy
    os_core.o(i.OSStart) refers to os_core.o(.data) for OSRunning
    os_core.o(i.OSStart) refers to os_core.o(.bss) for OSTCBPrioTbl
    os_core.o(i.OSStatInit) refers to os_time.o(i.OSTimeDly) for OSTimeDly
    os_core.o(i.OSStatInit) refers to os_cpu_a.o(.text) for OS_CPU_SR_Save
    os_core.o(i.OSStatInit) refers to os_core.o(.data) for OSIdleCtr
    os_core.o(i.OSTimeTick) refers to os_cpu_c.o(i.OSTimeTickHook) for OSTimeTickHook
    os_core.o(i.OSTimeTick) refers to os_cpu_a.o(.text) for OS_CPU_SR_Save
    os_core.o(i.OSTimeTick) refers to os_core.o(.data) for OSTime
    os_core.o(i.OS_EventTaskRdy) refers to os_core.o(i.OS_EventTaskRemove) for OS_EventTaskRemove
    os_core.o(i.OS_EventTaskRdy) refers to os_core.o(.constdata) for OSUnMapTbl
    os_core.o(i.OS_EventTaskRdy) refers to os_core.o(.bss) for OSTCBPrioTbl
    os_core.o(i.OS_EventTaskRdy) refers to os_core.o(.data) for OSRdyGrp
    os_core.o(i.OS_EventTaskWait) refers to os_core.o(.data) for OSTCBCur
    os_core.o(i.OS_InitEventList) refers to os_core.o(i.OS_MemClr) for OS_MemClr
    os_core.o(i.OS_InitEventList) refers to os_core.o(.bss) for OSEventTbl
    os_core.o(i.OS_InitEventList) refers to os_core.o(.data) for OSEventFreeList
    os_core.o(i.OS_InitMisc) refers to os_core.o(.data) for OSTime
    os_core.o(i.OS_InitRdyList) refers to os_core.o(.data) for OSRdyGrp
    os_core.o(i.OS_InitTCBList) refers to os_core.o(i.OS_MemClr) for OS_MemClr
    os_core.o(i.OS_InitTCBList) refers to os_core.o(.bss) for OSTCBTbl
    os_core.o(i.OS_InitTCBList) refers to os_core.o(.data) for OSTCBList
    os_core.o(i.OS_InitTaskIdle) refers to os_task.o(i.OSTaskCreateExt) for OSTaskCreateExt
    os_core.o(i.OS_InitTaskIdle) refers to os_task.o(i.OSTaskNameSet) for OSTaskNameSet
    os_core.o(i.OS_InitTaskIdle) refers to os_core.o(.bss) for OSTaskIdleStk
    os_core.o(i.OS_InitTaskIdle) refers to os_core.o(i.OS_TaskIdle) for OS_TaskIdle
    os_core.o(i.OS_InitTaskStat) refers to os_task.o(i.OSTaskCreateExt) for OSTaskCreateExt
    os_core.o(i.OS_InitTaskStat) refers to os_task.o(i.OSTaskNameSet) for OSTaskNameSet
    os_core.o(i.OS_InitTaskStat) refers to os_core.o(.bss) for OSTaskStatStk
    os_core.o(i.OS_InitTaskStat) refers to os_core.o(i.OS_TaskStat) for OS_TaskStat
    os_core.o(i.OS_Sched) refers to os_cpu_a.o(.text) for OS_CPU_SR_Save
    os_core.o(i.OS_Sched) refers to os_core.o(i.OS_SchedNew) for OS_SchedNew
    os_core.o(i.OS_Sched) refers to os_core.o(.data) for OSIntNesting
    os_core.o(i.OS_Sched) refers to os_core.o(.bss) for OSTCBPrioTbl
    os_core.o(i.OS_SchedNew) refers to os_core.o(.constdata) for OSUnMapTbl
    os_core.o(i.OS_SchedNew) refers to os_core.o(.data) for OSRdyGrp
    os_core.o(i.OS_TCBInit) refers to os_cpu_a.o(.text) for OS_CPU_SR_Save
    os_core.o(i.OS_TCBInit) refers to os_cpu_c.o(i.OSTCBInitHook) for OSTCBInitHook
    os_core.o(i.OS_TCBInit) refers to os_cpu_c.o(i.OSTaskCreateHook) for OSTaskCreateHook
    os_core.o(i.OS_TCBInit) refers to os_core.o(.data) for OSTCBFreeList
    os_core.o(i.OS_TCBInit) refers to os_core.o(.bss) for OSTCBPrioTbl
    os_core.o(i.OS_TaskIdle) refers to os_cpu_a.o(.text) for OS_CPU_SR_Save
    os_core.o(i.OS_TaskIdle) refers to os_cpu_c.o(i.OSTaskIdleHook) for OSTaskIdleHook
    os_core.o(i.OS_TaskIdle) refers to os_core.o(.data) for OSIdleCtr
    os_core.o(i.OS_TaskStat) refers to os_time.o(i.OSTimeDly) for OSTimeDly
    os_core.o(i.OS_TaskStat) refers to os_task.o(i.OSTaskSuspend) for OSTaskSuspend
    os_core.o(i.OS_TaskStat) refers to os_cpu_a.o(.text) for OS_CPU_SR_Save
    os_core.o(i.OS_TaskStat) refers to os_cpu_c.o(i.OSTaskStatHook) for OSTaskStatHook
    os_core.o(i.OS_TaskStat) refers to os_core.o(i.OS_TaskStatStkChk) for OS_TaskStatStkChk
    os_core.o(i.OS_TaskStat) refers to os_core.o(.data) for OSStatRdy
    os_core.o(i.OS_TaskStatStkChk) refers to os_task.o(i.OSTaskStkChk) for OSTaskStkChk
    os_core.o(i.OS_TaskStatStkChk) refers to os_core.o(.bss) for OSTCBPrioTbl
    os_mutex.o(i.OSMutexAccept) refers to os_cpu_a.o(.text) for OS_CPU_SR_Save
    os_mutex.o(i.OSMutexAccept) refers to os_core.o(.data) for OSIntNesting
    os_mutex.o(i.OSMutexCreate) refers to os_cpu_a.o(.text) for OS_CPU_SR_Save
    os_mutex.o(i.OSMutexCreate) refers to os_core.o(i.OS_EventWaitListInit) for OS_EventWaitListInit
    os_mutex.o(i.OSMutexCreate) refers to os_core.o(.data) for OSIntNesting
    os_mutex.o(i.OSMutexCreate) refers to os_core.o(.bss) for OSTCBPrioTbl
    os_mutex.o(i.OSMutexDel) refers to os_cpu_a.o(.text) for OS_CPU_SR_Save
    os_mutex.o(i.OSMutexDel) refers to os_mutex.o(i.OSMutex_RdyAtPrio) for OSMutex_RdyAtPrio
    os_mutex.o(i.OSMutexDel) refers to os_core.o(i.OS_EventTaskRdy) for OS_EventTaskRdy
    os_mutex.o(i.OSMutexDel) refers to os_core.o(i.OS_Sched) for OS_Sched
    os_mutex.o(i.OSMutexDel) refers to os_core.o(.data) for OSIntNesting
    os_mutex.o(i.OSMutexDel) refers to os_core.o(.bss) for OSTCBPrioTbl
    os_mutex.o(i.OSMutexPend) refers to os_cpu_a.o(.text) for OS_CPU_SR_Save
    os_mutex.o(i.OSMutexPend) refers to os_core.o(i.OS_EventTaskWait) for OS_EventTaskWait
    os_mutex.o(i.OSMutexPend) refers to os_core.o(i.OS_Sched) for OS_Sched
    os_mutex.o(i.OSMutexPend) refers to os_core.o(i.OS_EventTaskRemove) for OS_EventTaskRemove
    os_mutex.o(i.OSMutexPend) refers to os_core.o(.data) for OSIntNesting
    os_mutex.o(i.OSMutexPend) refers to os_core.o(.bss) for OSTCBPrioTbl
    os_mutex.o(i.OSMutexPost) refers to os_cpu_a.o(.text) for OS_CPU_SR_Save
    os_mutex.o(i.OSMutexPost) refers to os_mutex.o(i.OSMutex_RdyAtPrio) for OSMutex_RdyAtPrio
    os_mutex.o(i.OSMutexPost) refers to os_core.o(i.OS_EventTaskRdy) for OS_EventTaskRdy
    os_mutex.o(i.OSMutexPost) refers to os_core.o(i.OS_Sched) for OS_Sched
    os_mutex.o(i.OSMutexPost) refers to os_core.o(.data) for OSIntNesting
    os_mutex.o(i.OSMutexPost) refers to os_core.o(.bss) for OSTCBPrioTbl
    os_mutex.o(i.OSMutexQuery) refers to os_cpu_a.o(.text) for OS_CPU_SR_Save
    os_mutex.o(i.OSMutexQuery) refers to os_core.o(.data) for OSIntNesting
    os_mutex.o(i.OSMutex_RdyAtPrio) refers to os_core.o(.data) for OSRdyTbl
    os_mutex.o(i.OSMutex_RdyAtPrio) refers to os_core.o(.bss) for OSTCBPrioTbl
    os_q.o(i.OSQAccept) refers to os_cpu_a.o(.text) for OS_CPU_SR_Save
    os_q.o(i.OSQCreate) refers to os_cpu_a.o(.text) for OS_CPU_SR_Save
    os_q.o(i.OSQCreate) refers to os_core.o(i.OS_EventWaitListInit) for OS_EventWaitListInit
    os_q.o(i.OSQCreate) refers to os_core.o(.data) for OSIntNesting
    os_q.o(i.OSQDel) refers to os_cpu_a.o(.text) for OS_CPU_SR_Save
    os_q.o(i.OSQDel) refers to os_core.o(i.OS_EventTaskRdy) for OS_EventTaskRdy
    os_q.o(i.OSQDel) refers to os_core.o(i.OS_Sched) for OS_Sched
    os_q.o(i.OSQDel) refers to os_core.o(.data) for OSIntNesting
    os_q.o(i.OSQFlush) refers to os_cpu_a.o(.text) for OS_CPU_SR_Save
    os_q.o(i.OSQPend) refers to os_cpu_a.o(.text) for OS_CPU_SR_Save
    os_q.o(i.OSQPend) refers to os_core.o(i.OS_EventTaskWait) for OS_EventTaskWait
    os_q.o(i.OSQPend) refers to os_core.o(i.OS_Sched) for OS_Sched
    os_q.o(i.OSQPend) refers to os_core.o(i.OS_EventTaskRemove) for OS_EventTaskRemove
    os_q.o(i.OSQPend) refers to os_core.o(.data) for OSIntNesting
    os_q.o(i.OSQPendAbort) refers to os_cpu_a.o(.text) for OS_CPU_SR_Save
    os_q.o(i.OSQPendAbort) refers to os_core.o(i.OS_EventTaskRdy) for OS_EventTaskRdy
    os_q.o(i.OSQPendAbort) refers to os_core.o(i.OS_Sched) for OS_Sched
    os_q.o(i.OSQPost) refers to os_cpu_a.o(.text) for OS_CPU_SR_Save
    os_q.o(i.OSQPost) refers to os_core.o(i.OS_EventTaskRdy) for OS_EventTaskRdy
    os_q.o(i.OSQPost) refers to os_core.o(i.OS_Sched) for OS_Sched
    os_q.o(i.OSQPostFront) refers to os_cpu_a.o(.text) for OS_CPU_SR_Save
    os_q.o(i.OSQPostFront) refers to os_core.o(i.OS_EventTaskRdy) for OS_EventTaskRdy
    os_q.o(i.OSQPostFront) refers to os_core.o(i.OS_Sched) for OS_Sched
    os_q.o(i.OSQPostOpt) refers to os_cpu_a.o(.text) for OS_CPU_SR_Save
    os_q.o(i.OSQPostOpt) refers to os_core.o(i.OS_EventTaskRdy) for OS_EventTaskRdy
    os_q.o(i.OSQPostOpt) refers to os_core.o(i.OS_Sched) for OS_Sched
    os_q.o(i.OSQQuery) refers to os_cpu_a.o(.text) for OS_CPU_SR_Save
    os_q.o(i.OS_QInit) refers to os_core.o(i.OS_MemClr) for OS_MemClr
    os_q.o(i.OS_QInit) refers to os_core.o(.bss) for OSQTbl
    os_q.o(i.OS_QInit) refers to os_core.o(.data) for OSQFreeList
    os_sem.o(i.OSSemAccept) refers to os_cpu_a.o(.text) for OS_CPU_SR_Save
    os_sem.o(i.OSSemCreate) refers to os_cpu_a.o(.text) for OS_CPU_SR_Save
    os_sem.o(i.OSSemCreate) refers to os_core.o(i.OS_EventWaitListInit) for OS_EventWaitListInit
    os_sem.o(i.OSSemCreate) refers to os_core.o(.data) for OSIntNesting
    os_sem.o(i.OSSemDel) refers to os_cpu_a.o(.text) for OS_CPU_SR_Save
    os_sem.o(i.OSSemDel) refers to os_core.o(i.OS_EventTaskRdy) for OS_EventTaskRdy
    os_sem.o(i.OSSemDel) refers to os_core.o(i.OS_Sched) for OS_Sched
    os_sem.o(i.OSSemDel) refers to os_core.o(.data) for OSIntNesting
    os_sem.o(i.OSSemPend) refers to os_cpu_a.o(.text) for OS_CPU_SR_Save
    os_sem.o(i.OSSemPend) refers to os_core.o(i.OS_EventTaskWait) for OS_EventTaskWait
    os_sem.o(i.OSSemPend) refers to os_core.o(i.OS_Sched) for OS_Sched
    os_sem.o(i.OSSemPend) refers to os_core.o(i.OS_EventTaskRemove) for OS_EventTaskRemove
    os_sem.o(i.OSSemPend) refers to os_core.o(.data) for OSIntNesting
    os_sem.o(i.OSSemPendAbort) refers to os_cpu_a.o(.text) for OS_CPU_SR_Save
    os_sem.o(i.OSSemPendAbort) refers to os_core.o(i.OS_EventTaskRdy) for OS_EventTaskRdy
    os_sem.o(i.OSSemPendAbort) refers to os_core.o(i.OS_Sched) for OS_Sched
    os_sem.o(i.OSSemPost) refers to os_cpu_a.o(.text) for OS_CPU_SR_Save
    os_sem.o(i.OSSemPost) refers to os_core.o(i.OS_EventTaskRdy) for OS_EventTaskRdy
    os_sem.o(i.OSSemPost) refers to os_core.o(i.OS_Sched) for OS_Sched
    os_sem.o(i.OSSemQuery) refers to os_cpu_a.o(.text) for OS_CPU_SR_Save
    os_sem.o(i.OSSemSet) refers to os_cpu_a.o(.text) for OS_CPU_SR_Save
    os_task.o(i.OSTaskChangePrio) refers to os_cpu_a.o(.text) for OS_CPU_SR_Save
    os_task.o(i.OSTaskChangePrio) refers to os_core.o(i.OS_Sched) for OS_Sched
    os_task.o(i.OSTaskChangePrio) refers to os_core.o(.bss) for OSTCBPrioTbl
    os_task.o(i.OSTaskChangePrio) refers to os_core.o(.data) for OSTCBCur
    os_task.o(i.OSTaskCreate) refers to os_cpu_a.o(.text) for OS_CPU_SR_Save
    os_task.o(i.OSTaskCreate) refers to os_cpu_c.o(i.OSTaskStkInit) for OSTaskStkInit
    os_task.o(i.OSTaskCreate) refers to os_core.o(i.OS_TCBInit) for OS_TCBInit
    os_task.o(i.OSTaskCreate) refers to os_core.o(i.OS_Sched) for OS_Sched
    os_task.o(i.OSTaskCreate) refers to os_core.o(.data) for OSIntNesting
    os_task.o(i.OSTaskCreate) refers to os_core.o(.bss) for OSTCBPrioTbl
    os_task.o(i.OSTaskCreateExt) refers to os_cpu_a.o(.text) for OS_CPU_SR_Save
    os_task.o(i.OSTaskCreateExt) refers to os_task.o(i.OS_TaskStkClr) for OS_TaskStkClr
    os_task.o(i.OSTaskCreateExt) refers to os_cpu_c.o(i.OSTaskStkInit) for OSTaskStkInit
    os_task.o(i.OSTaskCreateExt) refers to os_core.o(i.OS_TCBInit) for OS_TCBInit
    os_task.o(i.OSTaskCreateExt) refers to os_core.o(i.OS_Sched) for OS_Sched
    os_task.o(i.OSTaskCreateExt) refers to os_core.o(.data) for OSIntNesting
    os_task.o(i.OSTaskCreateExt) refers to os_core.o(.bss) for OSTCBPrioTbl
    os_task.o(i.OSTaskDel) refers to os_cpu_a.o(.text) for OS_CPU_SR_Save
    os_task.o(i.OSTaskDel) refers to os_core.o(i.OS_EventTaskRemove) for OS_EventTaskRemove
    os_task.o(i.OSTaskDel) refers to os_core.o(i.OS_Dummy) for OS_Dummy
    os_task.o(i.OSTaskDel) refers to os_cpu_c.o(i.OSTaskDelHook) for OSTaskDelHook
    os_task.o(i.OSTaskDel) refers to os_core.o(i.OS_Sched) for OS_Sched
    os_task.o(i.OSTaskDel) refers to os_core.o(.data) for OSIntNesting
    os_task.o(i.OSTaskDel) refers to os_core.o(.bss) for OSTCBPrioTbl
    os_task.o(i.OSTaskDelReq) refers to os_cpu_a.o(.text) for OS_CPU_SR_Save
    os_task.o(i.OSTaskDelReq) refers to os_core.o(.data) for OSTCBCur
    os_task.o(i.OSTaskDelReq) refers to os_core.o(.bss) for OSTCBPrioTbl
    os_task.o(i.OSTaskNameGet) refers to os_cpu_a.o(.text) for OS_CPU_SR_Save
    os_task.o(i.OSTaskNameGet) refers to os_core.o(i.OS_StrCopy) for OS_StrCopy
    os_task.o(i.OSTaskNameGet) refers to os_core.o(.data) for OSIntNesting
    os_task.o(i.OSTaskNameGet) refers to os_core.o(.bss) for OSTCBPrioTbl
    os_task.o(i.OSTaskNameSet) refers to os_cpu_a.o(.text) for OS_CPU_SR_Save
    os_task.o(i.OSTaskNameSet) refers to os_core.o(i.OS_StrLen) for OS_StrLen
    os_task.o(i.OSTaskNameSet) refers to os_core.o(i.OS_StrCopy) for OS_StrCopy
    os_task.o(i.OSTaskNameSet) refers to os_core.o(.data) for OSIntNesting
    os_task.o(i.OSTaskNameSet) refers to os_core.o(.bss) for OSTCBPrioTbl
    os_task.o(i.OSTaskQuery) refers to os_cpu_a.o(.text) for OS_CPU_SR_Save
    os_task.o(i.OSTaskQuery) refers to os_core.o(i.OS_MemCopy) for OS_MemCopy
    os_task.o(i.OSTaskQuery) refers to os_core.o(.data) for OSTCBCur
    os_task.o(i.OSTaskQuery) refers to os_core.o(.bss) for OSTCBPrioTbl
    os_task.o(i.OSTaskResume) refers to os_cpu_a.o(.text) for OS_CPU_SR_Save
    os_task.o(i.OSTaskResume) refers to os_core.o(i.OS_Sched) for OS_Sched
    os_task.o(i.OSTaskResume) refers to os_core.o(.bss) for OSTCBPrioTbl
    os_task.o(i.OSTaskResume) refers to os_core.o(.data) for OSRdyGrp
    os_task.o(i.OSTaskStkChk) refers to os_cpu_a.o(.text) for OS_CPU_SR_Save
    os_task.o(i.OSTaskStkChk) refers to os_core.o(.data) for OSTCBCur
    os_task.o(i.OSTaskStkChk) refers to os_core.o(.bss) for OSTCBPrioTbl
    os_task.o(i.OSTaskSuspend) refers to os_cpu_a.o(.text) for OS_CPU_SR_Save
    os_task.o(i.OSTaskSuspend) refers to os_core.o(i.OS_Sched) for OS_Sched
    os_task.o(i.OSTaskSuspend) refers to os_core.o(.data) for OSTCBCur
    os_task.o(i.OSTaskSuspend) refers to os_core.o(.bss) for OSTCBPrioTbl
    os_time.o(i.OSTimeDly) refers to os_cpu_a.o(.text) for OS_CPU_SR_Save
    os_time.o(i.OSTimeDly) refers to os_core.o(i.OS_Sched) for OS_Sched
    os_time.o(i.OSTimeDly) refers to os_core.o(.data) for OSIntNesting
    os_time.o(i.OSTimeDlyHMSM) refers to os_time.o(i.OSTimeDly) for OSTimeDly
    os_time.o(i.OSTimeDlyHMSM) refers to os_core.o(.data) for OSIntNesting
    os_time.o(i.OSTimeDlyResume) refers to os_cpu_a.o(.text) for OS_CPU_SR_Save
    os_time.o(i.OSTimeDlyResume) refers to os_core.o(i.OS_Sched) for OS_Sched
    os_time.o(i.OSTimeDlyResume) refers to os_core.o(.bss) for OSTCBPrioTbl
    os_time.o(i.OSTimeDlyResume) refers to os_core.o(.data) for OSRdyGrp
    os_time.o(i.OSTimeGet) refers to os_cpu_a.o(.text) for OS_CPU_SR_Save
    os_time.o(i.OSTimeGet) refers to os_core.o(.data) for OSTime
    os_time.o(i.OSTimeSet) refers to os_cpu_a.o(.text) for OS_CPU_SR_Save
    os_time.o(i.OSTimeSet) refers to os_core.o(.data) for OSTime
    os_cpu_a.o(.text) refers to os_core.o(.data) for OSRunning
    os_cpu_a.o(.text) refers to os_cpu_c.o(i.OSTaskSwHook) for OSTaskSwHook
    malloc.o(i.mem_free) refers to malloc.o(.data) for mallco_dev
    malloc.o(i.mem_free) refers to malloc.o(.constdata) for memsize
    malloc.o(i.mem_free_size) refers to malloc.o(.data) for mallco_dev
    malloc.o(i.mem_free_size) refers to malloc.o(.constdata) for memtblsize
    malloc.o(i.mem_init) refers to malloc.o(i.mymemset) for mymemset
    malloc.o(i.mem_init) refers to malloc.o(.constdata) for memtblsize
    malloc.o(i.mem_init) refers to malloc.o(.data) for mallco_dev
    malloc.o(i.mem_malloc) refers to malloc.o(.data) for mallco_dev
    malloc.o(i.mem_malloc) refers to malloc.o(.constdata) for memblksize
    malloc.o(i.mem_perused) refers to malloc.o(.data) for mallco_dev
    malloc.o(i.mem_perused) refers to malloc.o(.constdata) for memtblsize
    malloc.o(i.myfree) refers to malloc.o(i.mem_free) for mem_free
    malloc.o(i.myfree) refers to malloc.o(.data) for mallco_dev
    malloc.o(i.mymalloc) refers to malloc.o(i.mem_malloc) for mem_malloc
    malloc.o(i.mymalloc) refers to malloc.o(.data) for mallco_dev
    malloc.o(i.myrealloc) refers to malloc.o(i.mem_malloc) for mem_malloc
    malloc.o(i.myrealloc) refers to malloc.o(i.mymemcpy) for mymemcpy
    malloc.o(i.myrealloc) refers to malloc.o(i.myfree) for myfree
    malloc.o(i.myrealloc) refers to malloc.o(.data) for mallco_dev
    malloc.o(.data) refers to malloc.o(i.mem_init) for mem_init
    malloc.o(.data) refers to malloc.o(i.mem_perused) for mem_perused
    malloc.o(.data) refers to malloc.o(.bss) for mem1base
    modbus_master.o(i.ModbusMaster_ModbusMasterTransaction) refers to modbus_master.o(i.highByte) for highByte
    modbus_master.o(i.ModbusMaster_ModbusMasterTransaction) refers to modbus_master.o(i.lowByte) for lowByte
    modbus_master.o(i.ModbusMaster_ModbusMasterTransaction) refers to modbus_master.o(i.crc16_update) for crc16_update
    modbus_master.o(i.ModbusMaster_ModbusMasterTransaction) refers to trans_recieve_buff_control.o(i.Modbus_Master_Rece_Flush) for Modbus_Master_Rece_Flush
    modbus_master.o(i.ModbusMaster_ModbusMasterTransaction) refers to trans_recieve_buff_control.o(i.Modbus_Master_Write) for Modbus_Master_Write
    modbus_master.o(i.ModbusMaster_ModbusMasterTransaction) refers to trans_recieve_buff_control.o(i.Modbus_Master_Millis) for Modbus_Master_Millis
    modbus_master.o(i.ModbusMaster_ModbusMasterTransaction) refers to os_time.o(i.OSTimeDlyHMSM) for OSTimeDlyHMSM
    modbus_master.o(i.ModbusMaster_ModbusMasterTransaction) refers to trans_recieve_buff_control.o(i.Modbus_Master_Rece_Available) for Modbus_Master_Rece_Available
    modbus_master.o(i.ModbusMaster_ModbusMasterTransaction) refers to trans_recieve_buff_control.o(i.Modbus_Master_Read) for Modbus_Master_Read
    modbus_master.o(i.ModbusMaster_ModbusMasterTransaction) refers to modbus_master.o(.data) for _u8MBSlave
    modbus_master.o(i.ModbusMaster_ModbusMasterTransaction) refers to modbus_master.o(.bss) for _u16TransmitBuffer
    modbus_master.o(i.ModbusMaster_ModbusMasterTransaction) refers to modbus_master.o(i.word) for word
    modbus_master.o(i.ModbusMaster_available) refers to modbus_master.o(.data) for _u8ResponseBufferLength
    modbus_master.o(i.ModbusMaster_begin) refers to trans_recieve_buff_control.o(i.Modbus_Master_RB_Initialize) for Modbus_Master_RB_Initialize
    modbus_master.o(i.ModbusMaster_begin) refers to modbus_master.o(.data) for _u8TransmitBufferIndex
    modbus_master.o(i.ModbusMaster_beginTransmission) refers to modbus_master.o(.data) for _u16WriteAddress
    modbus_master.o(i.ModbusMaster_clearResponseBuffer) refers to modbus_master.o(.bss) for _u16ResponseBuffer
    modbus_master.o(i.ModbusMaster_clearTransmitBuffer) refers to modbus_master.o(.bss) for _u16TransmitBuffer
    modbus_master.o(i.ModbusMaster_getResponseBuffer) refers to modbus_master.o(.bss) for _u16ResponseBuffer
    modbus_master.o(i.ModbusMaster_maskWriteRegister) refers to modbus_master.o(i.ModbusMaster_ModbusMasterTransaction) for ModbusMaster_ModbusMasterTransaction
    modbus_master.o(i.ModbusMaster_maskWriteRegister) refers to modbus_master.o(.data) for _u8MBSlave
    modbus_master.o(i.ModbusMaster_maskWriteRegister) refers to modbus_master.o(.bss) for _u16TransmitBuffer
    modbus_master.o(i.ModbusMaster_readCoils) refers to modbus_master.o(i.ModbusMaster_ModbusMasterTransaction) for ModbusMaster_ModbusMasterTransaction
    modbus_master.o(i.ModbusMaster_readCoils) refers to modbus_master.o(.data) for _u8MBSlave
    modbus_master.o(i.ModbusMaster_readDiscreteInputs) refers to modbus_master.o(i.ModbusMaster_ModbusMasterTransaction) for ModbusMaster_ModbusMasterTransaction
    modbus_master.o(i.ModbusMaster_readDiscreteInputs) refers to modbus_master.o(.data) for _u8MBSlave
    modbus_master.o(i.ModbusMaster_readHoldingRegisters) refers to modbus_master.o(i.ModbusMaster_ModbusMasterTransaction) for ModbusMaster_ModbusMasterTransaction
    modbus_master.o(i.ModbusMaster_readHoldingRegisters) refers to modbus_master.o(.data) for _u8MBSlave
    modbus_master.o(i.ModbusMaster_readInputRegisters) refers to modbus_master.o(i.ModbusMaster_ModbusMasterTransaction) for ModbusMaster_ModbusMasterTransaction
    modbus_master.o(i.ModbusMaster_readInputRegisters) refers to modbus_master.o(.data) for _u8MBSlave
    modbus_master.o(i.ModbusMaster_readWriteMultipleRegisters) refers to modbus_master.o(i.ModbusMaster_ModbusMasterTransaction) for ModbusMaster_ModbusMasterTransaction
    modbus_master.o(i.ModbusMaster_readWriteMultipleRegisters) refers to modbus_master.o(.data) for _u8MBSlave
    modbus_master.o(i.ModbusMaster_receive) refers to modbus_master.o(.data) for _u8ResponseBufferIndex
    modbus_master.o(i.ModbusMaster_receive) refers to modbus_master.o(.bss) for _u16ResponseBuffer
    modbus_master.o(i.ModbusMaster_requestFrom) refers to modbus_master.o(.data) for _u8ResponseBufferIndex
    modbus_master.o(i.ModbusMaster_send16) refers to modbus_master.o(.data) for _u8TransmitBufferIndex
    modbus_master.o(i.ModbusMaster_send16) refers to modbus_master.o(.bss) for _u16TransmitBuffer
    modbus_master.o(i.ModbusMaster_send32) refers to modbus_master.o(i.ModbusMaster_send16) for ModbusMaster_send16
    modbus_master.o(i.ModbusMaster_send8) refers to modbus_master.o(i.ModbusMaster_send16) for ModbusMaster_send16
    modbus_master.o(i.ModbusMaster_sendBit) refers to modbus_master.o(.data) for u16TransmitBufferLength
    modbus_master.o(i.ModbusMaster_sendBit) refers to modbus_master.o(.bss) for _u16TransmitBuffer
    modbus_master.o(i.ModbusMaster_setTransmitBuffer) refers to modbus_master.o(.bss) for _u16TransmitBuffer
    modbus_master.o(i.ModbusMaster_writeMultipleCoils) refers to modbus_master.o(i.ModbusMaster_ModbusMasterTransaction) for ModbusMaster_ModbusMasterTransaction
    modbus_master.o(i.ModbusMaster_writeMultipleCoils) refers to modbus_master.o(.data) for _u8MBSlave
    modbus_master.o(i.ModbusMaster_writeMultipleRegisters) refers to modbus_master.o(i.ModbusMaster_ModbusMasterTransaction) for ModbusMaster_ModbusMasterTransaction
    modbus_master.o(i.ModbusMaster_writeMultipleRegisters) refers to modbus_master.o(.data) for _u8MBSlave
    modbus_master.o(i.ModbusMaster_writeSingleCoil) refers to modbus_master.o(i.ModbusMaster_ModbusMasterTransaction) for ModbusMaster_ModbusMasterTransaction
    modbus_master.o(i.ModbusMaster_writeSingleCoil) refers to modbus_master.o(.data) for _u8MBSlave
    modbus_master.o(i.ModbusMaster_writeSingleRegister) refers to modbus_master.o(i.ModbusMaster_ModbusMasterTransaction) for ModbusMaster_ModbusMasterTransaction
    modbus_master.o(i.ModbusMaster_writeSingleRegister) refers to modbus_master.o(.data) for _u8MBSlave
    modbus_master.o(i.ModbusMaster_writeSingleRegister) refers to modbus_master.o(.bss) for _u16TransmitBuffer
    trans_recieve_buff_control.o(i.Modbus_Master_GetByte) refers to stm32f10x_usart.o(i.USART_ReceiveData) for USART_ReceiveData
    trans_recieve_buff_control.o(i.Modbus_Master_Millis) refers to os_time.o(i.OSTimeGet) for OSTimeGet
    trans_recieve_buff_control.o(i.Modbus_Master_RB_Initialize) refers to ringbuffer.o(i.rbInitialize) for rbInitialize
    trans_recieve_buff_control.o(i.Modbus_Master_RB_Initialize) refers to trans_recieve_buff_control.o(.bss) for m_Modbus_Master_RX_Buff
    trans_recieve_buff_control.o(i.Modbus_Master_Read) refers to ringbuffer.o(i.rbIsEmpty) for rbIsEmpty
    trans_recieve_buff_control.o(i.Modbus_Master_Read) refers to ringbuffer.o(i.rbPop) for rbPop
    trans_recieve_buff_control.o(i.Modbus_Master_Read) refers to trans_recieve_buff_control.o(.bss) for m_Modbus_Master_RX_RingBuff
    trans_recieve_buff_control.o(i.Modbus_Master_Rece_Available) refers to ringbuffer.o(i.rbClear) for rbClear
    trans_recieve_buff_control.o(i.Modbus_Master_Rece_Available) refers to ringbuffer.o(i.rbIsEmpty) for rbIsEmpty
    trans_recieve_buff_control.o(i.Modbus_Master_Rece_Available) refers to trans_recieve_buff_control.o(.bss) for m_Modbus_Master_RX_RingBuff
    trans_recieve_buff_control.o(i.Modbus_Master_Rece_Flush) refers to ringbuffer.o(i.rbClear) for rbClear
    trans_recieve_buff_control.o(i.Modbus_Master_Rece_Flush) refers to trans_recieve_buff_control.o(.bss) for m_Modbus_Master_RX_RingBuff
    trans_recieve_buff_control.o(i.Modbus_Master_Rece_Handler) refers to trans_recieve_buff_control.o(i.Modbus_Master_GetByte) for Modbus_Master_GetByte
    trans_recieve_buff_control.o(i.Modbus_Master_Rece_Handler) refers to ringbuffer.o(i.rbPush) for rbPush
    trans_recieve_buff_control.o(i.Modbus_Master_Rece_Handler) refers to trans_recieve_buff_control.o(.bss) for m_Modbus_Master_RX_RingBuff
    trans_recieve_buff_control.o(i.Modbus_Master_Write) refers to user_usart.o(i.Usart_SendOneByte) for Usart_SendOneByte
    cjson.o(i.cJSON_AddItemReferenceToArray) refers to cjson.o(i.create_reference) for create_reference
    cjson.o(i.cJSON_AddItemReferenceToArray) refers to cjson.o(i.cJSON_AddItemToArray) for cJSON_AddItemToArray
    cjson.o(i.cJSON_AddItemReferenceToArray) refers to cjson.o(.data) for global_hooks
    cjson.o(i.cJSON_AddItemReferenceToObject) refers to cjson.o(i.create_reference) for create_reference
    cjson.o(i.cJSON_AddItemReferenceToObject) refers to cjson.o(i.cJSON_AddItemToObject) for cJSON_AddItemToObject
    cjson.o(i.cJSON_AddItemReferenceToObject) refers to cjson.o(.data) for global_hooks
    cjson.o(i.cJSON_AddItemToArray) refers to cjson.o(i.suffix_object) for suffix_object
    cjson.o(i.cJSON_AddItemToObject) refers to cjson.o(i.cJSON_strdup) for cJSON_strdup
    cjson.o(i.cJSON_AddItemToObject) refers to cjson.o(i.cJSON_AddItemToObjectCS) for cJSON_AddItemToObjectCS
    cjson.o(i.cJSON_AddItemToObject) refers to cjson.o(.data) for global_hooks
    cjson.o(i.cJSON_AddItemToObjectCS) refers to cjson.o(i.cJSON_AddItemToArray) for cJSON_AddItemToArray
    cjson.o(i.cJSON_AddItemToObjectCS) refers to cjson.o(.data) for global_hooks
    cjson.o(i.cJSON_Compare) refers to cjson.o(i.cJSON_IsInvalid) for cJSON_IsInvalid
    cjson.o(i.cJSON_Compare) refers to cdcmple.o(.text) for __aeabi_cdcmpeq
    cjson.o(i.cJSON_Compare) refers to strcmp.o(.text) for strcmp
    cjson.o(i.cJSON_Compare) refers to cjson.o(i.get_object_item) for get_object_item
    cjson.o(i.cJSON_CreateArray) refers to cjson.o(i.cJSON_New_Item) for cJSON_New_Item
    cjson.o(i.cJSON_CreateArray) refers to cjson.o(.data) for global_hooks
    cjson.o(i.cJSON_CreateBool) refers to cjson.o(i.cJSON_New_Item) for cJSON_New_Item
    cjson.o(i.cJSON_CreateBool) refers to cjson.o(.data) for global_hooks
    cjson.o(i.cJSON_CreateDoubleArray) refers to cjson.o(i.cJSON_CreateArray) for cJSON_CreateArray
    cjson.o(i.cJSON_CreateDoubleArray) refers to cjson.o(i.cJSON_CreateNumber) for cJSON_CreateNumber
    cjson.o(i.cJSON_CreateDoubleArray) refers to cjson.o(i.cJSON_Delete) for cJSON_Delete
    cjson.o(i.cJSON_CreateDoubleArray) refers to cjson.o(i.suffix_object) for suffix_object
    cjson.o(i.cJSON_CreateFalse) refers to cjson.o(i.cJSON_New_Item) for cJSON_New_Item
    cjson.o(i.cJSON_CreateFalse) refers to cjson.o(.data) for global_hooks
    cjson.o(i.cJSON_CreateFloatArray) refers to cjson.o(i.cJSON_CreateArray) for cJSON_CreateArray
    cjson.o(i.cJSON_CreateFloatArray) refers to f2d.o(.text) for __aeabi_f2d
    cjson.o(i.cJSON_CreateFloatArray) refers to cjson.o(i.cJSON_CreateNumber) for cJSON_CreateNumber
    cjson.o(i.cJSON_CreateFloatArray) refers to cjson.o(i.cJSON_Delete) for cJSON_Delete
    cjson.o(i.cJSON_CreateFloatArray) refers to cjson.o(i.suffix_object) for suffix_object
    cjson.o(i.cJSON_CreateIntArray) refers to cjson.o(i.cJSON_CreateArray) for cJSON_CreateArray
    cjson.o(i.cJSON_CreateIntArray) refers to dflti.o(.text) for __aeabi_i2d
    cjson.o(i.cJSON_CreateIntArray) refers to cjson.o(i.cJSON_CreateNumber) for cJSON_CreateNumber
    cjson.o(i.cJSON_CreateIntArray) refers to cjson.o(i.cJSON_Delete) for cJSON_Delete
    cjson.o(i.cJSON_CreateIntArray) refers to cjson.o(i.suffix_object) for suffix_object
    cjson.o(i.cJSON_CreateNull) refers to cjson.o(i.cJSON_New_Item) for cJSON_New_Item
    cjson.o(i.cJSON_CreateNull) refers to cjson.o(.data) for global_hooks
    cjson.o(i.cJSON_CreateNumber) refers to cjson.o(i.cJSON_New_Item) for cJSON_New_Item
    cjson.o(i.cJSON_CreateNumber) refers to cdrcmple.o(.text) for __aeabi_cdrcmple
    cjson.o(i.cJSON_CreateNumber) refers to cdcmple.o(.text) for __aeabi_cdcmple
    cjson.o(i.cJSON_CreateNumber) refers to dfixi.o(.text) for __aeabi_d2iz
    cjson.o(i.cJSON_CreateNumber) refers to cjson.o(.data) for global_hooks
    cjson.o(i.cJSON_CreateObject) refers to cjson.o(i.cJSON_New_Item) for cJSON_New_Item
    cjson.o(i.cJSON_CreateObject) refers to cjson.o(.data) for global_hooks
    cjson.o(i.cJSON_CreateRaw) refers to cjson.o(i.cJSON_New_Item) for cJSON_New_Item
    cjson.o(i.cJSON_CreateRaw) refers to cjson.o(i.cJSON_strdup) for cJSON_strdup
    cjson.o(i.cJSON_CreateRaw) refers to cjson.o(i.cJSON_Delete) for cJSON_Delete
    cjson.o(i.cJSON_CreateRaw) refers to cjson.o(.data) for global_hooks
    cjson.o(i.cJSON_CreateString) refers to cjson.o(i.cJSON_New_Item) for cJSON_New_Item
    cjson.o(i.cJSON_CreateString) refers to cjson.o(i.cJSON_strdup) for cJSON_strdup
    cjson.o(i.cJSON_CreateString) refers to cjson.o(i.cJSON_Delete) for cJSON_Delete
    cjson.o(i.cJSON_CreateString) refers to cjson.o(.data) for global_hooks
    cjson.o(i.cJSON_CreateStringArray) refers to cjson.o(i.cJSON_CreateArray) for cJSON_CreateArray
    cjson.o(i.cJSON_CreateStringArray) refers to cjson.o(i.cJSON_CreateString) for cJSON_CreateString
    cjson.o(i.cJSON_CreateStringArray) refers to cjson.o(i.cJSON_Delete) for cJSON_Delete
    cjson.o(i.cJSON_CreateStringArray) refers to cjson.o(i.suffix_object) for suffix_object
    cjson.o(i.cJSON_CreateTrue) refers to cjson.o(i.cJSON_New_Item) for cJSON_New_Item
    cjson.o(i.cJSON_CreateTrue) refers to cjson.o(.data) for global_hooks
    cjson.o(i.cJSON_Delete) refers to cjson.o(.data) for global_hooks
    cjson.o(i.cJSON_DeleteItemFromArray) refers to cjson.o(i.cJSON_DetachItemFromArray) for cJSON_DetachItemFromArray
    cjson.o(i.cJSON_DeleteItemFromArray) refers to cjson.o(i.cJSON_Delete) for cJSON_Delete
    cjson.o(i.cJSON_DeleteItemFromObject) refers to cjson.o(i.cJSON_DetachItemFromObject) for cJSON_DetachItemFromObject
    cjson.o(i.cJSON_DeleteItemFromObject) refers to cjson.o(i.cJSON_Delete) for cJSON_Delete
    cjson.o(i.cJSON_DeleteItemFromObjectCaseSensitive) refers to cjson.o(i.cJSON_DetachItemFromObjectCaseSensitive) for cJSON_DetachItemFromObjectCaseSensitive
    cjson.o(i.cJSON_DeleteItemFromObjectCaseSensitive) refers to cjson.o(i.cJSON_Delete) for cJSON_Delete
    cjson.o(i.cJSON_DetachItemFromArray) refers to cjson.o(i.get_array_item) for get_array_item
    cjson.o(i.cJSON_DetachItemFromArray) refers to cjson.o(i.cJSON_DetachItemViaPointer) for cJSON_DetachItemViaPointer
    cjson.o(i.cJSON_DetachItemFromObject) refers to cjson.o(i.cJSON_GetObjectItem) for cJSON_GetObjectItem
    cjson.o(i.cJSON_DetachItemFromObject) refers to cjson.o(i.cJSON_DetachItemViaPointer) for cJSON_DetachItemViaPointer
    cjson.o(i.cJSON_DetachItemFromObjectCaseSensitive) refers to cjson.o(i.cJSON_GetObjectItemCaseSensitive) for cJSON_GetObjectItemCaseSensitive
    cjson.o(i.cJSON_DetachItemFromObjectCaseSensitive) refers to cjson.o(i.cJSON_DetachItemViaPointer) for cJSON_DetachItemViaPointer
    cjson.o(i.cJSON_Duplicate) refers to cjson.o(i.cJSON_New_Item) for cJSON_New_Item
    cjson.o(i.cJSON_Duplicate) refers to cjson.o(i.cJSON_strdup) for cJSON_strdup
    cjson.o(i.cJSON_Duplicate) refers to cjson.o(i.cJSON_Delete) for cJSON_Delete
    cjson.o(i.cJSON_Duplicate) refers to cjson.o(.data) for global_hooks
    cjson.o(i.cJSON_GetArrayItem) refers to cjson.o(i.get_array_item) for get_array_item
    cjson.o(i.cJSON_GetErrorPtr) refers to cjson.o(.data) for global_error
    cjson.o(i.cJSON_GetObjectItem) refers to cjson.o(i.get_object_item) for get_object_item
    cjson.o(i.cJSON_GetObjectItemCaseSensitive) refers to cjson.o(i.get_object_item) for get_object_item
    cjson.o(i.cJSON_HasObjectItem) refers to cjson.o(i.cJSON_GetObjectItem) for cJSON_GetObjectItem
    cjson.o(i.cJSON_InitHooks) refers to malloc.o(i.mymalloc) for mymalloc
    cjson.o(i.cJSON_InitHooks) refers to cjson.o(.data) for global_hooks
    cjson.o(i.cJSON_InitHooks) refers to malloc.o(i.myfree) for myfree
    cjson.o(i.cJSON_InitHooks) refers to malloc.o(i.myrealloc) for myrealloc
    cjson.o(i.cJSON_InsertItemInArray) refers to cjson.o(i.get_array_item) for get_array_item
    cjson.o(i.cJSON_InsertItemInArray) refers to cjson.o(i.cJSON_AddItemToArray) for cJSON_AddItemToArray
    cjson.o(i.cJSON_New_Item) refers to memseta.o(.text) for __aeabi_memclr4
    cjson.o(i.cJSON_Parse) refers to cjson.o(i.cJSON_ParseWithOpts) for cJSON_ParseWithOpts
    cjson.o(i.cJSON_ParseWithOpts) refers to memseta.o(.text) for __aeabi_memclr4
    cjson.o(i.cJSON_ParseWithOpts) refers to strlen.o(.text) for strlen
    cjson.o(i.cJSON_ParseWithOpts) refers to cjson.o(i.cJSON_New_Item) for cJSON_New_Item
    cjson.o(i.cJSON_ParseWithOpts) refers to cjson.o(i.skip_utf8_bom) for skip_utf8_bom
    cjson.o(i.cJSON_ParseWithOpts) refers to cjson.o(i.buffer_skip_whitespace) for buffer_skip_whitespace
    cjson.o(i.cJSON_ParseWithOpts) refers to cjson.o(i.parse_value) for parse_value
    cjson.o(i.cJSON_ParseWithOpts) refers to cjson.o(i.cJSON_Delete) for cJSON_Delete
    cjson.o(i.cJSON_ParseWithOpts) refers to cjson.o(.data) for global_error
    cjson.o(i.cJSON_Print) refers to cjson.o(i.print) for print
    cjson.o(i.cJSON_Print) refers to cjson.o(.data) for global_hooks
    cjson.o(i.cJSON_PrintBuffered) refers to memseta.o(.text) for __aeabi_memclr4
    cjson.o(i.cJSON_PrintBuffered) refers to cjson.o(i.print_value) for print_value
    cjson.o(i.cJSON_PrintBuffered) refers to cjson.o(.data) for global_hooks
    cjson.o(i.cJSON_PrintPreallocated) refers to memseta.o(.text) for __aeabi_memclr4
    cjson.o(i.cJSON_PrintPreallocated) refers to cjson.o(i.print_value) for print_value
    cjson.o(i.cJSON_PrintPreallocated) refers to cjson.o(.data) for global_hooks
    cjson.o(i.cJSON_PrintUnformatted) refers to cjson.o(i.print) for print
    cjson.o(i.cJSON_PrintUnformatted) refers to cjson.o(.data) for global_hooks
    cjson.o(i.cJSON_ReplaceItemInArray) refers to cjson.o(i.get_array_item) for get_array_item
    cjson.o(i.cJSON_ReplaceItemInArray) refers to cjson.o(i.cJSON_ReplaceItemViaPointer) for cJSON_ReplaceItemViaPointer
    cjson.o(i.cJSON_ReplaceItemInObject) refers to cjson.o(i.replace_item_in_object) for replace_item_in_object
    cjson.o(i.cJSON_ReplaceItemInObjectCaseSensitive) refers to cjson.o(i.replace_item_in_object) for replace_item_in_object
    cjson.o(i.cJSON_ReplaceItemViaPointer) refers to cjson.o(i.cJSON_Delete) for cJSON_Delete
    cjson.o(i.cJSON_SetNumberHelper) refers to cdrcmple.o(.text) for __aeabi_cdrcmple
    cjson.o(i.cJSON_SetNumberHelper) refers to cdcmple.o(.text) for __aeabi_cdcmple
    cjson.o(i.cJSON_SetNumberHelper) refers to dfixi.o(.text) for __aeabi_d2iz
    cjson.o(i.cJSON_Version) refers to printfa.o(i.__0sprintf) for __2sprintf
    cjson.o(i.cJSON_Version) refers to cjson.o(.bss) for version
    cjson.o(i.cJSON_free) refers to cjson.o(.data) for global_hooks
    cjson.o(i.cJSON_malloc) refers to cjson.o(.data) for global_hooks
    cjson.o(i.cJSON_strdup) refers to strlen.o(.text) for strlen
    cjson.o(i.cJSON_strdup) refers to memcpya.o(.text) for __aeabi_memcpy
    cjson.o(i.case_insensitive_strcmp) refers to tolower.o(.text) for tolower
    cjson.o(i.create_reference) refers to cjson.o(i.cJSON_New_Item) for cJSON_New_Item
    cjson.o(i.create_reference) refers to memcpya.o(.text) for __aeabi_memcpy4
    cjson.o(i.ensure) refers to memcpya.o(.text) for __aeabi_memcpy
    cjson.o(i.get_object_item) refers to strcmp.o(.text) for strcmp
    cjson.o(i.get_object_item) refers to cjson.o(i.case_insensitive_strcmp) for case_insensitive_strcmp
    cjson.o(i.parse_array) refers to cjson.o(i.buffer_skip_whitespace) for buffer_skip_whitespace
    cjson.o(i.parse_array) refers to cjson.o(i.cJSON_New_Item) for cJSON_New_Item
    cjson.o(i.parse_array) refers to cjson.o(i.parse_value) for parse_value
    cjson.o(i.parse_array) refers to cjson.o(i.cJSON_Delete) for cJSON_Delete
    cjson.o(i.parse_number) refers to cjson.o(i.get_decimal_point) for get_decimal_point
    cjson.o(i.parse_number) refers to strtod.o(i.strtod) for strtod
    cjson.o(i.parse_number) refers to cdrcmple.o(.text) for __aeabi_cdrcmple
    cjson.o(i.parse_number) refers to cdcmple.o(.text) for __aeabi_cdcmple
    cjson.o(i.parse_number) refers to dfixi.o(.text) for __aeabi_d2iz
    cjson.o(i.parse_object) refers to cjson.o(i.buffer_skip_whitespace) for buffer_skip_whitespace
    cjson.o(i.parse_object) refers to cjson.o(i.cJSON_New_Item) for cJSON_New_Item
    cjson.o(i.parse_object) refers to cjson.o(i.parse_string) for parse_string
    cjson.o(i.parse_object) refers to cjson.o(i.parse_value) for parse_value
    cjson.o(i.parse_object) refers to cjson.o(i.cJSON_Delete) for cJSON_Delete
    cjson.o(i.parse_string) refers to cjson.o(i.utf16_literal_to_utf8) for utf16_literal_to_utf8
    cjson.o(i.parse_value) refers to strncmp.o(.text) for strncmp
    cjson.o(i.parse_value) refers to cjson.o(i.parse_string) for parse_string
    cjson.o(i.parse_value) refers to cjson.o(i.parse_number) for parse_number
    cjson.o(i.parse_value) refers to cjson.o(i.parse_array) for parse_array
    cjson.o(i.parse_value) refers to cjson.o(i.parse_object) for parse_object
    cjson.o(i.print) refers to memseta.o(.text) for __aeabi_memclr4
    cjson.o(i.print) refers to cjson.o(i.print_value) for print_value
    cjson.o(i.print) refers to cjson.o(i.update_offset) for update_offset
    cjson.o(i.print) refers to memcpya.o(.text) for __aeabi_memcpy
    cjson.o(i.print_array) refers to cjson.o(i.ensure) for ensure
    cjson.o(i.print_array) refers to cjson.o(i.print_value) for print_value
    cjson.o(i.print_array) refers to cjson.o(i.update_offset) for update_offset
    cjson.o(i.print_number) refers to scanf_fp.o(.text) for _scanf_real
    cjson.o(i.print_number) refers to cjson.o(i.get_decimal_point) for get_decimal_point
    cjson.o(i.print_number) refers to dmul.o(.text) for __aeabi_dmul
    cjson.o(i.print_number) refers to cdcmple.o(.text) for __aeabi_cdcmpeq
    cjson.o(i.print_number) refers to printfa.o(i.__0sprintf) for __2sprintf
    cjson.o(i.print_number) refers to __0sscanf.o(.text) for __0sscanf
    cjson.o(i.print_number) refers to cjson.o(i.ensure) for ensure
    cjson.o(i.print_object) refers to cjson.o(i.ensure) for ensure
    cjson.o(i.print_object) refers to cjson.o(i.print_string_ptr) for print_string_ptr
    cjson.o(i.print_object) refers to cjson.o(i.update_offset) for update_offset
    cjson.o(i.print_object) refers to cjson.o(i.print_value) for print_value
    cjson.o(i.print_string) refers to cjson.o(i.print_string_ptr) for print_string_ptr
    cjson.o(i.print_string_ptr) refers to cjson.o(i.ensure) for ensure
    cjson.o(i.print_string_ptr) refers to strcpy.o(.text) for strcpy
    cjson.o(i.print_string_ptr) refers to memcpya.o(.text) for __aeabi_memcpy
    cjson.o(i.print_string_ptr) refers to printfa.o(i.__0sprintf) for __2sprintf
    cjson.o(i.print_value) refers to cjson.o(i.ensure) for ensure
    cjson.o(i.print_value) refers to strcpy.o(.text) for strcpy
    cjson.o(i.print_value) refers to cjson.o(i.print_number) for print_number
    cjson.o(i.print_value) refers to strlen.o(.text) for strlen
    cjson.o(i.print_value) refers to memcpya.o(.text) for __aeabi_memcpy
    cjson.o(i.print_value) refers to cjson.o(i.print_string) for print_string
    cjson.o(i.print_value) refers to cjson.o(i.print_array) for print_array
    cjson.o(i.print_value) refers to cjson.o(i.print_object) for print_object
    cjson.o(i.replace_item_in_object) refers to cjson.o(i.cJSON_free) for cJSON_free
    cjson.o(i.replace_item_in_object) refers to cjson.o(i.cJSON_strdup) for cJSON_strdup
    cjson.o(i.replace_item_in_object) refers to cjson.o(i.get_object_item) for get_object_item
    cjson.o(i.replace_item_in_object) refers to cjson.o(i.cJSON_ReplaceItemViaPointer) for cJSON_ReplaceItemViaPointer
    cjson.o(i.replace_item_in_object) refers to cjson.o(.data) for global_hooks
    cjson.o(i.skip_utf8_bom) refers to strncmp.o(.text) for strncmp
    cjson.o(i.update_offset) refers to strlen.o(.text) for strlen
    cjson.o(i.utf16_literal_to_utf8) refers to cjson.o(i.parse_hex4) for parse_hex4
    cjson.o(.data) refers to malloc.o(i.mymalloc) for mymalloc
    cjson.o(.data) refers to malloc.o(i.myfree) for myfree
    cjson.o(.data) refers to malloc.o(i.myrealloc) for myrealloc
    strtod.o(i.__softfp_strtod) refers (Special) to iusefp.o(.text) for __I$use$fp
    strtod.o(i.__softfp_strtod) refers to strtod.o(.text) for __strtod_int
    strtod.o(i.strtod) refers (Special) to iusefp.o(.text) for __I$use$fp
    strtod.o(i.strtod) refers to strtod.o(.text) for __strtod_int
    entry.o(.ARM.Collect$$$$00000000) refers (Special) to entry10a.o(.ARM.Collect$$$$0000000D) for __rt_final_cpp
    entry.o(.ARM.Collect$$$$00000000) refers (Special) to entry11a.o(.ARM.Collect$$$$0000000F) for __rt_final_exit
    entry.o(.ARM.Collect$$$$00000000) refers (Special) to entry7b.o(.ARM.Collect$$$$00000008) for _main_clock
    entry.o(.ARM.Collect$$$$00000000) refers (Special) to entry8b.o(.ARM.Collect$$$$0000000A) for _main_cpp_init
    entry.o(.ARM.Collect$$$$00000000) refers (Special) to entry9a.o(.ARM.Collect$$$$0000000B) for _main_init
    entry.o(.ARM.Collect$$$$00000000) refers (Special) to entry5.o(.ARM.Collect$$$$00000004) for _main_scatterload
    entry.o(.ARM.Collect$$$$00000000) refers (Special) to entry2.o(.ARM.Collect$$$$00000001) for _main_stk
    printfb.o(i.__0fprintf$bare) refers to printfb.o(i._printf_core) for _printf_core
    printfb.o(i.__0fprintf$bare) refers to user_usart1.o(i.fputc) for fputc
    printfb.o(i.__0printf$bare) refers to printfb.o(i._printf_core) for _printf_core
    printfb.o(i.__0printf$bare) refers to user_usart1.o(i.fputc) for fputc
    printfb.o(i.__0printf$bare) refers to stdout.o(.data) for __stdout
    printfb.o(i.__0snprintf$bare) refers to printfb.o(i._printf_core) for _printf_core
    printfb.o(i.__0snprintf$bare) refers to printfb.o(i._snputc) for _snputc
    printfb.o(i.__0sprintf$bare) refers to printfb.o(i._printf_core) for _printf_core
    printfb.o(i.__0sprintf$bare) refers to printfb.o(i._sputc) for _sputc
    printfb.o(i.__0vfprintf$bare) refers to printfb.o(i._printf_core) for _printf_core
    printfb.o(i.__0vfprintf$bare) refers to user_usart1.o(i.fputc) for fputc
    printfb.o(i.__0vprintf$bare) refers to printfb.o(i._printf_core) for _printf_core
    printfb.o(i.__0vprintf$bare) refers to user_usart1.o(i.fputc) for fputc
    printfb.o(i.__0vprintf$bare) refers to stdout.o(.data) for __stdout
    printfb.o(i.__0vsnprintf$bare) refers to printfb.o(i._printf_core) for _printf_core
    printfb.o(i.__0vsnprintf$bare) refers to printfb.o(i._snputc) for _snputc
    printfb.o(i.__0vsprintf$bare) refers to printfb.o(i._printf_core) for _printf_core
    printfb.o(i.__0vsprintf$bare) refers to printfb.o(i._sputc) for _sputc
    printf0.o(i.__0fprintf$0) refers to printf0.o(i._printf_core) for _printf_core
    printf0.o(i.__0fprintf$0) refers to user_usart1.o(i.fputc) for fputc
    printf0.o(i.__0printf$0) refers to printf0.o(i._printf_core) for _printf_core
    printf0.o(i.__0printf$0) refers to user_usart1.o(i.fputc) for fputc
    printf0.o(i.__0printf$0) refers to stdout.o(.data) for __stdout
    printf0.o(i.__0snprintf$0) refers to printf0.o(i._printf_core) for _printf_core
    printf0.o(i.__0snprintf$0) refers to printf0.o(i._snputc) for _snputc
    printf0.o(i.__0sprintf$0) refers to printf0.o(i._printf_core) for _printf_core
    printf0.o(i.__0sprintf$0) refers to printf0.o(i._sputc) for _sputc
    printf0.o(i.__0vfprintf$0) refers to printf0.o(i._printf_core) for _printf_core
    printf0.o(i.__0vfprintf$0) refers to user_usart1.o(i.fputc) for fputc
    printf0.o(i.__0vprintf$0) refers to printf0.o(i._printf_core) for _printf_core
    printf0.o(i.__0vprintf$0) refers to user_usart1.o(i.fputc) for fputc
    printf0.o(i.__0vprintf$0) refers to stdout.o(.data) for __stdout
    printf0.o(i.__0vsnprintf$0) refers to printf0.o(i._printf_core) for _printf_core
    printf0.o(i.__0vsnprintf$0) refers to printf0.o(i._snputc) for _snputc
    printf0.o(i.__0vsprintf$0) refers to printf0.o(i._printf_core) for _printf_core
    printf0.o(i.__0vsprintf$0) refers to printf0.o(i._sputc) for _sputc
    printf1.o(i.__0fprintf$1) refers to printf1.o(i._printf_core) for _printf_core
    printf1.o(i.__0fprintf$1) refers to user_usart1.o(i.fputc) for fputc
    printf1.o(i.__0printf$1) refers to printf1.o(i._printf_core) for _printf_core
    printf1.o(i.__0printf$1) refers to user_usart1.o(i.fputc) for fputc
    printf1.o(i.__0printf$1) refers to stdout.o(.data) for __stdout
    printf1.o(i.__0snprintf$1) refers to printf1.o(i._printf_core) for _printf_core
    printf1.o(i.__0snprintf$1) refers to printf1.o(i._snputc) for _snputc
    printf1.o(i.__0sprintf$1) refers to printf1.o(i._printf_core) for _printf_core
    printf1.o(i.__0sprintf$1) refers to printf1.o(i._sputc) for _sputc
    printf1.o(i.__0vfprintf$1) refers to printf1.o(i._printf_core) for _printf_core
    printf1.o(i.__0vfprintf$1) refers to user_usart1.o(i.fputc) for fputc
    printf1.o(i.__0vprintf$1) refers to printf1.o(i._printf_core) for _printf_core
    printf1.o(i.__0vprintf$1) refers to user_usart1.o(i.fputc) for fputc
    printf1.o(i.__0vprintf$1) refers to stdout.o(.data) for __stdout
    printf1.o(i.__0vsnprintf$1) refers to printf1.o(i._printf_core) for _printf_core
    printf1.o(i.__0vsnprintf$1) refers to printf1.o(i._snputc) for _snputc
    printf1.o(i.__0vsprintf$1) refers to printf1.o(i._printf_core) for _printf_core
    printf1.o(i.__0vsprintf$1) refers to printf1.o(i._sputc) for _sputc
    printf1.o(i._printf_core) refers to uidiv.o(.text) for __aeabi_uidivmod
    printf2.o(i.__0fprintf$2) refers to printf2.o(i._printf_core) for _printf_core
    printf2.o(i.__0fprintf$2) refers to user_usart1.o(i.fputc) for fputc
    printf2.o(i.__0printf$2) refers to printf2.o(i._printf_core) for _printf_core
    printf2.o(i.__0printf$2) refers to user_usart1.o(i.fputc) for fputc
    printf2.o(i.__0printf$2) refers to stdout.o(.data) for __stdout
    printf2.o(i.__0snprintf$2) refers to printf2.o(i._printf_core) for _printf_core
    printf2.o(i.__0snprintf$2) refers to printf2.o(i._snputc) for _snputc
    printf2.o(i.__0sprintf$2) refers to printf2.o(i._printf_core) for _printf_core
    printf2.o(i.__0sprintf$2) refers to printf2.o(i._sputc) for _sputc
    printf2.o(i.__0vfprintf$2) refers to printf2.o(i._printf_core) for _printf_core
    printf2.o(i.__0vfprintf$2) refers to user_usart1.o(i.fputc) for fputc
    printf2.o(i.__0vprintf$2) refers to printf2.o(i._printf_core) for _printf_core
    printf2.o(i.__0vprintf$2) refers to user_usart1.o(i.fputc) for fputc
    printf2.o(i.__0vprintf$2) refers to stdout.o(.data) for __stdout
    printf2.o(i.__0vsnprintf$2) refers to printf2.o(i._printf_core) for _printf_core
    printf2.o(i.__0vsnprintf$2) refers to printf2.o(i._snputc) for _snputc
    printf2.o(i.__0vsprintf$2) refers to printf2.o(i._printf_core) for _printf_core
    printf2.o(i.__0vsprintf$2) refers to printf2.o(i._sputc) for _sputc
    printf3.o(i.__0fprintf$3) refers to printf3.o(i._printf_core) for _printf_core
    printf3.o(i.__0fprintf$3) refers to user_usart1.o(i.fputc) for fputc
    printf3.o(i.__0printf$3) refers to printf3.o(i._printf_core) for _printf_core
    printf3.o(i.__0printf$3) refers to user_usart1.o(i.fputc) for fputc
    printf3.o(i.__0printf$3) refers to stdout.o(.data) for __stdout
    printf3.o(i.__0snprintf$3) refers to printf3.o(i._printf_core) for _printf_core
    printf3.o(i.__0snprintf$3) refers to printf3.o(i._snputc) for _snputc
    printf3.o(i.__0sprintf$3) refers to printf3.o(i._printf_core) for _printf_core
    printf3.o(i.__0sprintf$3) refers to printf3.o(i._sputc) for _sputc
    printf3.o(i.__0vfprintf$3) refers to printf3.o(i._printf_core) for _printf_core
    printf3.o(i.__0vfprintf$3) refers to user_usart1.o(i.fputc) for fputc
    printf3.o(i.__0vprintf$3) refers to printf3.o(i._printf_core) for _printf_core
    printf3.o(i.__0vprintf$3) refers to user_usart1.o(i.fputc) for fputc
    printf3.o(i.__0vprintf$3) refers to stdout.o(.data) for __stdout
    printf3.o(i.__0vsnprintf$3) refers to printf3.o(i._printf_core) for _printf_core
    printf3.o(i.__0vsnprintf$3) refers to printf3.o(i._snputc) for _snputc
    printf3.o(i.__0vsprintf$3) refers to printf3.o(i._printf_core) for _printf_core
    printf3.o(i.__0vsprintf$3) refers to printf3.o(i._sputc) for _sputc
    printf3.o(i._printf_core) refers to uidiv.o(.text) for __aeabi_uidivmod
    printf4.o(i.__0fprintf$4) refers to printf4.o(i._printf_core) for _printf_core
    printf4.o(i.__0fprintf$4) refers to user_usart1.o(i.fputc) for fputc
    printf4.o(i.__0printf$4) refers to printf4.o(i._printf_core) for _printf_core
    printf4.o(i.__0printf$4) refers to user_usart1.o(i.fputc) for fputc
    printf4.o(i.__0printf$4) refers to stdout.o(.data) for __stdout
    printf4.o(i.__0snprintf$4) refers to printf4.o(i._printf_core) for _printf_core
    printf4.o(i.__0snprintf$4) refers to printf4.o(i._snputc) for _snputc
    printf4.o(i.__0sprintf$4) refers to printf4.o(i._printf_core) for _printf_core
    printf4.o(i.__0sprintf$4) refers to printf4.o(i._sputc) for _sputc
    printf4.o(i.__0vfprintf$4) refers to printf4.o(i._printf_core) for _printf_core
    printf4.o(i.__0vfprintf$4) refers to user_usart1.o(i.fputc) for fputc
    printf4.o(i.__0vprintf$4) refers to printf4.o(i._printf_core) for _printf_core
    printf4.o(i.__0vprintf$4) refers to user_usart1.o(i.fputc) for fputc
    printf4.o(i.__0vprintf$4) refers to stdout.o(.data) for __stdout
    printf4.o(i.__0vsnprintf$4) refers to printf4.o(i._printf_core) for _printf_core
    printf4.o(i.__0vsnprintf$4) refers to printf4.o(i._snputc) for _snputc
    printf4.o(i.__0vsprintf$4) refers to printf4.o(i._printf_core) for _printf_core
    printf4.o(i.__0vsprintf$4) refers to printf4.o(i._sputc) for _sputc
    printf4.o(i._printf_core) refers to uldiv.o(.text) for __aeabi_uldivmod
    printf5.o(i.__0fprintf$5) refers to printf5.o(i._printf_core) for _printf_core
    printf5.o(i.__0fprintf$5) refers to user_usart1.o(i.fputc) for fputc
    printf5.o(i.__0printf$5) refers to printf5.o(i._printf_core) for _printf_core
    printf5.o(i.__0printf$5) refers to user_usart1.o(i.fputc) for fputc
    printf5.o(i.__0printf$5) refers to stdout.o(.data) for __stdout
    printf5.o(i.__0snprintf$5) refers to printf5.o(i._printf_core) for _printf_core
    printf5.o(i.__0snprintf$5) refers to printf5.o(i._snputc) for _snputc
    printf5.o(i.__0sprintf$5) refers to printf5.o(i._printf_core) for _printf_core
    printf5.o(i.__0sprintf$5) refers to printf5.o(i._sputc) for _sputc
    printf5.o(i.__0vfprintf$5) refers to printf5.o(i._printf_core) for _printf_core
    printf5.o(i.__0vfprintf$5) refers to user_usart1.o(i.fputc) for fputc
    printf5.o(i.__0vprintf$5) refers to printf5.o(i._printf_core) for _printf_core
    printf5.o(i.__0vprintf$5) refers to user_usart1.o(i.fputc) for fputc
    printf5.o(i.__0vprintf$5) refers to stdout.o(.data) for __stdout
    printf5.o(i.__0vsnprintf$5) refers to printf5.o(i._printf_core) for _printf_core
    printf5.o(i.__0vsnprintf$5) refers to printf5.o(i._snputc) for _snputc
    printf5.o(i.__0vsprintf$5) refers to printf5.o(i._printf_core) for _printf_core
    printf5.o(i.__0vsprintf$5) refers to printf5.o(i._sputc) for _sputc
    printf5.o(i._printf_core) refers to uldiv.o(.text) for __aeabi_uldivmod
    printf6.o(i.__0fprintf$6) refers to printf6.o(i._printf_core) for _printf_core
    printf6.o(i.__0fprintf$6) refers to user_usart1.o(i.fputc) for fputc
    printf6.o(i.__0printf$6) refers to printf6.o(i._printf_core) for _printf_core
    printf6.o(i.__0printf$6) refers to user_usart1.o(i.fputc) for fputc
    printf6.o(i.__0printf$6) refers to stdout.o(.data) for __stdout
    printf6.o(i.__0snprintf$6) refers to printf6.o(i._printf_core) for _printf_core
    printf6.o(i.__0snprintf$6) refers to printf6.o(i._snputc) for _snputc
    printf6.o(i.__0sprintf$6) refers to printf6.o(i._printf_core) for _printf_core
    printf6.o(i.__0sprintf$6) refers to printf6.o(i._sputc) for _sputc
    printf6.o(i.__0vfprintf$6) refers to printf6.o(i._printf_core) for _printf_core
    printf6.o(i.__0vfprintf$6) refers to user_usart1.o(i.fputc) for fputc
    printf6.o(i.__0vprintf$6) refers to printf6.o(i._printf_core) for _printf_core
    printf6.o(i.__0vprintf$6) refers to user_usart1.o(i.fputc) for fputc
    printf6.o(i.__0vprintf$6) refers to stdout.o(.data) for __stdout
    printf6.o(i.__0vsnprintf$6) refers to printf6.o(i._printf_core) for _printf_core
    printf6.o(i.__0vsnprintf$6) refers to printf6.o(i._snputc) for _snputc
    printf6.o(i.__0vsprintf$6) refers to printf6.o(i._printf_core) for _printf_core
    printf6.o(i.__0vsprintf$6) refers to printf6.o(i._sputc) for _sputc
    printf6.o(i._printf_core) refers to printf6.o(i._printf_pre_padding) for _printf_pre_padding
    printf6.o(i._printf_core) refers to uidiv.o(.text) for __aeabi_uidivmod
    printf6.o(i._printf_core) refers to printf6.o(i._printf_post_padding) for _printf_post_padding
    printf7.o(i.__0fprintf$7) refers to printf7.o(i._printf_core) for _printf_core
    printf7.o(i.__0fprintf$7) refers to user_usart1.o(i.fputc) for fputc
    printf7.o(i.__0printf$7) refers to printf7.o(i._printf_core) for _printf_core
    printf7.o(i.__0printf$7) refers to user_usart1.o(i.fputc) for fputc
    printf7.o(i.__0printf$7) refers to stdout.o(.data) for __stdout
    printf7.o(i.__0snprintf$7) refers to printf7.o(i._printf_core) for _printf_core
    printf7.o(i.__0snprintf$7) refers to printf7.o(i._snputc) for _snputc
    printf7.o(i.__0sprintf$7) refers to printf7.o(i._printf_core) for _printf_core
    printf7.o(i.__0sprintf$7) refers to printf7.o(i._sputc) for _sputc
    printf7.o(i.__0vfprintf$7) refers to printf7.o(i._printf_core) for _printf_core
    printf7.o(i.__0vfprintf$7) refers to user_usart1.o(i.fputc) for fputc
    printf7.o(i.__0vprintf$7) refers to printf7.o(i._printf_core) for _printf_core
    printf7.o(i.__0vprintf$7) refers to user_usart1.o(i.fputc) for fputc
    printf7.o(i.__0vprintf$7) refers to stdout.o(.data) for __stdout
    printf7.o(i.__0vsnprintf$7) refers to printf7.o(i._printf_core) for _printf_core
    printf7.o(i.__0vsnprintf$7) refers to printf7.o(i._snputc) for _snputc
    printf7.o(i.__0vsprintf$7) refers to printf7.o(i._printf_core) for _printf_core
    printf7.o(i.__0vsprintf$7) refers to printf7.o(i._sputc) for _sputc
    printf7.o(i._printf_core) refers to printf7.o(i._printf_pre_padding) for _printf_pre_padding
    printf7.o(i._printf_core) refers to uldiv.o(.text) for __aeabi_uldivmod
    printf7.o(i._printf_core) refers to printf7.o(i._printf_post_padding) for _printf_post_padding
    printf8.o(i.__0fprintf$8) refers to printf8.o(i._printf_core) for _printf_core
    printf8.o(i.__0fprintf$8) refers to user_usart1.o(i.fputc) for fputc
    printf8.o(i.__0printf$8) refers to printf8.o(i._printf_core) for _printf_core
    printf8.o(i.__0printf$8) refers to user_usart1.o(i.fputc) for fputc
    printf8.o(i.__0printf$8) refers to stdout.o(.data) for __stdout
    printf8.o(i.__0snprintf$8) refers to printf8.o(i._printf_core) for _printf_core
    printf8.o(i.__0snprintf$8) refers to printf8.o(i._snputc) for _snputc
    printf8.o(i.__0sprintf$8) refers to printf8.o(i._printf_core) for _printf_core
    printf8.o(i.__0sprintf$8) refers to printf8.o(i._sputc) for _sputc
    printf8.o(i.__0vfprintf$8) refers to printf8.o(i._printf_core) for _printf_core
    printf8.o(i.__0vfprintf$8) refers to user_usart1.o(i.fputc) for fputc
    printf8.o(i.__0vprintf$8) refers to printf8.o(i._printf_core) for _printf_core
    printf8.o(i.__0vprintf$8) refers to user_usart1.o(i.fputc) for fputc
    printf8.o(i.__0vprintf$8) refers to stdout.o(.data) for __stdout
    printf8.o(i.__0vsnprintf$8) refers to printf8.o(i._printf_core) for _printf_core
    printf8.o(i.__0vsnprintf$8) refers to printf8.o(i._snputc) for _snputc
    printf8.o(i.__0vsprintf$8) refers to printf8.o(i._printf_core) for _printf_core
    printf8.o(i.__0vsprintf$8) refers to printf8.o(i._sputc) for _sputc
    printf8.o(i._printf_core) refers to printf8.o(i._printf_pre_padding) for _printf_pre_padding
    printf8.o(i._printf_core) refers to uldiv.o(.text) for __aeabi_uldivmod
    printf8.o(i._printf_core) refers to printf8.o(i._printf_post_padding) for _printf_post_padding
    printfa.o(i.__0fprintf) refers (Special) to iusefp.o(.text) for __I$use$fp
    printfa.o(i.__0fprintf) refers to printfa.o(i._printf_core) for _printf_core
    printfa.o(i.__0fprintf) refers to user_usart1.o(i.fputc) for fputc
    printfa.o(i.__0printf) refers (Special) to iusefp.o(.text) for __I$use$fp
    printfa.o(i.__0printf) refers to printfa.o(i._printf_core) for _printf_core
    printfa.o(i.__0printf) refers to user_usart1.o(i.fputc) for fputc
    printfa.o(i.__0printf) refers to stdout.o(.data) for __stdout
    printfa.o(i.__0snprintf) refers (Special) to iusefp.o(.text) for __I$use$fp
    printfa.o(i.__0snprintf) refers to printfa.o(i._printf_core) for _printf_core
    printfa.o(i.__0snprintf) refers to printfa.o(i._snputc) for _snputc
    printfa.o(i.__0sprintf) refers (Special) to iusefp.o(.text) for __I$use$fp
    printfa.o(i.__0sprintf) refers to printfa.o(i._printf_core) for _printf_core
    printfa.o(i.__0sprintf) refers to printfa.o(i._sputc) for _sputc
    printfa.o(i.__0vfprintf) refers (Special) to iusefp.o(.text) for __I$use$fp
    printfa.o(i.__0vfprintf) refers to printfa.o(i._printf_core) for _printf_core
    printfa.o(i.__0vfprintf) refers to user_usart1.o(i.fputc) for fputc
    printfa.o(i.__0vprintf) refers (Special) to iusefp.o(.text) for __I$use$fp
    printfa.o(i.__0vprintf) refers to printfa.o(i._printf_core) for _printf_core
    printfa.o(i.__0vprintf) refers to user_usart1.o(i.fputc) for fputc
    printfa.o(i.__0vprintf) refers to stdout.o(.data) for __stdout
    printfa.o(i.__0vsnprintf) refers (Special) to iusefp.o(.text) for __I$use$fp
    printfa.o(i.__0vsnprintf) refers to printfa.o(i._printf_core) for _printf_core
    printfa.o(i.__0vsnprintf) refers to printfa.o(i._snputc) for _snputc
    printfa.o(i.__0vsprintf) refers (Special) to iusefp.o(.text) for __I$use$fp
    printfa.o(i.__0vsprintf) refers to printfa.o(i._printf_core) for _printf_core
    printfa.o(i.__0vsprintf) refers to printfa.o(i._sputc) for _sputc
    printfa.o(i._fp_digits) refers (Special) to iusefp.o(.text) for __I$use$fp
    printfa.o(i._fp_digits) refers to dmul.o(.text) for __aeabi_dmul
    printfa.o(i._fp_digits) refers to ddiv.o(.text) for __aeabi_ddiv
    printfa.o(i._fp_digits) refers to cdrcmple.o(.text) for __aeabi_cdrcmple
    printfa.o(i._fp_digits) refers to dadd.o(.text) for __aeabi_dadd
    printfa.o(i._fp_digits) refers to dfixul.o(.text) for __aeabi_d2ulz
    printfa.o(i._fp_digits) refers to uldiv.o(.text) for __aeabi_uldivmod
    printfa.o(i._printf_core) refers (Special) to iusefp.o(.text) for __I$use$fp
    printfa.o(i._printf_core) refers to printfa.o(i._printf_pre_padding) for _printf_pre_padding
    printfa.o(i._printf_core) refers to uldiv.o(.text) for __aeabi_uldivmod
    printfa.o(i._printf_core) refers to printfa.o(i._printf_post_padding) for _printf_post_padding
    printfa.o(i._printf_core) refers to printfa.o(i._fp_digits) for _fp_digits
    printfa.o(i._printf_core) refers to uidiv.o(.text) for __aeabi_uidivmod
    printfa.o(i._printf_post_padding) refers (Special) to iusefp.o(.text) for __I$use$fp
    printfa.o(i._printf_pre_padding) refers (Special) to iusefp.o(.text) for __I$use$fp
    printfa.o(i._snputc) refers (Special) to iusefp.o(.text) for __I$use$fp
    printfa.o(i._sputc) refers (Special) to iusefp.o(.text) for __I$use$fp
    __0sscanf.o(.text) refers to scanf_char.o(.text) for __vfscanf_char
    __0sscanf.o(.text) refers to _sgetc.o(.text) for _sgetc
    scanf_fp.o(.text) refers (Special) to iusefp.o(.text) for __I$use$fp
    scanf_fp.o(.text) refers to dfltul.o(.text) for __aeabi_ul2d
    scanf_fp.o(.text) refers to dmul.o(.text) for __aeabi_dmul
    scanf_fp.o(.text) refers to ddiv.o(.text) for __aeabi_ddiv
    scanf_fp.o(.text) refers to scanf_fp.o(i._is_digit) for _is_digit
    scanf_fp.o(.text) refers to d2f.o(.text) for __aeabi_d2f
    atoi.o(.text) refers to errno.o(i.__aeabi_errno_addr) for __aeabi_errno_addr
    atoi.o(.text) refers to strtol.o(.text) for strtol
    atol.o(.text) refers to errno.o(i.__aeabi_errno_addr) for __aeabi_errno_addr
    atol.o(.text) refers to strtol.o(.text) for strtol
    dmul.o(.text) refers (Special) to iusefp.o(.text) for __I$use$fp
    dmul.o(.text) refers to depilogue.o(.text) for _double_epilogue
    dflti.o(.text) refers (Special) to iusefp.o(.text) for __I$use$fp
    dflti.o(.text) refers to depilogue.o(.text) for _double_epilogue
    dfixi.o(.text) refers (Special) to iusefp.o(.text) for __I$use$fp
    dfixi.o(.text) refers to llushr.o(.text) for __aeabi_llsr
    f2d.o(.text) refers (Special) to iusefp.o(.text) for __I$use$fp
    cdcmple.o(.text) refers (Special) to iusefp.o(.text) for __I$use$fp
    cdrcmple.o(.text) refers (Special) to iusefp.o(.text) for __I$use$fp
    entry2.o(.ARM.Collect$$$$00000001) refers to entry2.o(.ARM.Collect$$$$00002712) for __lit__00000000
    entry2.o(.ARM.Collect$$$$00002712) refers to startup_stm32f10x_hd.o(STACK) for __initial_sp
    entry2.o(__vectab_stack_and_reset_area) refers to startup_stm32f10x_hd.o(STACK) for __initial_sp
    entry2.o(__vectab_stack_and_reset_area) refers to entry.o(.ARM.Collect$$$$00000000) for __main
    entry5.o(.ARM.Collect$$$$00000004) refers to init.o(.text) for __scatterload
    entry9a.o(.ARM.Collect$$$$0000000B) refers to main.o(i.main) for main
    entry9b.o(.ARM.Collect$$$$0000000C) refers to main.o(i.main) for main
    uldiv.o(.text) refers to llushr.o(.text) for __aeabi_llsr
    uldiv.o(.text) refers to llshl.o(.text) for __aeabi_llsl
    errno.o(i.__aeabi_errno_addr) refers to errno.o(.data) for .data
    errno.o(i.__read_errno) refers to errno.o(.data) for .data
    errno.o(i.__set_errno) refers to errno.o(.data) for .data
    scanf_char.o(.text) refers to _scanf.o(.text) for __vfscanf
    scanf_char.o(.text) refers to isspace_o.o(.text) for isspace
    strtod.o(.text) refers to scanf_fp.o(.text) for _scanf_real
    strtod.o(.text) refers to _sgetc.o(.text) for _sgetc
    strtod.o(.text) refers to isspace_o.o(.text) for isspace
    strtol.o(.text) refers to ctype_o.o(.text) for __rt_ctype_table
    strtol.o(.text) refers to _strtoul.o(.text) for _strtoul
    strtol.o(.text) refers to errno.o(i.__aeabi_errno_addr) for __aeabi_errno_addr
    depilogue.o(.text) refers to llshl.o(.text) for __aeabi_llsl
    depilogue.o(.text) refers to llushr.o(.text) for __aeabi_llsr
    dadd.o(.text) refers to llshl.o(.text) for __aeabi_llsl
    dadd.o(.text) refers to llsshr.o(.text) for __aeabi_lasr
    dadd.o(.text) refers to depilogue.o(.text) for _double_epilogue
    ddiv.o(.text) refers to depilogue.o(.text) for _double_round
    dfltul.o(.text) refers to depilogue.o(.text) for _double_epilogue
    dfixul.o(.text) refers to llushr.o(.text) for __aeabi_llsr
    dfixul.o(.text) refers to llshl.o(.text) for __aeabi_llsl
    d2f.o(.text) refers to fepilogue.o(.text) for _float_round
    init.o(.text) refers to entry5.o(.ARM.Collect$$$$00000004) for __main_after_scatterload
    isspace_c.o(.text) refers to ctype_c.o(.text) for __ctype_lookup
    ctype_o.o(.text) refers to ctype_o.o(.constdata) for .constdata
    ctype_o.o(.constdata) refers to ctype_o.o(.constdata) for __ctype_table
    isalnum_o.o(.text) refers to ctype_o.o(.text) for __rt_ctype_table
    isalpha_o.o(.text) refers to ctype_o.o(.text) for __rt_ctype_table
    isblank_o.o(.text) refers to ctype_o.o(.constdata) for __ctype_table
    iscntrl_o.o(.text) refers to ctype_o.o(.text) for __rt_ctype_table
    isdigit_o.o(.text) refers to ctype_o.o(.text) for __rt_ctype_table
    isgraph_o.o(.text) refers to ctype_o.o(.text) for __rt_ctype_table
    islower_o.o(.text) refers to ctype_o.o(.text) for __rt_ctype_table
    isprint_o.o(.text) refers to ctype_o.o(.text) for __rt_ctype_table
    ispunct_o.o(.text) refers to ctype_o.o(.text) for __rt_ctype_table
    isspace_o.o(.text) refers to ctype_o.o(.text) for __rt_ctype_table
    isupper_o.o(.text) refers to ctype_o.o(.text) for __rt_ctype_table
    isxdigit_o.o(.text) refers to ctype_o.o(.text) for __rt_ctype_table
    _scanf.o(.text) refers (Weak) to scanf_fp.o(.text) for _scanf_real
    _strtoul.o(.text) refers to _chval.o(.text) for _chval
    _strtoul.o(.text) refers to errno.o(i.__aeabi_errno_addr) for __aeabi_errno_addr
    ctype_c.o(.text) refers to ctype_c.o(.constdata) for .constdata
    scanf_fp.o(i._is_digit) refers (Special) to iusefp.o(.text) for __I$use$fp


==============================================================================

Removing Unused input sections from the image.

    Removing startup_stm32f10x_hd.o(HEAP), (0 bytes).
    Removing main.o(i.crc16_update), (32 bytes).
    Removing stm32f10x_it.o(i.PendSV_Handler), (2 bytes).
    Removing stm32f10x_it.o(i.crc16_update), (32 bytes).
    Removing user_flash.o(i.flash_embedded_read), (80 bytes).
    Removing user_flash.o(i.flash_embedded_write), (156 bytes).
    Removing user_usart1.o(i.NVIC_Configuration), (32 bytes).
    Removing user_usart1.o(i.usart1_config), (144 bytes).
    Removing sim7600.o(i.get_mqtt_connect_status_event), (1276 bytes).
    Removing sim7600.o(i.sim76000_reset), (360 bytes).
    Removing sim7600.o(i.sim76000_reset_pin_high), (20 bytes).
    Removing sim7600.o(i.sim7600_reset_pin_init), (56 bytes).
    Removing sim7600.o(i.sim7600_reset_pin_low), (20 bytes).
    Removing sim7600.o(i.sim7600_signal_check), (2 bytes).
    Removing sim7600.o(i.string_get_long), (120 bytes).
    Removing sim7600.o(i.string_get_string), (118 bytes).
    Removing sim7600.o(i.user_set_module_restart), (12 bytes).
    Removing user_sim7600_task.o(i.crc16_update), (32 bytes).
    Removing user_sim7600_task.o(i.sim7600_usart_sendbytes), (24 bytes).
    Removing misc.o(i.NVIC_PriorityGroupConfig), (20 bytes).
    Removing misc.o(i.NVIC_SetVectorTable), (20 bytes).
    Removing misc.o(i.NVIC_SystemLPConfig), (32 bytes).
    Removing misc.o(i.SysTick_CLKSourceConfig), (40 bytes).
    Removing stm32f10x_crc.o(i.CRC_CalcBlockCRC), (36 bytes).
    Removing stm32f10x_crc.o(i.CRC_CalcCRC), (16 bytes).
    Removing stm32f10x_crc.o(i.CRC_GetCRC), (12 bytes).
    Removing stm32f10x_crc.o(i.CRC_GetIDRegister), (12 bytes).
    Removing stm32f10x_crc.o(i.CRC_ResetDR), (12 bytes).
    Removing stm32f10x_crc.o(i.CRC_SetIDRegister), (12 bytes).
    Removing stm32f10x_flash.o(i.FLASH_ClearFlag), (12 bytes).
    Removing stm32f10x_flash.o(i.FLASH_EnableWriteProtection), (196 bytes).
    Removing stm32f10x_flash.o(i.FLASH_EraseAllPages), (76 bytes).
    Removing stm32f10x_flash.o(i.FLASH_EraseOptionBytes), (160 bytes).
    Removing stm32f10x_flash.o(i.FLASH_ErasePage), (80 bytes).
    Removing stm32f10x_flash.o(i.FLASH_GetFlagStatus), (48 bytes).
    Removing stm32f10x_flash.o(i.FLASH_GetPrefetchBufferStatus), (24 bytes).
    Removing stm32f10x_flash.o(i.FLASH_GetReadOutProtectionStatus), (24 bytes).
    Removing stm32f10x_flash.o(i.FLASH_GetStatus), (52 bytes).
    Removing stm32f10x_flash.o(i.FLASH_GetUserOptionByte), (12 bytes).
    Removing stm32f10x_flash.o(i.FLASH_GetWriteProtectionOptionByte), (12 bytes).
    Removing stm32f10x_flash.o(i.FLASH_HalfCycleAccessCmd), (28 bytes).
    Removing stm32f10x_flash.o(i.FLASH_ITConfig), (32 bytes).
    Removing stm32f10x_flash.o(i.FLASH_Lock), (20 bytes).
    Removing stm32f10x_flash.o(i.FLASH_PrefetchBufferCmd), (28 bytes).
    Removing stm32f10x_flash.o(i.FLASH_ProgramHalfWord), (68 bytes).
    Removing stm32f10x_flash.o(i.FLASH_ProgramOptionByteData), (84 bytes).
    Removing stm32f10x_flash.o(i.FLASH_ProgramWord), (104 bytes).
    Removing stm32f10x_flash.o(i.FLASH_ReadOutProtection), (172 bytes).
    Removing stm32f10x_flash.o(i.FLASH_SetLatency), (24 bytes).
    Removing stm32f10x_flash.o(i.FLASH_Unlock), (24 bytes).
    Removing stm32f10x_flash.o(i.FLASH_UserOptionByteConfig), (108 bytes).
    Removing stm32f10x_flash.o(i.FLASH_WaitForLastOperation), (42 bytes).
    Removing stm32f10x_flash.o(i.delay), (26 bytes).
    Removing stm32f10x_gpio.o(i.GPIO_AFIODeInit), (20 bytes).
    Removing stm32f10x_gpio.o(i.GPIO_DeInit), (196 bytes).
    Removing stm32f10x_gpio.o(i.GPIO_EXTILineConfig), (64 bytes).
    Removing stm32f10x_gpio.o(i.GPIO_EventOutputCmd), (12 bytes).
    Removing stm32f10x_gpio.o(i.GPIO_EventOutputConfig), (32 bytes).
    Removing stm32f10x_gpio.o(i.GPIO_PinLockConfig), (18 bytes).
    Removing stm32f10x_gpio.o(i.GPIO_PinRemapConfig), (112 bytes).
    Removing stm32f10x_gpio.o(i.GPIO_ReadInputData), (8 bytes).
    Removing stm32f10x_gpio.o(i.GPIO_ReadInputDataBit), (18 bytes).
    Removing stm32f10x_gpio.o(i.GPIO_ReadOutputData), (8 bytes).
    Removing stm32f10x_gpio.o(i.GPIO_ReadOutputDataBit), (18 bytes).
    Removing stm32f10x_gpio.o(i.GPIO_StructInit), (16 bytes).
    Removing stm32f10x_gpio.o(i.GPIO_Write), (4 bytes).
    Removing stm32f10x_gpio.o(i.GPIO_WriteBit), (10 bytes).
    Removing stm32f10x_usart.o(i.USART_ClearFlag), (6 bytes).
    Removing stm32f10x_usart.o(i.USART_ClockInit), (34 bytes).
    Removing stm32f10x_usart.o(i.USART_ClockStructInit), (12 bytes).
    Removing stm32f10x_usart.o(i.USART_DMACmd), (18 bytes).
    Removing stm32f10x_usart.o(i.USART_DeInit), (156 bytes).
    Removing stm32f10x_usart.o(i.USART_HalfDuplexCmd), (24 bytes).
    Removing stm32f10x_usart.o(i.USART_IrDACmd), (24 bytes).
    Removing stm32f10x_usart.o(i.USART_IrDAConfig), (18 bytes).
    Removing stm32f10x_usart.o(i.USART_LINBreakDetectLengthConfig), (18 bytes).
    Removing stm32f10x_usart.o(i.USART_LINCmd), (24 bytes).
    Removing stm32f10x_usart.o(i.USART_ReceiverWakeUpCmd), (24 bytes).
    Removing stm32f10x_usart.o(i.USART_SendBreak), (10 bytes).
    Removing stm32f10x_usart.o(i.USART_SetAddress), (18 bytes).
    Removing stm32f10x_usart.o(i.USART_SetGuardTime), (16 bytes).
    Removing stm32f10x_usart.o(i.USART_SetPrescaler), (16 bytes).
    Removing stm32f10x_usart.o(i.USART_SmartCardCmd), (24 bytes).
    Removing stm32f10x_usart.o(i.USART_SmartCardNACKCmd), (24 bytes).
    Removing stm32f10x_usart.o(i.USART_StructInit), (24 bytes).
    Removing stm32f10x_usart.o(i.USART_WakeUpConfig), (18 bytes).
    Removing stm32f10x_rcc.o(i.RCC_ADCCLKConfig), (24 bytes).
    Removing stm32f10x_rcc.o(i.RCC_AHBPeriphClockCmd), (32 bytes).
    Removing stm32f10x_rcc.o(i.RCC_APB1PeriphResetCmd), (32 bytes).
    Removing stm32f10x_rcc.o(i.RCC_APB2PeriphResetCmd), (32 bytes).
    Removing stm32f10x_rcc.o(i.RCC_AdjustHSICalibrationValue), (24 bytes).
    Removing stm32f10x_rcc.o(i.RCC_BackupResetCmd), (12 bytes).
    Removing stm32f10x_rcc.o(i.RCC_ClearFlag), (20 bytes).
    Removing stm32f10x_rcc.o(i.RCC_ClearITPendingBit), (12 bytes).
    Removing stm32f10x_rcc.o(i.RCC_ClockSecuritySystemCmd), (12 bytes).
    Removing stm32f10x_rcc.o(i.RCC_DeInit), (76 bytes).
    Removing stm32f10x_rcc.o(i.RCC_GetFlagStatus), (60 bytes).
    Removing stm32f10x_rcc.o(i.RCC_GetITStatus), (24 bytes).
    Removing stm32f10x_rcc.o(i.RCC_GetSYSCLKSource), (16 bytes).
    Removing stm32f10x_rcc.o(i.RCC_HCLKConfig), (24 bytes).
    Removing stm32f10x_rcc.o(i.RCC_HSEConfig), (76 bytes).
    Removing stm32f10x_rcc.o(i.RCC_HSICmd), (12 bytes).
    Removing stm32f10x_rcc.o(i.RCC_ITConfig), (32 bytes).
    Removing stm32f10x_rcc.o(i.RCC_LSEConfig), (52 bytes).
    Removing stm32f10x_rcc.o(i.RCC_LSICmd), (12 bytes).
    Removing stm32f10x_rcc.o(i.RCC_MCOConfig), (12 bytes).
    Removing stm32f10x_rcc.o(i.RCC_PCLK1Config), (24 bytes).
    Removing stm32f10x_rcc.o(i.RCC_PCLK2Config), (24 bytes).
    Removing stm32f10x_rcc.o(i.RCC_PLLCmd), (12 bytes).
    Removing stm32f10x_rcc.o(i.RCC_PLLConfig), (28 bytes).
    Removing stm32f10x_rcc.o(i.RCC_RTCCLKCmd), (12 bytes).
    Removing stm32f10x_rcc.o(i.RCC_RTCCLKConfig), (16 bytes).
    Removing stm32f10x_rcc.o(i.RCC_SYSCLKConfig), (24 bytes).
    Removing stm32f10x_rcc.o(i.RCC_USBCLKConfig), (12 bytes).
    Removing stm32f10x_rcc.o(i.RCC_WaitForHSEStartUp), (54 bytes).
    Removing core_cm3.o(.emb_text), (32 bytes).
    Removing bsp.o(i.crc16_update), (32 bytes).
    Removing app.o(i.crc16_update), (32 bytes).
    Removing os_core.o(i.OSEventNameGet), (132 bytes).
    Removing os_core.o(i.OSEventNameSet), (144 bytes).
    Removing os_core.o(i.OSSchedLock), (64 bytes).
    Removing os_core.o(i.OSSchedUnlock), (96 bytes).
    Removing os_core.o(i.OSStatInit), (76 bytes).
    Removing os_core.o(i.OSVersion), (6 bytes).
    Removing os_core.o(i.OS_Dummy), (2 bytes).
    Removing os_core.o(i.OS_MemCopy), (20 bytes).
    Removing os_mutex.o(i.OSMutexAccept), (164 bytes).
    Removing os_mutex.o(i.OSMutexDel), (312 bytes).
    Removing os_mutex.o(i.OSMutexQuery), (124 bytes).
    Removing os_q.o(i.OSQAccept), (106 bytes).
    Removing os_q.o(i.OSQDel), (284 bytes).
    Removing os_q.o(i.OSQFlush), (52 bytes).
    Removing os_q.o(i.OSQPendAbort), (144 bytes).
    Removing os_q.o(i.OSQPostFront), (122 bytes).
    Removing os_q.o(i.OSQPostOpt), (188 bytes).
    Removing os_sem.o(i.OSSemAccept), (50 bytes).
    Removing os_sem.o(i.OSSemCreate), (88 bytes).
    Removing os_sem.o(i.OSSemDel), (244 bytes).
    Removing os_sem.o(i.OSSemPend), (252 bytes).
    Removing os_sem.o(i.OSSemPendAbort), (144 bytes).
    Removing os_sem.o(i.OSSemPost), (94 bytes).
    Removing os_sem.o(i.OSSemQuery), (94 bytes).
    Removing os_sem.o(i.OSSemSet), (80 bytes).
    Removing os_task.o(i.OSTaskChangePrio), (364 bytes).
    Removing os_task.o(i.OSTaskDel), (344 bytes).
    Removing os_task.o(i.OSTaskDelReq), (120 bytes).
    Removing os_task.o(i.OSTaskNameGet), (160 bytes).
    Removing os_task.o(i.OSTaskQuery), (108 bytes).
    Removing os_task.o(i.OSTaskResume), (180 bytes).
    Removing os_time.o(i.OSTimeDlyResume), (180 bytes).
    Removing os_time.o(i.OSTimeSet), (28 bytes).
    Removing os_cpu_c.o(i.OSTaskDelHook), (2 bytes).
    Removing os_dbg.o(.constdata), (2 bytes).
    Removing modbus_master.o(i.ModbusMaster_ModbusMasterTransaction), (1380 bytes).
    Removing modbus_master.o(i.ModbusMaster_available), (24 bytes).
    Removing modbus_master.o(i.ModbusMaster_begin), (28 bytes).
    Removing modbus_master.o(i.ModbusMaster_beginTransmission), (28 bytes).
    Removing modbus_master.o(i.ModbusMaster_clearResponseBuffer), (28 bytes).
    Removing modbus_master.o(i.ModbusMaster_clearTransmitBuffer), (28 bytes).
    Removing modbus_master.o(i.ModbusMaster_getResponseBuffer), (24 bytes).
    Removing modbus_master.o(i.ModbusMaster_maskWriteRegister), (48 bytes).
    Removing modbus_master.o(i.ModbusMaster_readCoils), (40 bytes).
    Removing modbus_master.o(i.ModbusMaster_readDiscreteInputs), (40 bytes).
    Removing modbus_master.o(i.ModbusMaster_readHoldingRegisters), (40 bytes).
    Removing modbus_master.o(i.ModbusMaster_readInputRegisters), (40 bytes).
    Removing modbus_master.o(i.ModbusMaster_readWriteMultipleRegisters), (68 bytes).
    Removing modbus_master.o(i.ModbusMaster_receive), (52 bytes).
    Removing modbus_master.o(i.ModbusMaster_requestFrom), (32 bytes).
    Removing modbus_master.o(i.ModbusMaster_send16), (52 bytes).
    Removing modbus_master.o(i.ModbusMaster_send32), (26 bytes).
    Removing modbus_master.o(i.ModbusMaster_send8), (12 bytes).
    Removing modbus_master.o(i.ModbusMaster_sendBit), (140 bytes).
    Removing modbus_master.o(i.ModbusMaster_setTransmitBuffer), (24 bytes).
    Removing modbus_master.o(i.ModbusMaster_writeMultipleCoils), (40 bytes).
    Removing modbus_master.o(i.ModbusMaster_writeMultipleRegisters), (40 bytes).
    Removing modbus_master.o(i.ModbusMaster_writeSingleCoil), (52 bytes).
    Removing modbus_master.o(i.ModbusMaster_writeSingleRegister), (52 bytes).
    Removing modbus_master.o(i.crc16_update), (32 bytes).
    Removing modbus_master.o(i.highByte), (6 bytes).
    Removing modbus_master.o(i.lowByte), (6 bytes).
    Removing modbus_master.o(i.word), (10 bytes).
    Removing modbus_master.o(.bss), (188 bytes).
    Removing modbus_master.o(.data), (40 bytes).
    Removing ringbuffer.o(i.rbGetCount), (24 bytes).
    Removing ringbuffer.o(i.rbIsFull), (32 bytes).
    Removing trans_recieve_buff_control.o(i.Modbus_Master_GetByte), (20 bytes).
    Removing trans_recieve_buff_control.o(i.Modbus_Master_Millis), (8 bytes).
    Removing trans_recieve_buff_control.o(i.Modbus_Master_RB_Initialize), (24 bytes).
    Removing trans_recieve_buff_control.o(i.Modbus_Master_Read), (28 bytes).
    Removing trans_recieve_buff_control.o(i.Modbus_Master_Rece_Available), (36 bytes).
    Removing trans_recieve_buff_control.o(i.Modbus_Master_Rece_Flush), (16 bytes).
    Removing trans_recieve_buff_control.o(i.Modbus_Master_Rece_Handler), (28 bytes).
    Removing trans_recieve_buff_control.o(i.Modbus_Master_Write), (44 bytes).
    Removing trans_recieve_buff_control.o(.bss), (170 bytes).
    Removing cjson.o(i.cJSON_AddItemReferenceToArray), (36 bytes).
    Removing cjson.o(i.cJSON_AddItemReferenceToObject), (48 bytes).
    Removing cjson.o(i.cJSON_AddItemToArray), (44 bytes).
    Removing cjson.o(i.cJSON_AddItemToObject), (52 bytes).
    Removing cjson.o(i.cJSON_AddItemToObjectCS), (60 bytes).
    Removing cjson.o(i.cJSON_Compare), (392 bytes).
    Removing cjson.o(i.cJSON_CreateArray), (24 bytes).
    Removing cjson.o(i.cJSON_CreateBool), (32 bytes).
    Removing cjson.o(i.cJSON_CreateDoubleArray), (100 bytes).
    Removing cjson.o(i.cJSON_CreateFalse), (24 bytes).
    Removing cjson.o(i.cJSON_CreateFloatArray), (102 bytes).
    Removing cjson.o(i.cJSON_CreateIntArray), (102 bytes).
    Removing cjson.o(i.cJSON_CreateNull), (24 bytes).
    Removing cjson.o(i.cJSON_CreateNumber), (100 bytes).
    Removing cjson.o(i.cJSON_CreateObject), (24 bytes).
    Removing cjson.o(i.cJSON_CreateRaw), (52 bytes).
    Removing cjson.o(i.cJSON_CreateString), (52 bytes).
    Removing cjson.o(i.cJSON_CreateStringArray), (94 bytes).
    Removing cjson.o(i.cJSON_CreateTrue), (24 bytes).
    Removing cjson.o(i.cJSON_DeleteItemFromArray), (22 bytes).
    Removing cjson.o(i.cJSON_DeleteItemFromObject), (22 bytes).
    Removing cjson.o(i.cJSON_DeleteItemFromObjectCaseSensitive), (22 bytes).
    Removing cjson.o(i.cJSON_DetachItemFromArray), (34 bytes).
    Removing cjson.o(i.cJSON_DetachItemFromObject), (26 bytes).
    Removing cjson.o(i.cJSON_DetachItemFromObjectCaseSensitive), (26 bytes).
    Removing cjson.o(i.cJSON_DetachItemViaPointer), (50 bytes).
    Removing cjson.o(i.cJSON_Duplicate), (184 bytes).
    Removing cjson.o(i.cJSON_GetArrayItem), (24 bytes).
    Removing cjson.o(i.cJSON_GetArraySize), (28 bytes).
    Removing cjson.o(i.cJSON_GetErrorPtr), (16 bytes).
    Removing cjson.o(i.cJSON_GetObjectItemCaseSensitive), (18 bytes).
    Removing cjson.o(i.cJSON_HasObjectItem), (24 bytes).
    Removing cjson.o(i.cJSON_InsertItemInArray), (68 bytes).
    Removing cjson.o(i.cJSON_IsArray), (22 bytes).
    Removing cjson.o(i.cJSON_IsBool), (24 bytes).
    Removing cjson.o(i.cJSON_IsFalse), (20 bytes).
    Removing cjson.o(i.cJSON_IsInvalid), (20 bytes).
    Removing cjson.o(i.cJSON_IsNull), (22 bytes).
    Removing cjson.o(i.cJSON_IsNumber), (22 bytes).
    Removing cjson.o(i.cJSON_IsObject), (22 bytes).
    Removing cjson.o(i.cJSON_IsRaw), (22 bytes).
    Removing cjson.o(i.cJSON_IsString), (22 bytes).
    Removing cjson.o(i.cJSON_IsTrue), (22 bytes).
    Removing cjson.o(i.cJSON_Minify), (192 bytes).
    Removing cjson.o(i.cJSON_Print), (20 bytes).
    Removing cjson.o(i.cJSON_PrintBuffered), (96 bytes).
    Removing cjson.o(i.cJSON_PrintPreallocated), (68 bytes).
    Removing cjson.o(i.cJSON_PrintUnformatted), (20 bytes).
    Removing cjson.o(i.cJSON_ReplaceItemInArray), (42 bytes).
    Removing cjson.o(i.cJSON_ReplaceItemInObject), (22 bytes).
    Removing cjson.o(i.cJSON_ReplaceItemInObjectCaseSensitive), (22 bytes).
    Removing cjson.o(i.cJSON_ReplaceItemViaPointer), (74 bytes).
    Removing cjson.o(i.cJSON_SetNumberHelper), (84 bytes).
    Removing cjson.o(i.cJSON_Version), (40 bytes).
    Removing cjson.o(i.cJSON_free), (20 bytes).
    Removing cjson.o(i.cJSON_malloc), (20 bytes).
    Removing cjson.o(i.cJSON_strdup), (56 bytes).
    Removing cjson.o(i.create_reference), (60 bytes).
    Removing cjson.o(i.ensure), (186 bytes).
    Removing cjson.o(i.get_array_item), (30 bytes).
    Removing cjson.o(i.print), (172 bytes).
    Removing cjson.o(i.print_array), (178 bytes).
    Removing cjson.o(i.print_number), (244 bytes).
    Removing cjson.o(i.print_object), (372 bytes).
    Removing cjson.o(i.print_string), (16 bytes).
    Removing cjson.o(i.print_string_ptr), (372 bytes).
    Removing cjson.o(i.print_value), (272 bytes).
    Removing cjson.o(i.replace_item_in_object), (88 bytes).
    Removing cjson.o(i.suffix_object), (6 bytes).
    Removing cjson.o(i.update_offset), (36 bytes).
    Removing cjson.o(.bss), (15 bytes).
    Removing dflti.o(.text), (34 bytes).
    Removing f2d.o(.text), (38 bytes).

267 unused section(s) (total 18811 bytes) removed from the image.

==============================================================================

Image Symbol Table

    Local Symbols

    Symbol Name                              Value     Ov Type        Size  Object(Section)

    ../clib/microlib/ctype/ctype.c           0x00000000   Number         0  isdigit_o.o ABSOLUTE
    ../clib/microlib/ctype/ctype.c           0x00000000   Number         0  isgraph_o.o ABSOLUTE
    ../clib/microlib/ctype/ctype.c           0x00000000   Number         0  islower_o.o ABSOLUTE
    ../clib/microlib/ctype/ctype.c           0x00000000   Number         0  ispunct_o.o ABSOLUTE
    ../clib/microlib/ctype/ctype.c           0x00000000   Number         0  iscntrl_o.o ABSOLUTE
    ../clib/microlib/ctype/ctype.c           0x00000000   Number         0  ctype_c.o ABSOLUTE
    ../clib/microlib/ctype/ctype.c           0x00000000   Number         0  isspace_c.o ABSOLUTE
    ../clib/microlib/ctype/ctype.c           0x00000000   Number         0  isxdigit_o.o ABSOLUTE
    ../clib/microlib/ctype/ctype.c           0x00000000   Number         0  ctype_o.o ABSOLUTE
    ../clib/microlib/ctype/ctype.c           0x00000000   Number         0  isupper_o.o ABSOLUTE
    ../clib/microlib/ctype/ctype.c           0x00000000   Number         0  isalnum_o.o ABSOLUTE
    ../clib/microlib/ctype/ctype.c           0x00000000   Number         0  isprint_o.o ABSOLUTE
    ../clib/microlib/ctype/ctype.c           0x00000000   Number         0  isalpha_o.o ABSOLUTE
    ../clib/microlib/ctype/ctype.c           0x00000000   Number         0  isspace_o.o ABSOLUTE
    ../clib/microlib/ctype/ctype.c           0x00000000   Number         0  isblank_o.o ABSOLUTE
    ../clib/microlib/ctype/tolower.c         0x00000000   Number         0  tolower.o ABSOLUTE
    ../clib/microlib/division.c              0x00000000   Number         0  uidiv.o ABSOLUTE
    ../clib/microlib/division.c              0x00000000   Number         0  uldiv.o ABSOLUTE
    ../clib/microlib/errno.c                 0x00000000   Number         0  errno.o ABSOLUTE
    ../clib/microlib/init/entry.s            0x00000000   Number         0  entry10a.o ABSOLUTE
    ../clib/microlib/init/entry.s            0x00000000   Number         0  entry11b.o ABSOLUTE
    ../clib/microlib/init/entry.s            0x00000000   Number         0  entry10b.o ABSOLUTE
    ../clib/microlib/init/entry.s            0x00000000   Number         0  entry9b.o ABSOLUTE
    ../clib/microlib/init/entry.s            0x00000000   Number         0  entry9a.o ABSOLUTE
    ../clib/microlib/init/entry.s            0x00000000   Number         0  entry8b.o ABSOLUTE
    ../clib/microlib/init/entry.s            0x00000000   Number         0  entry8a.o ABSOLUTE
    ../clib/microlib/init/entry.s            0x00000000   Number         0  entry7b.o ABSOLUTE
    ../clib/microlib/init/entry.s            0x00000000   Number         0  entry.o ABSOLUTE
    ../clib/microlib/init/entry.s            0x00000000   Number         0  entry5.o ABSOLUTE
    ../clib/microlib/init/entry.s            0x00000000   Number         0  entry7a.o ABSOLUTE
    ../clib/microlib/init/entry.s            0x00000000   Number         0  entry2.o ABSOLUTE
    ../clib/microlib/init/entry.s            0x00000000   Number         0  entry11a.o ABSOLUTE
    ../clib/microlib/longlong.c              0x00000000   Number         0  llsshr.o ABSOLUTE
    ../clib/microlib/longlong.c              0x00000000   Number         0  llshl.o ABSOLUTE
    ../clib/microlib/longlong.c              0x00000000   Number         0  llushr.o ABSOLUTE
    ../clib/microlib/printf/printf.c         0x00000000   Number         0  printf7.o ABSOLUTE
    ../clib/microlib/printf/printf.c         0x00000000   Number         0  printfa.o ABSOLUTE
    ../clib/microlib/printf/printf.c         0x00000000   Number         0  printf8.o ABSOLUTE
    ../clib/microlib/printf/printf.c         0x00000000   Number         0  printfb.o ABSOLUTE
    ../clib/microlib/printf/printf.c         0x00000000   Number         0  printf0.o ABSOLUTE
    ../clib/microlib/printf/printf.c         0x00000000   Number         0  printf6.o ABSOLUTE
    ../clib/microlib/printf/printf.c         0x00000000   Number         0  printf1.o ABSOLUTE
    ../clib/microlib/printf/printf.c         0x00000000   Number         0  printf2.o ABSOLUTE
    ../clib/microlib/printf/printf.c         0x00000000   Number         0  printf5.o ABSOLUTE
    ../clib/microlib/printf/printf.c         0x00000000   Number         0  printf3.o ABSOLUTE
    ../clib/microlib/printf/printf.c         0x00000000   Number         0  printf4.o ABSOLUTE
    ../clib/microlib/printf/stubs.s          0x00000000   Number         0  stubs.o ABSOLUTE
    ../clib/microlib/stdio/streams.c         0x00000000   Number         0  stdout.o ABSOLUTE
    ../clib/microlib/string/memcpy.c         0x00000000   Number         0  memcpya.o ABSOLUTE
    ../clib/microlib/string/memcpy.c         0x00000000   Number         0  memcpyb.o ABSOLUTE
    ../clib/microlib/string/memset.c         0x00000000   Number         0  memseta.o ABSOLUTE
    ../clib/microlib/string/strcat.c         0x00000000   Number         0  strcat.o ABSOLUTE
    ../clib/microlib/string/strcmp.c         0x00000000   Number         0  strcmp.o ABSOLUTE
    ../clib/microlib/string/strcpy.c         0x00000000   Number         0  strcpy.o ABSOLUTE
    ../clib/microlib/string/strlen.c         0x00000000   Number         0  strlen.o ABSOLUTE
    ../clib/microlib/string/strncmp.c        0x00000000   Number         0  strncmp.o ABSOLUTE
    ../clib/microlib/string/strncpy.c        0x00000000   Number         0  strncpy.o ABSOLUTE
    ../clib/microlib/string/strstr.c         0x00000000   Number         0  strstr.o ABSOLUTE
    ../clib/microlib/stubs.s                 0x00000000   Number         0  iusefp.o ABSOLUTE
    ../clib/scanf.c                          0x00000000   Number         0  _strtoul.o ABSOLUTE
    ../clib/scanf.c                          0x00000000   Number         0  atol.o ABSOLUTE
    ../clib/scanf.c                          0x00000000   Number         0  _sgetc.o ABSOLUTE
    ../clib/scanf.c                          0x00000000   Number         0  __0sscanf.o ABSOLUTE
    ../clib/scanf.c                          0x00000000   Number         0  scanf_char.o ABSOLUTE
    ../clib/scanf.c                          0x00000000   Number         0  scanf_fp.o ABSOLUTE
    ../clib/scanf.c                          0x00000000   Number         0  _scanf.o ABSOLUTE
    ../clib/scanf.c                          0x00000000   Number         0  strtol.o ABSOLUTE
    ../clib/scanf.c                          0x00000000   Number         0  atoi.o ABSOLUTE
    ../clib/scanf.c                          0x00000000   Number         0  strtod.o ABSOLUTE
    ../clib/scanf.c                          0x00000000   Number         0  _chval.o ABSOLUTE
    ../fplib/microlib/d2f.c                  0x00000000   Number         0  d2f.o ABSOLUTE
    ../fplib/microlib/f2d.c                  0x00000000   Number         0  f2d.o ABSOLUTE
    ../fplib/microlib/fpadd.c                0x00000000   Number         0  dadd.o ABSOLUTE
    ../fplib/microlib/fpdiv.c                0x00000000   Number         0  ddiv.o ABSOLUTE
    ../fplib/microlib/fpepilogue.c           0x00000000   Number         0  depilogue.o ABSOLUTE
    ../fplib/microlib/fpepilogue.c           0x00000000   Number         0  fepilogue.o ABSOLUTE
    ../fplib/microlib/fpfix.c                0x00000000   Number         0  dfixi.o ABSOLUTE
    ../fplib/microlib/fpfix.c                0x00000000   Number         0  dfixul.o ABSOLUTE
    ../fplib/microlib/fpflt.c                0x00000000   Number         0  dfltul.o ABSOLUTE
    ../fplib/microlib/fpflt.c                0x00000000   Number         0  dflti.o ABSOLUTE
    ../fplib/microlib/fpmul.c                0x00000000   Number         0  dmul.o ABSOLUTE
    ../mathlib/strtod.c                      0x00000000   Number         0  strtod.o ABSOLUTE
    APP\app.c                                0x00000000   Number         0  app.o ABSOLUTE
    BSP\BSP.c                                0x00000000   Number         0  bsp.o ABSOLUTE
    BSP\led.c                                0x00000000   Number         0  led.o ABSOLUTE
    CMSIS\\core_cm3.c                        0x00000000   Number         0  core_cm3.o ABSOLUTE
    CMSIS\core_cm3.c                         0x00000000   Number         0  core_cm3.o ABSOLUTE
    CMSIS\startup\startup_stm32f10x_hd.s     0x00000000   Number         0  startup_stm32f10x_hd.o ABSOLUTE
    CMSIS\system_stm32f10x.c                 0x00000000   Number         0  system_stm32f10x.o ABSOLUTE
    FWlib\src\misc.c                         0x00000000   Number         0  misc.o ABSOLUTE
    FWlib\src\stm32f10x_crc.c                0x00000000   Number         0  stm32f10x_crc.o ABSOLUTE
    FWlib\src\stm32f10x_flash.c              0x00000000   Number         0  stm32f10x_flash.o ABSOLUTE
    FWlib\src\stm32f10x_gpio.c               0x00000000   Number         0  stm32f10x_gpio.o ABSOLUTE
    FWlib\src\stm32f10x_rcc.c                0x00000000   Number         0  stm32f10x_rcc.o ABSOLUTE
    FWlib\src\stm32f10x_usart.c              0x00000000   Number         0  stm32f10x_usart.o ABSOLUTE
    cdcmple.s                                0x00000000   Number         0  cdcmple.o ABSOLUTE
    cdrcmple.s                               0x00000000   Number         0  cdrcmple.o ABSOLUTE
    dc.s                                     0x00000000   Number         0  dc.o ABSOLUTE
    handlers.s                               0x00000000   Number         0  handlers.o ABSOLUTE
    init.s                                   0x00000000   Number         0  init.o ABSOLUTE
    json\cJSON.c                             0x00000000   Number         0  cjson.o ABSOLUTE
    malloc\malloc.c                          0x00000000   Number         0  malloc.o ABSOLUTE
    modbus\modbus_master.c                   0x00000000   Number         0  modbus_master.o ABSOLUTE
    modbus\ringbuffer.c                      0x00000000   Number         0  ringbuffer.o ABSOLUTE
    modbus\trans_recieve_buff_control.c      0x00000000   Number         0  trans_recieve_buff_control.o ABSOLUTE
    uCOS-II\Ports\os_cpu_a.asm               0x00000000   Number         0  os_cpu_a.o ABSOLUTE
    uCOS-II\Ports\os_cpu_c.c                 0x00000000   Number         0  os_cpu_c.o ABSOLUTE
    uCOS-II\Ports\os_dbg.c                   0x00000000   Number         0  os_dbg.o ABSOLUTE
    uCOS-II\Source\os_core.c                 0x00000000   Number         0  os_core.o ABSOLUTE
    uCOS-II\Source\os_flag.c                 0x00000000   Number         0  os_flag.o ABSOLUTE
    uCOS-II\Source\os_mbox.c                 0x00000000   Number         0  os_mbox.o ABSOLUTE
    uCOS-II\Source\os_mem.c                  0x00000000   Number         0  os_mem.o ABSOLUTE
    uCOS-II\Source\os_mutex.c                0x00000000   Number         0  os_mutex.o ABSOLUTE
    uCOS-II\Source\os_q.c                    0x00000000   Number         0  os_q.o ABSOLUTE
    uCOS-II\Source\os_sem.c                  0x00000000   Number         0  os_sem.o ABSOLUTE
    uCOS-II\Source\os_task.c                 0x00000000   Number         0  os_task.o ABSOLUTE
    uCOS-II\Source\os_time.c                 0x00000000   Number         0  os_time.o ABSOLUTE
    uCOS-II\Source\os_tmr.c                  0x00000000   Number         0  os_tmr.o ABSOLUTE
    user\flash\user_flash.c                  0x00000000   Number         0  user_flash.o ABSOLUTE
    user\main.c                              0x00000000   Number         0  main.o ABSOLUTE
    user\stm32f10x_it.c                      0x00000000   Number         0  stm32f10x_it.o ABSOLUTE
    user\user_sim7600\sim7600.c              0x00000000   Number         0  sim7600.o ABSOLUTE
    user\user_sim7600\user_mqtt_task.c       0x00000000   Number         0  user_mqtt_task.o ABSOLUTE
    user\user_sim7600\user_sim7600_task.c    0x00000000   Number         0  user_sim7600_task.o ABSOLUTE
    user\user_sim7600\user_upload_data.c     0x00000000   Number         0  user_upload_data.o ABSOLUTE
    user\user_usart\user_usart.c             0x00000000   Number         0  user_usart.o ABSOLUTE
    user\user_usart\user_usart1.c            0x00000000   Number         0  user_usart1.o ABSOLUTE
    user\user_usart\user_usart2.c            0x00000000   Number         0  user_usart2.o ABSOLUTE
    user\user_usart\user_usart3.c            0x00000000   Number         0  user_usart3.o ABSOLUTE
    RESET                                    0x08000000   Section      304  startup_stm32f10x_hd.o(RESET)
    .ARM.Collect$$$$00000000                 0x08000130   Section        0  entry.o(.ARM.Collect$$$$00000000)
    .ARM.Collect$$$$00000001                 0x08000130   Section        4  entry2.o(.ARM.Collect$$$$00000001)
    .ARM.Collect$$$$00000004                 0x08000134   Section        4  entry5.o(.ARM.Collect$$$$00000004)
    .ARM.Collect$$$$00000008                 0x08000138   Section        0  entry7b.o(.ARM.Collect$$$$00000008)
    .ARM.Collect$$$$0000000A                 0x08000138   Section        0  entry8b.o(.ARM.Collect$$$$0000000A)
    .ARM.Collect$$$$0000000B                 0x08000138   Section        8  entry9a.o(.ARM.Collect$$$$0000000B)
    .ARM.Collect$$$$0000000D                 0x08000140   Section        0  entry10a.o(.ARM.Collect$$$$0000000D)
    .ARM.Collect$$$$0000000F                 0x08000140   Section        0  entry11a.o(.ARM.Collect$$$$0000000F)
    .ARM.Collect$$$$00002712                 0x08000140   Section        4  entry2.o(.ARM.Collect$$$$00002712)
    __lit__00000000                          0x08000140   Data           4  entry2.o(.ARM.Collect$$$$00002712)
    .text                                    0x08000144   Section       48  startup_stm32f10x_hd.o(.text)
    .text                                    0x08000174   Section      164  os_cpu_a.o(.text)
    .text                                    0x08000218   Section        0  tolower.o(.text)
    .text                                    0x08000224   Section        0  memseta.o(.text)
    .text                                    0x08000248   Section        0  strcat.o(.text)
    .text                                    0x08000260   Section        0  strstr.o(.text)
    .text                                    0x08000284   Section        0  strncpy.o(.text)
    .text                                    0x0800029c   Section        0  strlen.o(.text)
    .text                                    0x080002aa   Section        0  strcmp.o(.text)
    .text                                    0x080002c6   Section        0  strcpy.o(.text)
    .text                                    0x080002d8   Section        0  strncmp.o(.text)
    .text                                    0x080002f8   Section        0  scanf_fp.o(.text)
    _fp_value                                0x080002f9   Thumb Code   256  scanf_fp.o(.text)
    .text                                    0x08000630   Section        0  atoi.o(.text)
    .text                                    0x0800064a   Section        0  dmul.o(.text)
    .text                                    0x0800072e   Section        0  dfixi.o(.text)
    .text                                    0x0800076c   Section       48  cdcmple.o(.text)
    .text                                    0x0800079c   Section       48  cdrcmple.o(.text)
    .text                                    0x080007cc   Section        0  uidiv.o(.text)
    .text                                    0x080007f8   Section        0  uldiv.o(.text)
    .text                                    0x0800085a   Section        0  llushr.o(.text)
    .text                                    0x0800087a   Section        0  _sgetc.o(.text)
    .text                                    0x080008bc   Section        0  strtod.o(.text)
    _local_sscanf                            0x080008bd   Thumb Code    54  strtod.o(.text)
    .text                                    0x08000958   Section        0  strtol.o(.text)
    .text                                    0x080009c8   Section        0  iusefp.o(.text)
    .text                                    0x080009c8   Section        0  depilogue.o(.text)
    .text                                    0x08000a82   Section        0  dadd.o(.text)
    .text                                    0x08000bd0   Section        0  ddiv.o(.text)
    .text                                    0x08000cae   Section        0  dfltul.o(.text)
    .text                                    0x08000cc6   Section        0  dfixul.o(.text)
    .text                                    0x08000cf6   Section        0  d2f.o(.text)
    .text                                    0x08000d30   Section       36  init.o(.text)
    .text                                    0x08000d54   Section        0  llshl.o(.text)
    .text                                    0x08000d72   Section        0  llsshr.o(.text)
    .text                                    0x08000d98   Section        0  ctype_o.o(.text)
    .text                                    0x08000da0   Section        0  isspace_o.o(.text)
    .text                                    0x08000db2   Section        0  _strtoul.o(.text)
    .text                                    0x08000e50   Section        0  fepilogue.o(.text)
    .text                                    0x08000ebe   Section        0  _chval.o(.text)
    i.BSP_Init                               0x08000edc   Section        0  bsp.o(i.BSP_Init)
    i.BusFault_Handler                       0x08000ef8   Section        0  stm32f10x_it.o(i.BusFault_Handler)
    i.DebugMon_Handler                       0x08000efc   Section        0  stm32f10x_it.o(i.DebugMon_Handler)
    i.GPIO_Init                              0x08000efe   Section        0  stm32f10x_gpio.o(i.GPIO_Init)
    i.GPIO_ResetBits                         0x08001014   Section        0  stm32f10x_gpio.o(i.GPIO_ResetBits)
    i.GPIO_SetBits                           0x08001018   Section        0  stm32f10x_gpio.o(i.GPIO_SetBits)
    i.HardFault_Handler                      0x0800101c   Section        0  stm32f10x_it.o(i.HardFault_Handler)
    i.LED_GPIO_Config                        0x08001020   Section        0  led.o(i.LED_GPIO_Config)
    i.MemManage_Handler                      0x08001058   Section        0  stm32f10x_it.o(i.MemManage_Handler)
    i.NMI_Handler                            0x0800105c   Section        0  stm32f10x_it.o(i.NMI_Handler)
    i.NVIC_Configuration                     0x0800105e   Section        0  user_usart2.o(i.NVIC_Configuration)
    NVIC_Configuration                       0x0800105f   Thumb Code    34  user_usart2.o(i.NVIC_Configuration)
    i.NVIC_Configuration                     0x08001080   Section        0  user_usart3.o(i.NVIC_Configuration)
    NVIC_Configuration                       0x08001081   Thumb Code    34  user_usart3.o(i.NVIC_Configuration)
    i.NVIC_Init                              0x080010a4   Section        0  misc.o(i.NVIC_Init)
    i.OSInit                                 0x08001114   Section        0  os_core.o(i.OSInit)
    i.OSInitHookBegin                        0x0800113c   Section        0  os_cpu_c.o(i.OSInitHookBegin)
    i.OSInitHookEnd                          0x0800113e   Section        0  os_cpu_c.o(i.OSInitHookEnd)
    i.OSIntEnter                             0x08001140   Section        0  os_core.o(i.OSIntEnter)
    i.OSIntExit                              0x08001164   Section        0  os_core.o(i.OSIntExit)
    i.OSMutexCreate                          0x080011f4   Section        0  os_mutex.o(i.OSMutexCreate)
    i.OSMutexPend                            0x080012a4   Section        0  os_mutex.o(i.OSMutexPend)
    i.OSMutexPost                            0x080014e4   Section        0  os_mutex.o(i.OSMutexPost)
    i.OSMutex_RdyAtPrio                      0x080015b4   Section        0  os_mutex.o(i.OSMutex_RdyAtPrio)
    OSMutex_RdyAtPrio                        0x080015b5   Thumb Code   110  os_mutex.o(i.OSMutex_RdyAtPrio)
    i.OSQCreate                              0x08001630   Section        0  os_q.o(i.OSQCreate)
    i.OSQPend                                0x080016d4   Section        0  os_q.o(i.OSQPend)
    i.OSQPost                                0x08001808   Section        0  os_q.o(i.OSQPost)
    i.OSQQuery                               0x08001880   Section        0  os_q.o(i.OSQQuery)
    i.OSStart                                0x080018f0   Section        0  os_core.o(i.OSStart)
    i.OSTCBInitHook                          0x08001938   Section        0  os_cpu_c.o(i.OSTCBInitHook)
    i.OSTaskCreate                           0x0800193c   Section        0  os_task.o(i.OSTaskCreate)
    i.OSTaskCreateExt                        0x080019e8   Section        0  os_task.o(i.OSTaskCreateExt)
    i.OSTaskCreateHook                       0x08001aa8   Section        0  os_cpu_c.o(i.OSTaskCreateHook)
    i.OSTaskIdleHook                         0x08001aaa   Section        0  os_cpu_c.o(i.OSTaskIdleHook)
    i.OSTaskNameSet                          0x08001aac   Section        0  os_task.o(i.OSTaskNameSet)
    i.OSTaskStatHook                         0x08001b58   Section        0  os_cpu_c.o(i.OSTaskStatHook)
    i.OSTaskStkChk                           0x08001b5c   Section        0  os_task.o(i.OSTaskStkChk)
    i.OSTaskStkInit                          0x08001bfc   Section        0  os_cpu_c.o(i.OSTaskStkInit)
    i.OSTaskSuspend                          0x08001c98   Section        0  os_task.o(i.OSTaskSuspend)
    i.OSTaskSwHook                           0x08001d54   Section        0  os_cpu_c.o(i.OSTaskSwHook)
    i.OSTimeDly                              0x08001d58   Section        0  os_time.o(i.OSTimeDly)
    i.OSTimeDlyHMSM                          0x08001dc8   Section        0  os_time.o(i.OSTimeDlyHMSM)
    i.OSTimeGet                              0x08001e6c   Section        0  os_time.o(i.OSTimeGet)
    i.OSTimeTick                             0x08001e88   Section        0  os_core.o(i.OSTimeTick)
    i.OSTimeTickHook                         0x08001f74   Section        0  os_cpu_c.o(i.OSTimeTickHook)
    i.OS_EventTaskRdy                        0x08001f78   Section        0  os_core.o(i.OS_EventTaskRdy)
    i.OS_EventTaskRemove                     0x08001ffc   Section        0  os_core.o(i.OS_EventTaskRemove)
    i.OS_EventTaskWait                       0x08002028   Section        0  os_core.o(i.OS_EventTaskWait)
    i.OS_EventWaitListInit                   0x080020a4   Section        0  os_core.o(i.OS_EventWaitListInit)
    i.OS_InitEventList                       0x080020c0   Section        0  os_core.o(i.OS_InitEventList)
    OS_InitEventList                         0x080020c1   Thumb Code    70  os_core.o(i.OS_InitEventList)
    i.OS_InitMisc                            0x08002110   Section        0  os_core.o(i.OS_InitMisc)
    OS_InitMisc                              0x08002111   Thumb Code    44  os_core.o(i.OS_InitMisc)
    i.OS_InitRdyList                         0x08002164   Section        0  os_core.o(i.OS_InitRdyList)
    OS_InitRdyList                           0x08002165   Thumb Code    46  os_core.o(i.OS_InitRdyList)
    i.OS_InitTCBList                         0x080021ac   Section        0  os_core.o(i.OS_InitTCBList)
    OS_InitTCBList                           0x080021ad   Thumb Code    86  os_core.o(i.OS_InitTCBList)
    i.OS_InitTaskIdle                        0x08002214   Section        0  os_core.o(i.OS_InitTaskIdle)
    OS_InitTaskIdle                          0x08002215   Thumb Code    50  os_core.o(i.OS_InitTaskIdle)
    i.OS_InitTaskStat                        0x08002264   Section        0  os_core.o(i.OS_InitTaskStat)
    OS_InitTaskStat                          0x08002265   Thumb Code    50  os_core.o(i.OS_InitTaskStat)
    i.OS_MemClr                              0x080022b4   Section        0  os_core.o(i.OS_MemClr)
    i.OS_QInit                               0x080022c8   Section        0  os_q.o(i.OS_QInit)
    i.OS_Sched                               0x08002300   Section        0  os_core.o(i.OS_Sched)
    i.OS_SchedNew                            0x08002374   Section        0  os_core.o(i.OS_SchedNew)
    OS_SchedNew                              0x08002375   Thumb Code    26  os_core.o(i.OS_SchedNew)
    i.OS_StrCopy                             0x080023a0   Section        0  os_core.o(i.OS_StrCopy)
    i.OS_StrLen                              0x080023bc   Section        0  os_core.o(i.OS_StrLen)
    i.OS_TCBInit                             0x080023d0   Section        0  os_core.o(i.OS_TCBInit)
    i.OS_TaskIdle                            0x080024ec   Section        0  os_core.o(i.OS_TaskIdle)
    i.OS_TaskStat                            0x08002510   Section        0  os_core.o(i.OS_TaskStat)
    i.OS_TaskStatStkChk                      0x08002598   Section        0  os_core.o(i.OS_TaskStatStkChk)
    i.OS_TaskStkClr                          0x080025d4   Section        0  os_task.o(i.OS_TaskStkClr)
    i.RCC_APB1PeriphClockCmd                 0x080025f0   Section        0  stm32f10x_rcc.o(i.RCC_APB1PeriphClockCmd)
    i.RCC_APB2PeriphClockCmd                 0x08002610   Section        0  stm32f10x_rcc.o(i.RCC_APB2PeriphClockCmd)
    i.RCC_GetClocksFreq                      0x08002630   Section        0  stm32f10x_rcc.o(i.RCC_GetClocksFreq)
    i.SVC_Handler                            0x08002704   Section        0  stm32f10x_it.o(i.SVC_Handler)
    i.SetSysClock                            0x08002706   Section        0  system_stm32f10x.o(i.SetSysClock)
    SetSysClock                              0x08002707   Thumb Code     8  system_stm32f10x.o(i.SetSysClock)
    i.SetSysClockTo72                        0x08002710   Section        0  system_stm32f10x.o(i.SetSysClockTo72)
    SetSysClockTo72                          0x08002711   Thumb Code   220  system_stm32f10x.o(i.SetSysClockTo72)
    i.SysTick_Handler                        0x080027f4   Section        0  stm32f10x_it.o(i.SysTick_Handler)
    i.SysTick_init                           0x08002804   Section        0  bsp.o(i.SysTick_init)
    i.SystemInit                             0x08002864   Section        0  system_stm32f10x.o(i.SystemInit)
    i.Task_Start                             0x080028b4   Section        0  app.o(i.Task_Start)
    i.USART1_IRQHandler                      0x08002e14   Section        0  stm32f10x_it.o(i.USART1_IRQHandler)
    i.USART2_IRQHandler                      0x08002e54   Section        0  stm32f10x_it.o(i.USART2_IRQHandler)
    i.USART_ClearITPendingBit                0x08002ea4   Section        0  stm32f10x_usart.o(i.USART_ClearITPendingBit)
    i.USART_Cmd                              0x08002eb8   Section        0  stm32f10x_usart.o(i.USART_Cmd)
    i.USART_GetFlagStatus                    0x08002ed0   Section        0  stm32f10x_usart.o(i.USART_GetFlagStatus)
    i.USART_GetITStatus                      0x08002ee2   Section        0  stm32f10x_usart.o(i.USART_GetITStatus)
    i.USART_ITConfig                         0x08002f2e   Section        0  stm32f10x_usart.o(i.USART_ITConfig)
    i.USART_Init                             0x08002f70   Section        0  stm32f10x_usart.o(i.USART_Init)
    i.USART_ReceiveData                      0x0800300c   Section        0  stm32f10x_usart.o(i.USART_ReceiveData)
    i.USART_SendData                         0x08003016   Section        0  stm32f10x_usart.o(i.USART_SendData)
    i.UsageFault_Handler                     0x0800301e   Section        0  stm32f10x_it.o(i.UsageFault_Handler)
    i.Usart_SendBytes                        0x08003022   Section        0  user_usart.o(i.Usart_SendBytes)
    i.Usart_SendOneByte                      0x0800304e   Section        0  user_usart.o(i.Usart_SendOneByte)
    i.__0printf                              0x0800306c   Section        0  printfa.o(i.__0printf)
    i.__0sprintf                             0x0800308c   Section        0  printfa.o(i.__0sprintf)
    i.__aeabi_errno_addr                     0x080030b4   Section        0  errno.o(i.__aeabi_errno_addr)
    i.__scatterload_copy                     0x080030bc   Section       14  handlers.o(i.__scatterload_copy)
    i.__scatterload_null                     0x080030ca   Section        2  handlers.o(i.__scatterload_null)
    i.__scatterload_zeroinit                 0x080030cc   Section       14  handlers.o(i.__scatterload_zeroinit)
    i._fp_digits                             0x080030dc   Section        0  printfa.o(i._fp_digits)
    _fp_digits                               0x080030dd   Thumb Code   366  printfa.o(i._fp_digits)
    i._is_digit                              0x08003260   Section        0  scanf_fp.o(i._is_digit)
    i._printf_core                           0x08003270   Section        0  printfa.o(i._printf_core)
    _printf_core                             0x08003271   Thumb Code  1744  printfa.o(i._printf_core)
    i._printf_post_padding                   0x0800394c   Section        0  printfa.o(i._printf_post_padding)
    _printf_post_padding                     0x0800394d   Thumb Code    36  printfa.o(i._printf_post_padding)
    i._printf_pre_padding                    0x08003970   Section        0  printfa.o(i._printf_pre_padding)
    _printf_pre_padding                      0x08003971   Thumb Code    46  printfa.o(i._printf_pre_padding)
    i._sputc                                 0x0800399e   Section        0  printfa.o(i._sputc)
    _sputc                                   0x0800399f   Thumb Code    10  printfa.o(i._sputc)
    i.buffer_skip_whitespace                 0x080039a8   Section        0  cjson.o(i.buffer_skip_whitespace)
    buffer_skip_whitespace                   0x080039a9   Thumb Code    58  cjson.o(i.buffer_skip_whitespace)
    i.cJSON_Delete                           0x080039e4   Section        0  cjson.o(i.cJSON_Delete)
    i.cJSON_GetObjectItem                    0x08003a3c   Section        0  cjson.o(i.cJSON_GetObjectItem)
    i.cJSON_InitHooks                        0x08003a50   Section        0  cjson.o(i.cJSON_InitHooks)
    i.cJSON_New_Item                         0x08003ab4   Section        0  cjson.o(i.cJSON_New_Item)
    cJSON_New_Item                           0x08003ab5   Thumb Code    26  cjson.o(i.cJSON_New_Item)
    i.cJSON_Parse                            0x08003ace   Section        0  cjson.o(i.cJSON_Parse)
    i.cJSON_ParseWithOpts                    0x08003ae0   Section        0  cjson.o(i.cJSON_ParseWithOpts)
    i.case_insensitive_strcmp                0x08003bb4   Section        0  cjson.o(i.case_insensitive_strcmp)
    case_insensitive_strcmp                  0x08003bb5   Thumb Code    72  cjson.o(i.case_insensitive_strcmp)
    i.device_activate_event                  0x08003bfc   Section        0  sim7600.o(i.device_activate_event)
    i.device_get_token_event                 0x08004300   Section        0  sim7600.o(i.device_get_token_event)
    i.device_ota_check_event                 0x080049c4   Section        0  sim7600.o(i.device_ota_check_event)
    i.empty_rx_buff                          0x08005124   Section        0  sim7600.o(i.empty_rx_buff)
    i.fputc                                  0x08005140   Section        0  user_usart1.o(i.fputc)
    i.generate_http_session_id               0x08005164   Section        0  sim7600.o(i.generate_http_session_id)
    generate_http_session_id                 0x08005165   Thumb Code    16  sim7600.o(i.generate_http_session_id)
    i.get_decimal_point                      0x08005178   Section        0  cjson.o(i.get_decimal_point)
    get_decimal_point                        0x08005179   Thumb Code     4  cjson.o(i.get_decimal_point)
    i.get_http_session_id                    0x0800517c   Section        0  sim7600.o(i.get_http_session_id)
    get_http_session_id                      0x0800517d   Thumb Code     6  sim7600.o(i.get_http_session_id)
    i.get_object_item                        0x08005188   Section        0  cjson.o(i.get_object_item)
    get_object_item                          0x08005189   Thumb Code    68  cjson.o(i.get_object_item)
    i.is_queue_empty                         0x080051cc   Section        0  app.o(i.is_queue_empty)
    i.is_queue_full                          0x08005202   Section        0  app.o(i.is_queue_full)
    i.main                                   0x08005240   Section        0  main.o(i.main)
    i.mem_free                               0x0800526c   Section        0  malloc.o(i.mem_free)
    i.mem_free_size                          0x080052d8   Section        0  malloc.o(i.mem_free_size)
    i.mem_init                               0x08005308   Section        0  malloc.o(i.mem_init)
    i.mem_malloc                             0x0800534c   Section        0  malloc.o(i.mem_malloc)
    i.mem_perused                            0x080053fc   Section        0  malloc.o(i.mem_perused)
    i.mqtt_init_event                        0x08005430   Section        0  sim7600.o(i.mqtt_init_event)
    i.myfree                                 0x08005850   Section        0  malloc.o(i.myfree)
    i.mymalloc                               0x08005870   Section        0  malloc.o(i.mymalloc)
    i.mymemcpy                               0x08005894   Section        0  malloc.o(i.mymemcpy)
    i.mymemset                               0x080058ae   Section        0  malloc.o(i.mymemset)
    i.myrealloc                              0x080058c4   Section        0  malloc.o(i.myrealloc)
    i.parse_array                            0x080058fc   Section        0  cjson.o(i.parse_array)
    parse_array                              0x080058fd   Thumb Code   244  cjson.o(i.parse_array)
    i.parse_hex4                             0x080059f0   Section        0  cjson.o(i.parse_hex4)
    parse_hex4                               0x080059f1   Thumb Code    90  cjson.o(i.parse_hex4)
    i.parse_number                           0x08005a4c   Section        0  cjson.o(i.parse_number)
    parse_number                             0x08005a4d   Thumb Code   298  cjson.o(i.parse_number)
    i.parse_object                           0x08005b84   Section        0  cjson.o(i.parse_object)
    parse_object                             0x08005b85   Thumb Code   314  cjson.o(i.parse_object)
    i.parse_sim7600_cmd_result               0x08005cc0   Section        0  sim7600.o(i.parse_sim7600_cmd_result)
    i.parse_string                           0x080069b0   Section        0  cjson.o(i.parse_string)
    parse_string                             0x080069b1   Thumb Code   396  cjson.o(i.parse_string)
    i.parse_value                            0x08006b3c   Section        0  cjson.o(i.parse_value)
    parse_value                              0x08006b3d   Thumb Code   290  cjson.o(i.parse_value)
    i.rbClear                                0x08006c78   Section        0  ringbuffer.o(i.rbClear)
    i.rbInitialize                           0x08006c86   Section        0  ringbuffer.o(i.rbInitialize)
    i.rbIsEmpty                              0x08006c98   Section        0  ringbuffer.o(i.rbIsEmpty)
    i.rbPop                                  0x08006caa   Section        0  ringbuffer.o(i.rbPop)
    i.rbPush                                 0x08006cd4   Section        0  ringbuffer.o(i.rbPush)
    i.save_http_session_id                   0x08006cf8   Section        0  sim7600.o(i.save_http_session_id)
    save_http_session_id                     0x08006cf9   Thumb Code     6  sim7600.o(i.save_http_session_id)
    i.sim7600_disnable_command_echo          0x08006d04   Section        0  sim7600.o(i.sim7600_disnable_command_echo)
    i.sim7600_event_scan                     0x08006d54   Section        0  sim7600.o(i.sim7600_event_scan)
    i.sim7600_fogcloud_init_and_monitor_task 0x08006f64   Section        0  sim7600.o(i.sim7600_fogcloud_init_and_monitor_task)
    i.sim7600_get_ccid                       0x080071b8   Section        0  sim7600.o(i.sim7600_get_ccid)
    i.sim7600_get_mqtt_message               0x0800720c   Section        0  sim7600.o(i.sim7600_get_mqtt_message)
    i.sim7600_http_close                     0x08007508   Section        0  sim7600.o(i.sim7600_http_close)
    i.sim7600_http_loop                      0x08007570   Section        0  sim7600.o(i.sim7600_http_loop)
    i.sim7600_mqtt_close                     0x08007e0c   Section        0  sim7600.o(i.sim7600_mqtt_close)
    i.sim7600_mqtt_loop                      0x08007ec0   Section        0  sim7600.o(i.sim7600_mqtt_loop)
    i.sim7600_power_restart                  0x08008020   Section        0  sim7600.o(i.sim7600_power_restart)
    i.sim7600_powerkey_off                   0x08008178   Section        0  sim7600.o(i.sim7600_powerkey_off)
    i.sim7600_powerkey_on                    0x0800824c   Section        0  sim7600.o(i.sim7600_powerkey_on)
    i.sim7600_powerkey_pin_init              0x08008320   Section        0  sim7600.o(i.sim7600_powerkey_pin_init)
    i.sim7600_send_data                      0x08008358   Section        0  sim7600.o(i.sim7600_send_data)
    i.sim7600_task                           0x08008ab4   Section        0  user_sim7600_task.o(i.sim7600_task)
    i.sim7600_usart_begin                    0x08008be8   Section        0  user_sim7600_task.o(i.sim7600_usart_begin)
    i.sim7600_usart_rb_initialize            0x08008bf0   Section        0  user_sim7600_task.o(i.sim7600_usart_rb_initialize)
    i.sim7600_usart_read                     0x08008c0c   Section        0  user_sim7600_task.o(i.sim7600_usart_read)
    i.sim7600_usart_recv_available           0x08008c28   Section        0  user_sim7600_task.o(i.sim7600_usart_recv_available)
    i.sim7600_usart_recv_handler             0x08008c4c   Section        0  user_sim7600_task.o(i.sim7600_usart_recv_handler)
    i.sim7600_wait_response                  0x08008c6c   Section        0  sim7600.o(i.sim7600_wait_response)
    i.skip_utf8_bom                          0x08008f18   Section        0  cjson.o(i.skip_utf8_bom)
    skip_utf8_bom                            0x08008f19   Thumb Code    56  cjson.o(i.skip_utf8_bom)
    i.string_get_int                         0x08008f54   Section        0  sim7600.o(i.string_get_int)
    i.strtod                                 0x08008ff0   Section        0  strtod.o(i.strtod)
    i.uart_sim7600_sendbytes                 0x0800900c   Section        0  user_sim7600_task.o(i.uart_sim7600_sendbytes)
    i.upload_data_event                      0x08009024   Section        0  sim7600.o(i.upload_data_event)
    i.usart2_config                          0x080093d8   Section        0  user_usart2.o(i.usart2_config)
    i.usart3_config                          0x08009464   Section        0  user_usart3.o(i.usart3_config)
    i.user_mqtt_task                         0x080094f4   Section        0  user_mqtt_task.o(i.user_mqtt_task)
    i.user_upload_data_task                  0x080095b4   Section        0  user_upload_data.o(i.user_upload_data_task)
    i.utf16_literal_to_utf8                  0x080096b8   Section        0  cjson.o(i.utf16_literal_to_utf8)
    utf16_literal_to_utf8                    0x080096b9   Thumb Code   300  cjson.o(i.utf16_literal_to_utf8)
    i.wifi_led_off                           0x080097e4   Section        0  sim7600.o(i.wifi_led_off)
    i.wifi_led_on                            0x080097f8   Section        0  sim7600.o(i.wifi_led_on)
    .constdata                               0x0800980c   Section       20  system_stm32f10x.o(.constdata)
    .constdata                               0x08009820   Section      256  os_core.o(.constdata)
    .constdata                               0x08009920   Section       12  malloc.o(.constdata)
    .constdata                               0x0800992c   Section      129  ctype_o.o(.constdata)
    .constdata                               0x080099b0   Section        4  ctype_o.o(.constdata)
    table                                    0x080099b0   Data           4  ctype_o.o(.constdata)
    .conststring                             0x080099b4   Section      227  sim7600.o(.conststring)
    .data                                    0x20000000   Section        4  main.o(.data)
    .data                                    0x20000004   Section       44  sim7600.o(.data)
    is_disabled_cmd_echo                     0x20000004   Data           1  sim7600.o(.data)
    https_step                               0x2000000a   Data           1  sim7600.o(.data)
    is_https_action                          0x2000000c   Data           1  sim7600.o(.data)
    mqtt_action                              0x2000000d   Data           1  sim7600.o(.data)
    is_mqtt_inited                           0x2000000e   Data           1  sim7600.o(.data)
    mqtt_init_step                           0x2000000f   Data           1  sim7600.o(.data)
    mqtt_action_res                          0x2000001c   Data           3  sim7600.o(.data)
    is_send_get_mqtt_status_cmd              0x2000001f   Data           1  sim7600.o(.data)
    http_session_id                          0x20000020   Data           4  sim7600.o(.data)
    is_module_restart                        0x20000025   Data           1  sim7600.o(.data)
    Is_http                                  0x20000027   Data           1  sim7600.o(.data)
    http_body_length                         0x20000028   Data           2  sim7600.o(.data)
    id                                       0x2000002c   Data           4  sim7600.o(.data)
    .data                                    0x20000030   Section        2  user_sim7600_task.o(.data)
    .data                                    0x20000032   Section       20  stm32f10x_rcc.o(.data)
    APBAHBPrescTable                         0x20000032   Data          16  stm32f10x_rcc.o(.data)
    ADCPrescTable                            0x20000042   Data           4  stm32f10x_rcc.o(.data)
    .data                                    0x20000048   Section       40  app.o(.data)
    .data                                    0x20000070   Section       64  os_core.o(.data)
    .data                                    0x200000b0   Section       20  malloc.o(.data)
    .data                                    0x200000c4   Section       20  cjson.o(.data)
    global_error                             0x200000c4   Data           8  cjson.o(.data)
    global_hooks                             0x200000cc   Data          12  cjson.o(.data)
    .data                                    0x200000d8   Section        4  stdout.o(.data)
    .data                                    0x200000dc   Section        4  errno.o(.data)
    _errno                                   0x200000dc   Data           4  errno.o(.data)
    .bss                                     0x200000e0   Section      320  main.o(.bss)
    .bss                                     0x20000220   Section      464  sim7600.o(.bss)
    https_req_res                            0x20000364   Data          28  sim7600.o(.bss)
    .bss                                     0x200003f0   Section      532  user_sim7600_task.o(.bss)
    .bss                                     0x20000604   Section     3868  app.o(.bss)
    .bss                                     0x20001520   Section     3128  os_core.o(.bss)
    .bss                                     0x20002158   Section    10880  malloc.o(.bss)
    STACK                                    0x20004bd8   Section      512  startup_stm32f10x_hd.o(STACK)

    Global Symbols

    Symbol Name                              Value     Ov Type        Size  Object(Section)

    BuildAttributes$$THM_ISAv4$P$D$K$B$S$PE$A:L22UL41UL21$X:L11$S22US41US21$IEEE1$IW$USESV6$~STKCKD$USESV7$~SHL$OTIME$ROPI$IEEEJ$EBA8$MICROLIB$REQ8$PRES8$EABIv2 0x00000000   Number         0  anon$$obj.o ABSOLUTE
    __ARM_use_no_argv                        0x00000000   Number         0  main.o ABSOLUTE
    _printf_a                                0x00000000   Number         0  stubs.o ABSOLUTE
    _printf_c                                0x00000000   Number         0  stubs.o ABSOLUTE
    _printf_charcount                        0x00000000   Number         0  stubs.o ABSOLUTE
    _printf_d                                0x00000000   Number         0  stubs.o ABSOLUTE
    _printf_e                                0x00000000   Number         0  stubs.o ABSOLUTE
    _printf_f                                0x00000000   Number         0  stubs.o ABSOLUTE
    _printf_flags                            0x00000000   Number         0  stubs.o ABSOLUTE
    _printf_fp_dec                           0x00000000   Number         0  stubs.o ABSOLUTE
    _printf_fp_hex                           0x00000000   Number         0  stubs.o ABSOLUTE
    _printf_g                                0x00000000   Number         0  stubs.o ABSOLUTE
    _printf_i                                0x00000000   Number         0  stubs.o ABSOLUTE
    _printf_int_dec                          0x00000000   Number         0  stubs.o ABSOLUTE
    _printf_l                                0x00000000   Number         0  stubs.o ABSOLUTE
    _printf_lc                               0x00000000   Number         0  stubs.o ABSOLUTE
    _printf_ll                               0x00000000   Number         0  stubs.o ABSOLUTE
    _printf_lld                              0x00000000   Number         0  stubs.o ABSOLUTE
    _printf_lli                              0x00000000   Number         0  stubs.o ABSOLUTE
    _printf_llo                              0x00000000   Number         0  stubs.o ABSOLUTE
    _printf_llu                              0x00000000   Number         0  stubs.o ABSOLUTE
    _printf_llx                              0x00000000   Number         0  stubs.o ABSOLUTE
    _printf_longlong_dec                     0x00000000   Number         0  stubs.o ABSOLUTE
    _printf_longlong_hex                     0x00000000   Number         0  stubs.o ABSOLUTE
    _printf_longlong_oct                     0x00000000   Number         0  stubs.o ABSOLUTE
    _printf_ls                               0x00000000   Number         0  stubs.o ABSOLUTE
    _printf_mbtowc                           0x00000000   Number         0  stubs.o ABSOLUTE
    _printf_n                                0x00000000   Number         0  stubs.o ABSOLUTE
    _printf_o                                0x00000000   Number         0  stubs.o ABSOLUTE
    _printf_p                                0x00000000   Number         0  stubs.o ABSOLUTE
    _printf_percent                          0x00000000   Number         0  stubs.o ABSOLUTE
    _printf_pre_padding                      0x00000000   Number         0  stubs.o ABSOLUTE
    _printf_return_value                     0x00000000   Number         0  stubs.o ABSOLUTE
    _printf_s                                0x00000000   Number         0  stubs.o ABSOLUTE
    _printf_sizespec                         0x00000000   Number         0  stubs.o ABSOLUTE
    _printf_str                              0x00000000   Number         0  stubs.o ABSOLUTE
    _printf_truncate_signed                  0x00000000   Number         0  stubs.o ABSOLUTE
    _printf_truncate_unsigned                0x00000000   Number         0  stubs.o ABSOLUTE
    _printf_u                                0x00000000   Number         0  stubs.o ABSOLUTE
    _printf_wc                               0x00000000   Number         0  stubs.o ABSOLUTE
    _printf_wctomb                           0x00000000   Number         0  stubs.o ABSOLUTE
    _printf_widthprec                        0x00000000   Number         0  stubs.o ABSOLUTE
    _printf_x                                0x00000000   Number         0  stubs.o ABSOLUTE
    __cpp_initialize__aeabi_                  - Undefined Weak Reference
    __cxa_finalize                            - Undefined Weak Reference
    __decompress                              - Undefined Weak Reference
    _clock_init                               - Undefined Weak Reference
    _microlib_exit                            - Undefined Weak Reference
    _scanf_int                                - Undefined Weak Reference
    _scanf_longlong                           - Undefined Weak Reference
    _scanf_string                             - Undefined Weak Reference
    __Vectors_Size                           0x00000130   Number         0  startup_stm32f10x_hd.o ABSOLUTE
    __Vectors                                0x08000000   Data           4  startup_stm32f10x_hd.o(RESET)
    __Vectors_End                            0x08000130   Data           0  startup_stm32f10x_hd.o(RESET)
    __main                                   0x08000131   Thumb Code     0  entry.o(.ARM.Collect$$$$00000000)
    _main_stk                                0x08000131   Thumb Code     0  entry2.o(.ARM.Collect$$$$00000001)
    _main_scatterload                        0x08000135   Thumb Code     0  entry5.o(.ARM.Collect$$$$00000004)
    __main_after_scatterload                 0x08000139   Thumb Code     0  entry5.o(.ARM.Collect$$$$00000004)
    _main_clock                              0x08000139   Thumb Code     0  entry7b.o(.ARM.Collect$$$$00000008)
    _main_cpp_init                           0x08000139   Thumb Code     0  entry8b.o(.ARM.Collect$$$$0000000A)
    _main_init                               0x08000139   Thumb Code     0  entry9a.o(.ARM.Collect$$$$0000000B)
    __rt_final_cpp                           0x08000141   Thumb Code     0  entry10a.o(.ARM.Collect$$$$0000000D)
    __rt_final_exit                          0x08000141   Thumb Code     0  entry11a.o(.ARM.Collect$$$$0000000F)
    SystemInit_ExtMemCtl                     0x08000145   Thumb Code     2  startup_stm32f10x_hd.o(.text)
    Reset_Handler                            0x08000147   Thumb Code    14  startup_stm32f10x_hd.o(.text)
    ADC1_2_IRQHandler                        0x08000167   Thumb Code     0  startup_stm32f10x_hd.o(.text)
    ADC3_IRQHandler                          0x08000167   Thumb Code     0  startup_stm32f10x_hd.o(.text)
    CAN1_RX1_IRQHandler                      0x08000167   Thumb Code     0  startup_stm32f10x_hd.o(.text)
    CAN1_SCE_IRQHandler                      0x08000167   Thumb Code     0  startup_stm32f10x_hd.o(.text)
    DMA1_Channel1_IRQHandler                 0x08000167   Thumb Code     0  startup_stm32f10x_hd.o(.text)
    DMA1_Channel2_IRQHandler                 0x08000167   Thumb Code     0  startup_stm32f10x_hd.o(.text)
    DMA1_Channel3_IRQHandler                 0x08000167   Thumb Code     0  startup_stm32f10x_hd.o(.text)
    DMA1_Channel4_IRQHandler                 0x08000167   Thumb Code     0  startup_stm32f10x_hd.o(.text)
    DMA1_Channel5_IRQHandler                 0x08000167   Thumb Code     0  startup_stm32f10x_hd.o(.text)
    DMA1_Channel6_IRQHandler                 0x08000167   Thumb Code     0  startup_stm32f10x_hd.o(.text)
    DMA1_Channel7_IRQHandler                 0x08000167   Thumb Code     0  startup_stm32f10x_hd.o(.text)
    DMA2_Channel1_IRQHandler                 0x08000167   Thumb Code     0  startup_stm32f10x_hd.o(.text)
    DMA2_Channel2_IRQHandler                 0x08000167   Thumb Code     0  startup_stm32f10x_hd.o(.text)
    DMA2_Channel3_IRQHandler                 0x08000167   Thumb Code     0  startup_stm32f10x_hd.o(.text)
    DMA2_Channel4_5_IRQHandler               0x08000167   Thumb Code     0  startup_stm32f10x_hd.o(.text)
    EXTI0_IRQHandler                         0x08000167   Thumb Code     0  startup_stm32f10x_hd.o(.text)
    EXTI15_10_IRQHandler                     0x08000167   Thumb Code     0  startup_stm32f10x_hd.o(.text)
    EXTI1_IRQHandler                         0x08000167   Thumb Code     0  startup_stm32f10x_hd.o(.text)
    EXTI2_IRQHandler                         0x08000167   Thumb Code     0  startup_stm32f10x_hd.o(.text)
    EXTI3_IRQHandler                         0x08000167   Thumb Code     0  startup_stm32f10x_hd.o(.text)
    EXTI4_IRQHandler                         0x08000167   Thumb Code     0  startup_stm32f10x_hd.o(.text)
    EXTI9_5_IRQHandler                       0x08000167   Thumb Code     0  startup_stm32f10x_hd.o(.text)
    FLASH_IRQHandler                         0x08000167   Thumb Code     0  startup_stm32f10x_hd.o(.text)
    FSMC_IRQHandler                          0x08000167   Thumb Code     0  startup_stm32f10x_hd.o(.text)
    I2C1_ER_IRQHandler                       0x08000167   Thumb Code     0  startup_stm32f10x_hd.o(.text)
    I2C1_EV_IRQHandler                       0x08000167   Thumb Code     0  startup_stm32f10x_hd.o(.text)
    I2C2_ER_IRQHandler                       0x08000167   Thumb Code     0  startup_stm32f10x_hd.o(.text)
    I2C2_EV_IRQHandler                       0x08000167   Thumb Code     0  startup_stm32f10x_hd.o(.text)
    PVD_IRQHandler                           0x08000167   Thumb Code     0  startup_stm32f10x_hd.o(.text)
    RCC_IRQHandler                           0x08000167   Thumb Code     0  startup_stm32f10x_hd.o(.text)
    RTCAlarm_IRQHandler                      0x08000167   Thumb Code     0  startup_stm32f10x_hd.o(.text)
    RTC_IRQHandler                           0x08000167   Thumb Code     0  startup_stm32f10x_hd.o(.text)
    SDIO_IRQHandler                          0x08000167   Thumb Code     0  startup_stm32f10x_hd.o(.text)
    SPI1_IRQHandler                          0x08000167   Thumb Code     0  startup_stm32f10x_hd.o(.text)
    SPI2_IRQHandler                          0x08000167   Thumb Code     0  startup_stm32f10x_hd.o(.text)
    SPI3_IRQHandler                          0x08000167   Thumb Code     0  startup_stm32f10x_hd.o(.text)
    TAMPER_IRQHandler                        0x08000167   Thumb Code     0  startup_stm32f10x_hd.o(.text)
    TIM1_BRK_IRQHandler                      0x08000167   Thumb Code     0  startup_stm32f10x_hd.o(.text)
    TIM1_CC_IRQHandler                       0x08000167   Thumb Code     0  startup_stm32f10x_hd.o(.text)
    TIM1_TRG_COM_IRQHandler                  0x08000167   Thumb Code     0  startup_stm32f10x_hd.o(.text)
    TIM1_UP_IRQHandler                       0x08000167   Thumb Code     0  startup_stm32f10x_hd.o(.text)
    TIM2_IRQHandler                          0x08000167   Thumb Code     0  startup_stm32f10x_hd.o(.text)
    TIM3_IRQHandler                          0x08000167   Thumb Code     0  startup_stm32f10x_hd.o(.text)
    TIM4_IRQHandler                          0x08000167   Thumb Code     0  startup_stm32f10x_hd.o(.text)
    TIM5_IRQHandler                          0x08000167   Thumb Code     0  startup_stm32f10x_hd.o(.text)
    TIM6_IRQHandler                          0x08000167   Thumb Code     0  startup_stm32f10x_hd.o(.text)
    TIM7_IRQHandler                          0x08000167   Thumb Code     0  startup_stm32f10x_hd.o(.text)
    TIM8_BRK_IRQHandler                      0x08000167   Thumb Code     0  startup_stm32f10x_hd.o(.text)
    TIM8_CC_IRQHandler                       0x08000167   Thumb Code     0  startup_stm32f10x_hd.o(.text)
    TIM8_TRG_COM_IRQHandler                  0x08000167   Thumb Code     0  startup_stm32f10x_hd.o(.text)
    TIM8_UP_IRQHandler                       0x08000167   Thumb Code     0  startup_stm32f10x_hd.o(.text)
    UART4_IRQHandler                         0x08000167   Thumb Code     0  startup_stm32f10x_hd.o(.text)
    UART5_IRQHandler                         0x08000167   Thumb Code     0  startup_stm32f10x_hd.o(.text)
    USART3_IRQHandler                        0x08000167   Thumb Code     0  startup_stm32f10x_hd.o(.text)
    USBWakeUp_IRQHandler                     0x08000167   Thumb Code     0  startup_stm32f10x_hd.o(.text)
    USB_HP_CAN1_TX_IRQHandler                0x08000167   Thumb Code     0  startup_stm32f10x_hd.o(.text)
    USB_LP_CAN1_RX0_IRQHandler               0x08000167   Thumb Code     0  startup_stm32f10x_hd.o(.text)
    WWDG_IRQHandler                          0x08000167   Thumb Code     0  startup_stm32f10x_hd.o(.text)
    OS_CPU_SR_Save                           0x08000175   Thumb Code     0  os_cpu_a.o(.text)
    OS_CPU_SR_Restore                        0x0800017d   Thumb Code     0  os_cpu_a.o(.text)
    OSStartHighRdy                           0x08000183   Thumb Code     0  os_cpu_a.o(.text)
    OSCtxSw                                  0x080001a3   Thumb Code     0  os_cpu_a.o(.text)
    OSIntCtxSw                               0x080001ad   Thumb Code     0  os_cpu_a.o(.text)
    OS_CPU_PendSVHandler                     0x080001b7   Thumb Code     0  os_cpu_a.o(.text)
    tolower                                  0x08000219   Thumb Code    12  tolower.o(.text)
    __aeabi_memset                           0x08000225   Thumb Code    14  memseta.o(.text)
    __aeabi_memset4                          0x08000225   Thumb Code     0  memseta.o(.text)
    __aeabi_memset8                          0x08000225   Thumb Code     0  memseta.o(.text)
    __aeabi_memclr                           0x08000233   Thumb Code     4  memseta.o(.text)
    __aeabi_memclr4                          0x08000233   Thumb Code     0  memseta.o(.text)
    __aeabi_memclr8                          0x08000233   Thumb Code     0  memseta.o(.text)
    _memset$wrapper                          0x08000237   Thumb Code    18  memseta.o(.text)
    strcat                                   0x08000249   Thumb Code    24  strcat.o(.text)
    strstr                                   0x08000261   Thumb Code    36  strstr.o(.text)
    strncpy                                  0x08000285   Thumb Code    24  strncpy.o(.text)
    strlen                                   0x0800029d   Thumb Code    14  strlen.o(.text)
    strcmp                                   0x080002ab   Thumb Code    28  strcmp.o(.text)
    strcpy                                   0x080002c7   Thumb Code    18  strcpy.o(.text)
    strncmp                                  0x080002d9   Thumb Code    30  strncmp.o(.text)
    _scanf_real                              0x080003f9   Thumb Code     0  scanf_fp.o(.text)
    _scanf_really_real                       0x080003f9   Thumb Code   556  scanf_fp.o(.text)
    atoi                                     0x08000631   Thumb Code    26  atoi.o(.text)
    __aeabi_dmul                             0x0800064b   Thumb Code   228  dmul.o(.text)
    __aeabi_d2iz                             0x0800072f   Thumb Code    62  dfixi.o(.text)
    __aeabi_cdcmpeq                          0x0800076d   Thumb Code     0  cdcmple.o(.text)
    __aeabi_cdcmple                          0x0800076d   Thumb Code    48  cdcmple.o(.text)
    __aeabi_cdrcmple                         0x0800079d   Thumb Code    48  cdrcmple.o(.text)
    __aeabi_uidiv                            0x080007cd   Thumb Code     0  uidiv.o(.text)
    __aeabi_uidivmod                         0x080007cd   Thumb Code    44  uidiv.o(.text)
    __aeabi_uldivmod                         0x080007f9   Thumb Code    98  uldiv.o(.text)
    __aeabi_llsr                             0x0800085b   Thumb Code    32  llushr.o(.text)
    _ll_ushift_r                             0x0800085b   Thumb Code     0  llushr.o(.text)
    _sgetc                                   0x0800087b   Thumb Code    30  _sgetc.o(.text)
    _sbackspace                              0x08000899   Thumb Code    34  _sgetc.o(.text)
    __strtod_int                             0x080008f3   Thumb Code    90  strtod.o(.text)
    strtol                                   0x08000959   Thumb Code   112  strtol.o(.text)
    __I$use$fp                               0x080009c9   Thumb Code     0  iusefp.o(.text)
    _double_round                            0x080009c9   Thumb Code    30  depilogue.o(.text)
    _double_epilogue                         0x080009e7   Thumb Code   156  depilogue.o(.text)
    __aeabi_dadd                             0x08000a83   Thumb Code   322  dadd.o(.text)
    __aeabi_dsub                             0x08000bc5   Thumb Code     6  dadd.o(.text)
    __aeabi_drsub                            0x08000bcb   Thumb Code     6  dadd.o(.text)
    __aeabi_ddiv                             0x08000bd1   Thumb Code   222  ddiv.o(.text)
    __aeabi_ul2d                             0x08000caf   Thumb Code    24  dfltul.o(.text)
    __aeabi_d2ulz                            0x08000cc7   Thumb Code    48  dfixul.o(.text)
    __aeabi_d2f                              0x08000cf7   Thumb Code    56  d2f.o(.text)
    __scatterload                            0x08000d31   Thumb Code    28  init.o(.text)
    __scatterload_rt2                        0x08000d31   Thumb Code     0  init.o(.text)
    __aeabi_llsl                             0x08000d55   Thumb Code    30  llshl.o(.text)
    _ll_shift_l                              0x08000d55   Thumb Code     0  llshl.o(.text)
    __aeabi_lasr                             0x08000d73   Thumb Code    36  llsshr.o(.text)
    _ll_sshift_r                             0x08000d73   Thumb Code     0  llsshr.o(.text)
    __rt_ctype_table                         0x08000d99   Thumb Code     4  ctype_o.o(.text)
    isspace                                  0x08000da1   Thumb Code    18  isspace_o.o(.text)
    _strtoul                                 0x08000db3   Thumb Code   158  _strtoul.o(.text)
    _float_round                             0x08000e51   Thumb Code    18  fepilogue.o(.text)
    _float_epilogue                          0x08000e63   Thumb Code    92  fepilogue.o(.text)
    _chval                                   0x08000ebf   Thumb Code    28  _chval.o(.text)
    BSP_Init                                 0x08000edd   Thumb Code    22  bsp.o(i.BSP_Init)
    BusFault_Handler                         0x08000ef9   Thumb Code     4  stm32f10x_it.o(i.BusFault_Handler)
    DebugMon_Handler                         0x08000efd   Thumb Code     2  stm32f10x_it.o(i.DebugMon_Handler)
    GPIO_Init                                0x08000eff   Thumb Code   278  stm32f10x_gpio.o(i.GPIO_Init)
    GPIO_ResetBits                           0x08001015   Thumb Code     4  stm32f10x_gpio.o(i.GPIO_ResetBits)
    GPIO_SetBits                             0x08001019   Thumb Code     4  stm32f10x_gpio.o(i.GPIO_SetBits)
    HardFault_Handler                        0x0800101d   Thumb Code     4  stm32f10x_it.o(i.HardFault_Handler)
    LED_GPIO_Config                          0x08001021   Thumb Code    50  led.o(i.LED_GPIO_Config)
    MemManage_Handler                        0x08001059   Thumb Code     4  stm32f10x_it.o(i.MemManage_Handler)
    NMI_Handler                              0x0800105d   Thumb Code     2  stm32f10x_it.o(i.NMI_Handler)
    NVIC_Init                                0x080010a5   Thumb Code   100  misc.o(i.NVIC_Init)
    OSInit                                   0x08001115   Thumb Code    40  os_core.o(i.OSInit)
    OSInitHookBegin                          0x0800113d   Thumb Code     2  os_cpu_c.o(i.OSInitHookBegin)
    OSInitHookEnd                            0x0800113f   Thumb Code     2  os_cpu_c.o(i.OSInitHookEnd)
    OSIntEnter                               0x08001141   Thumb Code    28  os_core.o(i.OSIntEnter)
    OSIntExit                                0x08001165   Thumb Code   112  os_core.o(i.OSIntExit)
    OSMutexCreate                            0x080011f5   Thumb Code   162  os_mutex.o(i.OSMutexCreate)
    OSMutexPend                              0x080012a5   Thumb Code   550  os_mutex.o(i.OSMutexPend)
    OSMutexPost                              0x080014e5   Thumb Code   194  os_mutex.o(i.OSMutexPost)
    OSQCreate                                0x08001631   Thumb Code   150  os_q.o(i.OSQCreate)
    OSQPend                                  0x080016d5   Thumb Code   294  os_q.o(i.OSQPend)
    OSQPost                                  0x08001809   Thumb Code   120  os_q.o(i.OSQPost)
    OSQQuery                                 0x08001881   Thumb Code   112  os_q.o(i.OSQQuery)
    OSStart                                  0x080018f1   Thumb Code    48  os_core.o(i.OSStart)
    OSTCBInitHook                            0x08001939   Thumb Code     2  os_cpu_c.o(i.OSTCBInitHook)
    OSTaskCreate                             0x0800193d   Thumb Code   158  os_task.o(i.OSTaskCreate)
    OSTaskCreateExt                          0x080019e9   Thumb Code   180  os_task.o(i.OSTaskCreateExt)
    OSTaskCreateHook                         0x08001aa9   Thumb Code     2  os_cpu_c.o(i.OSTaskCreateHook)
    OSTaskIdleHook                           0x08001aab   Thumb Code     2  os_cpu_c.o(i.OSTaskIdleHook)
    OSTaskNameSet                            0x08001aad   Thumb Code   160  os_task.o(i.OSTaskNameSet)
    OSTaskStatHook                           0x08001b59   Thumb Code     2  os_cpu_c.o(i.OSTaskStatHook)
    OSTaskStkChk                             0x08001b5d   Thumb Code   150  os_task.o(i.OSTaskStkChk)
    OSTaskStkInit                            0x08001bfd   Thumb Code   154  os_cpu_c.o(i.OSTaskStkInit)
    OSTaskSuspend                            0x08001c99   Thumb Code   172  os_task.o(i.OSTaskSuspend)
    OSTaskSwHook                             0x08001d55   Thumb Code     2  os_cpu_c.o(i.OSTaskSwHook)
    OSTimeDly                                0x08001d59   Thumb Code    96  os_time.o(i.OSTimeDly)
    OSTimeDlyHMSM                            0x08001dc9   Thumb Code   160  os_time.o(i.OSTimeDlyHMSM)
    OSTimeGet                                0x08001e6d   Thumb Code    24  os_time.o(i.OSTimeGet)
    OSTimeTick                               0x08001e89   Thumb Code   210  os_core.o(i.OSTimeTick)
    OSTimeTickHook                           0x08001f75   Thumb Code     2  os_cpu_c.o(i.OSTimeTickHook)
    OS_EventTaskRdy                          0x08001f79   Thumb Code   114  os_core.o(i.OS_EventTaskRdy)
    OS_EventTaskRemove                       0x08001ffd   Thumb Code    42  os_core.o(i.OS_EventTaskRemove)
    OS_EventTaskWait                         0x08002029   Thumb Code   112  os_core.o(i.OS_EventTaskWait)
    OS_EventWaitListInit                     0x080020a5   Thumb Code    28  os_core.o(i.OS_EventWaitListInit)
    OS_MemClr                                0x080022b5   Thumb Code    18  os_core.o(i.OS_MemClr)
    OS_QInit                                 0x080022c9   Thumb Code    46  os_q.o(i.OS_QInit)
    OS_Sched                                 0x08002301   Thumb Code    86  os_core.o(i.OS_Sched)
    OS_StrCopy                               0x080023a1   Thumb Code    28  os_core.o(i.OS_StrCopy)
    OS_StrLen                                0x080023bd   Thumb Code    20  os_core.o(i.OS_StrLen)
    OS_TCBInit                               0x080023d1   Thumb Code   258  os_core.o(i.OS_TCBInit)
    OS_TaskIdle                              0x080024ed   Thumb Code    32  os_core.o(i.OS_TaskIdle)
    OS_TaskStat                              0x08002511   Thumb Code   114  os_core.o(i.OS_TaskStat)
    OS_TaskStatStkChk                        0x08002599   Thumb Code    54  os_core.o(i.OS_TaskStatStkChk)
    OS_TaskStkClr                            0x080025d5   Thumb Code    26  os_task.o(i.OS_TaskStkClr)
    RCC_APB1PeriphClockCmd                   0x080025f1   Thumb Code    26  stm32f10x_rcc.o(i.RCC_APB1PeriphClockCmd)
    RCC_APB2PeriphClockCmd                   0x08002611   Thumb Code    26  stm32f10x_rcc.o(i.RCC_APB2PeriphClockCmd)
    RCC_GetClocksFreq                        0x08002631   Thumb Code   192  stm32f10x_rcc.o(i.RCC_GetClocksFreq)
    SVC_Handler                              0x08002705   Thumb Code     2  stm32f10x_it.o(i.SVC_Handler)
    SysTick_Handler                          0x080027f5   Thumb Code    16  stm32f10x_it.o(i.SysTick_Handler)
    SysTick_init                             0x08002805   Thumb Code    84  bsp.o(i.SysTick_init)
    SystemInit                               0x08002865   Thumb Code    68  system_stm32f10x.o(i.SystemInit)
    Task_Start                               0x080028b5   Thumb Code   668  app.o(i.Task_Start)
    USART1_IRQHandler                        0x08002e15   Thumb Code    58  stm32f10x_it.o(i.USART1_IRQHandler)
    USART2_IRQHandler                        0x08002e55   Thumb Code    72  stm32f10x_it.o(i.USART2_IRQHandler)
    USART_ClearITPendingBit                  0x08002ea5   Thumb Code    20  stm32f10x_usart.o(i.USART_ClearITPendingBit)
    USART_Cmd                                0x08002eb9   Thumb Code    24  stm32f10x_usart.o(i.USART_Cmd)
    USART_GetFlagStatus                      0x08002ed1   Thumb Code    18  stm32f10x_usart.o(i.USART_GetFlagStatus)
    USART_GetITStatus                        0x08002ee3   Thumb Code    76  stm32f10x_usart.o(i.USART_GetITStatus)
    USART_ITConfig                           0x08002f2f   Thumb Code    64  stm32f10x_usart.o(i.USART_ITConfig)
    USART_Init                               0x08002f71   Thumb Code   150  stm32f10x_usart.o(i.USART_Init)
    USART_ReceiveData                        0x0800300d   Thumb Code    10  stm32f10x_usart.o(i.USART_ReceiveData)
    USART_SendData                           0x08003017   Thumb Code     8  stm32f10x_usart.o(i.USART_SendData)
    UsageFault_Handler                       0x0800301f   Thumb Code     4  stm32f10x_it.o(i.UsageFault_Handler)
    Usart_SendBytes                          0x08003023   Thumb Code    44  user_usart.o(i.Usart_SendBytes)
    Usart_SendOneByte                        0x0800304f   Thumb Code    30  user_usart.o(i.Usart_SendOneByte)
    __0printf                                0x0800306d   Thumb Code    22  printfa.o(i.__0printf)
    __1printf                                0x0800306d   Thumb Code     0  printfa.o(i.__0printf)
    __2printf                                0x0800306d   Thumb Code     0  printfa.o(i.__0printf)
    __c89printf                              0x0800306d   Thumb Code     0  printfa.o(i.__0printf)
    printf                                   0x0800306d   Thumb Code     0  printfa.o(i.__0printf)
    __0sprintf                               0x0800308d   Thumb Code    34  printfa.o(i.__0sprintf)
    __1sprintf                               0x0800308d   Thumb Code     0  printfa.o(i.__0sprintf)
    __2sprintf                               0x0800308d   Thumb Code     0  printfa.o(i.__0sprintf)
    __c89sprintf                             0x0800308d   Thumb Code     0  printfa.o(i.__0sprintf)
    sprintf                                  0x0800308d   Thumb Code     0  printfa.o(i.__0sprintf)
    __aeabi_errno_addr                       0x080030b5   Thumb Code     4  errno.o(i.__aeabi_errno_addr)
    __rt_errno_addr                          0x080030b5   Thumb Code     0  errno.o(i.__aeabi_errno_addr)
    __scatterload_copy                       0x080030bd   Thumb Code    14  handlers.o(i.__scatterload_copy)
    __scatterload_null                       0x080030cb   Thumb Code     2  handlers.o(i.__scatterload_null)
    __scatterload_zeroinit                   0x080030cd   Thumb Code    14  handlers.o(i.__scatterload_zeroinit)
    _is_digit                                0x08003261   Thumb Code    14  scanf_fp.o(i._is_digit)
    cJSON_Delete                             0x080039e5   Thumb Code    84  cjson.o(i.cJSON_Delete)
    cJSON_GetObjectItem                      0x08003a3d   Thumb Code    18  cjson.o(i.cJSON_GetObjectItem)
    cJSON_InitHooks                          0x08003a51   Thumb Code    82  cjson.o(i.cJSON_InitHooks)
    cJSON_Parse                              0x08003acf   Thumb Code    16  cjson.o(i.cJSON_Parse)
    cJSON_ParseWithOpts                      0x08003ae1   Thumb Code   204  cjson.o(i.cJSON_ParseWithOpts)
    device_activate_event                    0x08003bfd   Thumb Code  1782  sim7600.o(i.device_activate_event)
    device_get_token_event                   0x08004301   Thumb Code  1720  sim7600.o(i.device_get_token_event)
    device_ota_check_event                   0x080049c5   Thumb Code  1874  sim7600.o(i.device_ota_check_event)
    empty_rx_buff                            0x08005125   Thumb Code    26  sim7600.o(i.empty_rx_buff)
    fputc                                    0x08005141   Thumb Code    32  user_usart1.o(i.fputc)
    is_queue_empty                           0x080051cd   Thumb Code    54  app.o(i.is_queue_empty)
    is_queue_full                            0x08005203   Thumb Code    60  app.o(i.is_queue_full)
    main                                     0x08005241   Thumb Code    36  main.o(i.main)
    mem_free                                 0x0800526d   Thumb Code    96  malloc.o(i.mem_free)
    mem_free_size                            0x080052d9   Thumb Code    38  malloc.o(i.mem_free_size)
    mem_init                                 0x08005309   Thumb Code    54  malloc.o(i.mem_init)
    mem_malloc                               0x0800534d   Thumb Code   164  malloc.o(i.mem_malloc)
    mem_perused                              0x080053fd   Thumb Code    44  malloc.o(i.mem_perused)
    mqtt_init_event                          0x08005431   Thumb Code   604  sim7600.o(i.mqtt_init_event)
    myfree                                   0x08005851   Thumb Code    26  malloc.o(i.myfree)
    mymalloc                                 0x08005871   Thumb Code    30  malloc.o(i.mymalloc)
    mymemcpy                                 0x08005895   Thumb Code    26  malloc.o(i.mymemcpy)
    mymemset                                 0x080058af   Thumb Code    20  malloc.o(i.mymemset)
    myrealloc                                0x080058c5   Thumb Code    52  malloc.o(i.myrealloc)
    parse_sim7600_cmd_result                 0x08005cc1   Thumb Code  3254  sim7600.o(i.parse_sim7600_cmd_result)
    rbClear                                  0x08006c79   Thumb Code    14  ringbuffer.o(i.rbClear)
    rbInitialize                             0x08006c87   Thumb Code    18  ringbuffer.o(i.rbInitialize)
    rbIsEmpty                                0x08006c99   Thumb Code    18  ringbuffer.o(i.rbIsEmpty)
    rbPop                                    0x08006cab   Thumb Code    42  ringbuffer.o(i.rbPop)
    rbPush                                   0x08006cd5   Thumb Code    36  ringbuffer.o(i.rbPush)
    sim7600_disnable_command_echo            0x08006d05   Thumb Code    64  sim7600.o(i.sim7600_disnable_command_echo)
    sim7600_event_scan                       0x08006d55   Thumb Code   294  sim7600.o(i.sim7600_event_scan)
    sim7600_fogcloud_init_and_monitor_task   0x08006f65   Thumb Code   454  sim7600.o(i.sim7600_fogcloud_init_and_monitor_task)
    sim7600_get_ccid                         0x080071b9   Thumb Code    64  sim7600.o(i.sim7600_get_ccid)
    sim7600_get_mqtt_message                 0x0800720d   Thumb Code   510  sim7600.o(i.sim7600_get_mqtt_message)
    sim7600_http_close                       0x08007509   Thumb Code    70  sim7600.o(i.sim7600_http_close)
    sim7600_http_loop                        0x08007571   Thumb Code  2074  sim7600.o(i.sim7600_http_loop)
    sim7600_mqtt_close                       0x08007e0d   Thumb Code   132  sim7600.o(i.sim7600_mqtt_close)
    sim7600_mqtt_loop                        0x08007ec1   Thumb Code   236  sim7600.o(i.sim7600_mqtt_loop)
    sim7600_power_restart                    0x08008021   Thumb Code   194  sim7600.o(i.sim7600_power_restart)
    sim7600_powerkey_off                     0x08008179   Thumb Code   134  sim7600.o(i.sim7600_powerkey_off)
    sim7600_powerkey_on                      0x0800824d   Thumb Code   138  sim7600.o(i.sim7600_powerkey_on)
    sim7600_powerkey_pin_init                0x08008321   Thumb Code    50  sim7600.o(i.sim7600_powerkey_pin_init)
    sim7600_send_data                        0x08008359   Thumb Code  1864  sim7600.o(i.sim7600_send_data)
    sim7600_task                             0x08008ab5   Thumb Code   232  user_sim7600_task.o(i.sim7600_task)
    sim7600_usart_begin                      0x08008be9   Thumb Code     8  user_sim7600_task.o(i.sim7600_usart_begin)
    sim7600_usart_rb_initialize              0x08008bf1   Thumb Code    18  user_sim7600_task.o(i.sim7600_usart_rb_initialize)
    sim7600_usart_read                       0x08008c0d   Thumb Code    24  user_sim7600_task.o(i.sim7600_usart_read)
    sim7600_usart_recv_available             0x08008c29   Thumb Code    32  user_sim7600_task.o(i.sim7600_usart_recv_available)
    sim7600_usart_recv_handler               0x08008c4d   Thumb Code    22  user_sim7600_task.o(i.sim7600_usart_recv_handler)
    sim7600_wait_response                    0x08008c6d   Thumb Code   452  sim7600.o(i.sim7600_wait_response)
    string_get_int                           0x08008f55   Thumb Code   152  sim7600.o(i.string_get_int)
    strtod                                   0x08008ff1   Thumb Code    28  strtod.o(i.strtod)
    uart_sim7600_sendbytes                   0x0800900d   Thumb Code    18  user_sim7600_task.o(i.uart_sim7600_sendbytes)
    upload_data_event                        0x08009025   Thumb Code   622  sim7600.o(i.upload_data_event)
    usart2_config                            0x080093d9   Thumb Code   134  user_usart2.o(i.usart2_config)
    usart3_config                            0x08009465   Thumb Code   138  user_usart3.o(i.usart3_config)
    user_mqtt_task                           0x080094f5   Thumb Code   112  user_mqtt_task.o(i.user_mqtt_task)
    user_upload_data_task                    0x080095b5   Thumb Code   144  user_upload_data.o(i.user_upload_data_task)
    wifi_led_off                             0x080097e5   Thumb Code    16  sim7600.o(i.wifi_led_off)
    wifi_led_on                              0x080097f9   Thumb Code    14  sim7600.o(i.wifi_led_on)
    SystemFrequency                          0x0800980c   Data           4  system_stm32f10x.o(.constdata)
    SystemFrequency_SysClk                   0x08009810   Data           4  system_stm32f10x.o(.constdata)
    SystemFrequency_AHBClk                   0x08009814   Data           4  system_stm32f10x.o(.constdata)
    SystemFrequency_APB1Clk                  0x08009818   Data           4  system_stm32f10x.o(.constdata)
    SystemFrequency_APB2Clk                  0x0800981c   Data           4  system_stm32f10x.o(.constdata)
    OSUnMapTbl                               0x08009820   Data         256  os_core.o(.constdata)
    memtblsize                               0x08009920   Data           4  malloc.o(.constdata)
    memblksize                               0x08009924   Data           4  malloc.o(.constdata)
    memsize                                  0x08009928   Data           4  malloc.o(.constdata)
    __ctype_table                            0x0800992c   Data         129  ctype_o.o(.constdata)
    Region$$Table$$Base                      0x08009a98   Number         0  anon$$obj.o(Region$$Table)
    Region$$Table$$Limit                     0x08009ab8   Number         0  anon$$obj.o(Region$$Table)
    stdio_tx_mutex                           0x20000000   Data           4  main.o(.data)
    Is_Get_CCID                              0x20000005   Data           1  sim7600.o(.data)
    Is_device_activate                       0x20000006   Data           1  sim7600.o(.data)
    is_get_token                             0x20000007   Data           1  sim7600.o(.data)
    is_need_updata_token                     0x20000008   Data           1  sim7600.o(.data)
    is_ota_check                             0x20000009   Data           1  sim7600.o(.data)
    sim7600_action                           0x2000000b   Data           1  sim7600.o(.data)
    mqtt_passowrd                            0x20000010   Data           2  sim7600.o(.data)
    is_sim7600_fogcloud_init                 0x20000012   Data           1  sim7600.o(.data)
    signal_quality                           0x20000014   Data           4  sim7600.o(.data)
    Is_signal_err_code_zero                  0x20000018   Data           1  sim7600.o(.data)
    Is_signal_check                          0x20000019   Data           1  sim7600.o(.data)
    signal_check_err_times                   0x2000001a   Data           1  sim7600.o(.data)
    wifi_led_state                           0x2000001b   Data           1  sim7600.o(.data)
    is_module_powered                        0x20000024   Data           1  sim7600.o(.data)
    sim7600_register_net                     0x20000026   Data           1  sim7600.o(.data)
    uart_sim7600_rx_index                    0x20000030   Data           2  user_sim7600_task.o(.data)
    upload_data_queue                        0x20000048   Data           4  app.o(.data)
    upload_res_queue                         0x2000004c   Data           4  app.o(.data)
    mqtt_action_cmd_queue                    0x20000050   Data           4  app.o(.data)
    mqtt_action_res_queue                    0x20000054   Data           4  app.o(.data)
    mqtt_message_queue                       0x20000058   Data           4  app.o(.data)
    upload_data_mutex                        0x2000005c   Data           4  app.o(.data)
    upload_data_msg                          0x20000060   Data           4  app.o(.data)
    upload_res_msg                           0x20000064   Data           4  app.o(.data)
    mqtt_action_cmd_msg                      0x20000068   Data           4  app.o(.data)
    mqtt_action_res_msg                      0x2000006c   Data           4  app.o(.data)
    OSCtxSwCtr                               0x20000070   Data           4  os_core.o(.data)
    OSEventFreeList                          0x20000074   Data           4  os_core.o(.data)
    OSCPUUsage                               0x20000078   Data           1  os_core.o(.data)
    OSIdleCtrMax                             0x2000007c   Data           4  os_core.o(.data)
    OSIdleCtrRun                             0x20000080   Data           4  os_core.o(.data)
    OSStatRdy                                0x20000084   Data           1  os_core.o(.data)
    OSIntNesting                             0x20000085   Data           1  os_core.o(.data)
    OSLockNesting                            0x20000086   Data           1  os_core.o(.data)
    OSPrioCur                                0x20000087   Data           1  os_core.o(.data)
    OSPrioHighRdy                            0x20000088   Data           1  os_core.o(.data)
    OSRdyGrp                                 0x20000089   Data           1  os_core.o(.data)
    OSRdyTbl                                 0x2000008a   Data           4  os_core.o(.data)
    OSRunning                                0x2000008e   Data           1  os_core.o(.data)
    OSTaskCtr                                0x2000008f   Data           1  os_core.o(.data)
    OSIdleCtr                                0x20000090   Data           4  os_core.o(.data)
    OSTCBCur                                 0x20000094   Data           4  os_core.o(.data)
    OSTCBFreeList                            0x20000098   Data           4  os_core.o(.data)
    OSTCBHighRdy                             0x2000009c   Data           4  os_core.o(.data)
    OSTCBList                                0x200000a0   Data           4  os_core.o(.data)
    OSTickStepState                          0x200000a4   Data           1  os_core.o(.data)
    OSQFreeList                              0x200000a8   Data           4  os_core.o(.data)
    OSTime                                   0x200000ac   Data           4  os_core.o(.data)
    mallco_dev                               0x200000b0   Data          20  malloc.o(.data)
    __stdout                                 0x200000d8   Data           4  stdout.o(.data)
    startup_task_stk                         0x200000e0   Data         320  main.o(.bss)
    token_buff                               0x20000220   Data         200  sim7600.o(.bss)
    order_num                                0x200002e8   Data          41  sim7600.o(.bss)
    ccid                                     0x20000311   Data          40  sim7600.o(.bss)
    device_id                                0x20000339   Data          40  sim7600.o(.bss)
    sim7600_cmd_info                         0x20000380   Data         112  sim7600.o(.bss)
    uart_sim7600_rx_buff                     0x200003f0   Data         512  user_sim7600_task.o(.bss)
    m_SIM7600_Uasrt_RingBuff                 0x200005f0   Data          20  user_sim7600_task.o(.bss)
    user_mqtt_task_stk                       0x20000604   Data         512  app.o(.bss)
    user_l506_task_stk                       0x20000804   Data        1200  app.o(.bss)
    user_upload_data_task_stk                0x20000cb4   Data        1024  app.o(.bss)
    fogcloud_init_and_monitor_task_stk       0x200010b4   Data        1120  app.o(.bss)
    mqtt_data_msg                            0x20001514   Data          12  app.o(.bss)
    OSEventTbl                               0x20001520   Data         320  os_core.o(.bss)
    OSTaskStatStk                            0x20001660   Data         512  os_core.o(.bss)
    OSTaskIdleStk                            0x20001860   Data         512  os_core.o(.bss)
    OSTCBPrioTbl                             0x20001a60   Data         128  os_core.o(.bss)
    OSTCBTbl                                 0x20001ae0   Data        1512  os_core.o(.bss)
    OSQTbl                                   0x200020c8   Data         144  os_core.o(.bss)
    mem1base                                 0x20002158   Data       10240  malloc.o(.bss)
    mem1mapbase                              0x20004958   Data         640  malloc.o(.bss)
    __initial_sp                             0x20004dd8   Data           0  startup_stm32f10x_hd.o(STACK)



==============================================================================

Memory Map of the image

  Image Entry point : 0x08000131

  Load Region LR_IROM1 (Base: 0x08000000, Size: 0x00009b98, Max: 0x00010000, ABSOLUTE)

    Execution Region ER_IROM1 (Base: 0x08000000, Size: 0x00009ab8, Max: 0x00010000, ABSOLUTE)

    Base Addr    Size         Type   Attr      Idx    E Section Name        Object

    0x08000000   0x00000130   Data   RO            3    RESET               startup_stm32f10x_hd.o
    0x08000130   0x00000000   Code   RO         3037  * .ARM.Collect$$$$00000000  mc_w.l(entry.o)
    0x08000130   0x00000004   Code   RO         3345    .ARM.Collect$$$$00000001  mc_w.l(entry2.o)
    0x08000134   0x00000004   Code   RO         3348    .ARM.Collect$$$$00000004  mc_w.l(entry5.o)
    0x08000138   0x00000000   Code   RO         3350    .ARM.Collect$$$$00000008  mc_w.l(entry7b.o)
    0x08000138   0x00000000   Code   RO         3352    .ARM.Collect$$$$0000000A  mc_w.l(entry8b.o)
    0x08000138   0x00000008   Code   RO         3353    .ARM.Collect$$$$0000000B  mc_w.l(entry9a.o)
    0x08000140   0x00000000   Code   RO         3355    .ARM.Collect$$$$0000000D  mc_w.l(entry10a.o)
    0x08000140   0x00000000   Code   RO         3357    .ARM.Collect$$$$0000000F  mc_w.l(entry11a.o)
    0x08000140   0x00000004   Code   RO         3346    .ARM.Collect$$$$00002712  mc_w.l(entry2.o)
    0x08000144   0x00000030   Code   RO            4    .text               startup_stm32f10x_hd.o
    0x08000174   0x000000a4   Code   RO         2045    .text               os_cpu_a.o
    0x08000218   0x0000000c   Code   RO         3040    .text               mc_w.l(tolower.o)
    0x08000224   0x00000024   Code   RO         3044    .text               mc_w.l(memseta.o)
    0x08000248   0x00000018   Code   RO         3046    .text               mc_w.l(strcat.o)
    0x08000260   0x00000024   Code   RO         3048    .text               mc_w.l(strstr.o)
    0x08000284   0x00000018   Code   RO         3050    .text               mc_w.l(strncpy.o)
    0x0800029c   0x0000000e   Code   RO         3052    .text               mc_w.l(strlen.o)
    0x080002aa   0x0000001c   Code   RO         3054    .text               mc_w.l(strcmp.o)
    0x080002c6   0x00000012   Code   RO         3056    .text               mc_w.l(strcpy.o)
    0x080002d8   0x0000001e   Code   RO         3058    .text               mc_w.l(strncmp.o)
    0x080002f6   0x00000002   PAD
    0x080002f8   0x00000338   Code   RO         3325    .text               mc_w.l(scanf_fp.o)
    0x08000630   0x0000001a   Code   RO         3329    .text               mc_w.l(atoi.o)
    0x0800064a   0x000000e4   Code   RO         3333    .text               mf_w.l(dmul.o)
    0x0800072e   0x0000003e   Code   RO         3337    .text               mf_w.l(dfixi.o)
    0x0800076c   0x00000030   Code   RO         3341    .text               mf_w.l(cdcmple.o)
    0x0800079c   0x00000030   Code   RO         3343    .text               mf_w.l(cdrcmple.o)
    0x080007cc   0x0000002c   Code   RO         3360    .text               mc_w.l(uidiv.o)
    0x080007f8   0x00000062   Code   RO         3362    .text               mc_w.l(uldiv.o)
    0x0800085a   0x00000020   Code   RO         3364    .text               mc_w.l(llushr.o)
    0x0800087a   0x00000040   Code   RO         3375    .text               mc_w.l(_sgetc.o)
    0x080008ba   0x00000002   PAD
    0x080008bc   0x0000009c   Code   RO         3377    .text               mc_w.l(strtod.o)
    0x08000958   0x00000070   Code   RO         3379    .text               mc_w.l(strtol.o)
    0x080009c8   0x00000000   Code   RO         3381    .text               mc_w.l(iusefp.o)
    0x080009c8   0x000000ba   Code   RO         3382    .text               mf_w.l(depilogue.o)
    0x08000a82   0x0000014e   Code   RO         3384    .text               mf_w.l(dadd.o)
    0x08000bd0   0x000000de   Code   RO         3386    .text               mf_w.l(ddiv.o)
    0x08000cae   0x00000018   Code   RO         3388    .text               mf_w.l(dfltul.o)
    0x08000cc6   0x00000030   Code   RO         3390    .text               mf_w.l(dfixul.o)
    0x08000cf6   0x00000038   Code   RO         3392    .text               mf_w.l(d2f.o)
    0x08000d2e   0x00000002   PAD
    0x08000d30   0x00000024   Code   RO         3394    .text               mc_w.l(init.o)
    0x08000d54   0x0000001e   Code   RO         3396    .text               mc_w.l(llshl.o)
    0x08000d72   0x00000024   Code   RO         3398    .text               mc_w.l(llsshr.o)
    0x08000d96   0x00000002   PAD
    0x08000d98   0x00000008   Code   RO         3402    .text               mc_w.l(ctype_o.o)
    0x08000da0   0x00000012   Code   RO         3424    .text               mc_w.l(isspace_o.o)
    0x08000db2   0x0000009e   Code   RO         3432    .text               mc_w.l(_strtoul.o)
    0x08000e50   0x0000006e   Code   RO         3434    .text               mf_w.l(fepilogue.o)
    0x08000ebe   0x0000001c   Code   RO         3439    .text               mc_w.l(_chval.o)
    0x08000eda   0x00000002   PAD
    0x08000edc   0x0000001c   Code   RO         1454    i.BSP_Init          bsp.o
    0x08000ef8   0x00000004   Code   RO          144    i.BusFault_Handler  stm32f10x_it.o
    0x08000efc   0x00000002   Code   RO          145    i.DebugMon_Handler  stm32f10x_it.o
    0x08000efe   0x00000116   Code   RO          939    i.GPIO_Init         stm32f10x_gpio.o
    0x08001014   0x00000004   Code   RO          946    i.GPIO_ResetBits    stm32f10x_gpio.o
    0x08001018   0x00000004   Code   RO          947    i.GPIO_SetBits      stm32f10x_gpio.o
    0x0800101c   0x00000004   Code   RO          146    i.HardFault_Handler  stm32f10x_it.o
    0x08001020   0x00000038   Code   RO         1486    i.LED_GPIO_Config   led.o
    0x08001058   0x00000004   Code   RO          147    i.MemManage_Handler  stm32f10x_it.o
    0x0800105c   0x00000002   Code   RO          148    i.NMI_Handler       stm32f10x_it.o
    0x0800105e   0x00000022   Code   RO          300    i.NVIC_Configuration  user_usart2.o
    0x08001080   0x00000022   Code   RO          320    i.NVIC_Configuration  user_usart3.o
    0x080010a2   0x00000002   PAD
    0x080010a4   0x00000070   Code   RO          704    i.NVIC_Init         misc.o
    0x08001114   0x00000028   Code   RO         1537    i.OSInit            os_core.o
    0x0800113c   0x00000002   Code   RO         2048    i.OSInitHookBegin   os_cpu_c.o
    0x0800113e   0x00000002   Code   RO         2049    i.OSInitHookEnd     os_cpu_c.o
    0x08001140   0x00000024   Code   RO         1538    i.OSIntEnter        os_core.o
    0x08001164   0x00000090   Code   RO         1539    i.OSIntExit         os_core.o
    0x080011f4   0x000000b0   Code   RO         1753    i.OSMutexCreate     os_mutex.o
    0x080012a4   0x00000240   Code   RO         1755    i.OSMutexPend       os_mutex.o
    0x080014e4   0x000000d0   Code   RO         1756    i.OSMutexPost       os_mutex.o
    0x080015b4   0x0000007c   Code   RO         1758    i.OSMutex_RdyAtPrio  os_mutex.o
    0x08001630   0x000000a4   Code   RO         1800    i.OSQCreate         os_q.o
    0x080016d4   0x00000134   Code   RO         1803    i.OSQPend           os_q.o
    0x08001808   0x00000078   Code   RO         1805    i.OSQPost           os_q.o
    0x08001880   0x00000070   Code   RO         1808    i.OSQQuery          os_q.o
    0x080018f0   0x00000048   Code   RO         1542    i.OSStart           os_core.o
    0x08001938   0x00000002   Code   RO         2050    i.OSTCBInitHook     os_cpu_c.o
    0x0800193a   0x00000002   PAD
    0x0800193c   0x000000ac   Code   RO         1926    i.OSTaskCreate      os_task.o
    0x080019e8   0x000000c0   Code   RO         1927    i.OSTaskCreateExt   os_task.o
    0x08001aa8   0x00000002   Code   RO         2051    i.OSTaskCreateHook  os_cpu_c.o
    0x08001aaa   0x00000002   Code   RO         2053    i.OSTaskIdleHook    os_cpu_c.o
    0x08001aac   0x000000ac   Code   RO         1931    i.OSTaskNameSet     os_task.o
    0x08001b58   0x00000002   Code   RO         2054    i.OSTaskStatHook    os_cpu_c.o
    0x08001b5a   0x00000002   PAD
    0x08001b5c   0x000000a0   Code   RO         1934    i.OSTaskStkChk      os_task.o
    0x08001bfc   0x0000009a   Code   RO         2055    i.OSTaskStkInit     os_cpu_c.o
    0x08001c96   0x00000002   PAD
    0x08001c98   0x000000bc   Code   RO         1935    i.OSTaskSuspend     os_task.o
    0x08001d54   0x00000002   Code   RO         2056    i.OSTaskSwHook      os_cpu_c.o
    0x08001d56   0x00000002   PAD
    0x08001d58   0x00000070   Code   RO         2003    i.OSTimeDly         os_time.o
    0x08001dc8   0x000000a4   Code   RO         2004    i.OSTimeDlyHMSM     os_time.o
    0x08001e6c   0x0000001c   Code   RO         2006    i.OSTimeGet         os_time.o
    0x08001e88   0x000000ec   Code   RO         1544    i.OSTimeTick        os_core.o
    0x08001f74   0x00000002   Code   RO         2057    i.OSTimeTickHook    os_cpu_c.o
    0x08001f76   0x00000002   PAD
    0x08001f78   0x00000084   Code   RO         1547    i.OS_EventTaskRdy   os_core.o
    0x08001ffc   0x0000002a   Code   RO         1548    i.OS_EventTaskRemove  os_core.o
    0x08002026   0x00000002   PAD
    0x08002028   0x0000007c   Code   RO         1549    i.OS_EventTaskWait  os_core.o
    0x080020a4   0x0000001c   Code   RO         1550    i.OS_EventWaitListInit  os_core.o
    0x080020c0   0x00000050   Code   RO         1551    i.OS_InitEventList  os_core.o
    0x08002110   0x00000054   Code   RO         1552    i.OS_InitMisc       os_core.o
    0x08002164   0x00000048   Code   RO         1553    i.OS_InitRdyList    os_core.o
    0x080021ac   0x00000068   Code   RO         1554    i.OS_InitTCBList    os_core.o
    0x08002214   0x00000050   Code   RO         1555    i.OS_InitTaskIdle   os_core.o
    0x08002264   0x00000050   Code   RO         1556    i.OS_InitTaskStat   os_core.o
    0x080022b4   0x00000012   Code   RO         1557    i.OS_MemClr         os_core.o
    0x080022c6   0x00000002   PAD
    0x080022c8   0x00000038   Code   RO         1809    i.OS_QInit          os_q.o
    0x08002300   0x00000074   Code   RO         1559    i.OS_Sched          os_core.o
    0x08002374   0x0000002c   Code   RO         1560    i.OS_SchedNew       os_core.o
    0x080023a0   0x0000001c   Code   RO         1561    i.OS_StrCopy        os_core.o
    0x080023bc   0x00000014   Code   RO         1562    i.OS_StrLen         os_core.o
    0x080023d0   0x0000011c   Code   RO         1563    i.OS_TCBInit        os_core.o
    0x080024ec   0x00000024   Code   RO         1564    i.OS_TaskIdle       os_core.o
    0x08002510   0x00000088   Code   RO         1565    i.OS_TaskStat       os_core.o
    0x08002598   0x0000003c   Code   RO         1566    i.OS_TaskStatStkChk  os_core.o
    0x080025d4   0x0000001a   Code   RO         1936    i.OS_TaskStkClr     os_task.o
    0x080025ee   0x00000002   PAD
    0x080025f0   0x00000020   Code   RO         1212    i.RCC_APB1PeriphClockCmd  stm32f10x_rcc.o
    0x08002610   0x00000020   Code   RO         1214    i.RCC_APB2PeriphClockCmd  stm32f10x_rcc.o
    0x08002630   0x000000d4   Code   RO         1222    i.RCC_GetClocksFreq  stm32f10x_rcc.o
    0x08002704   0x00000002   Code   RO          150    i.SVC_Handler       stm32f10x_it.o
    0x08002706   0x00000008   Code   RO         1420    i.SetSysClock       system_stm32f10x.o
    0x0800270e   0x00000002   PAD
    0x08002710   0x000000e4   Code   RO         1421    i.SetSysClockTo72   system_stm32f10x.o
    0x080027f4   0x00000010   Code   RO          151    i.SysTick_Handler   stm32f10x_it.o
    0x08002804   0x00000060   Code   RO         1455    i.SysTick_init      bsp.o
    0x08002864   0x00000050   Code   RO         1422    i.SystemInit        system_stm32f10x.o
    0x080028b4   0x00000560   Code   RO         1501    i.Task_Start        app.o
    0x08002e14   0x00000040   Code   RO          152    i.USART1_IRQHandler  stm32f10x_it.o
    0x08002e54   0x00000050   Code   RO          153    i.USART2_IRQHandler  stm32f10x_it.o
    0x08002ea4   0x00000014   Code   RO         1043    i.USART_ClearITPendingBit  stm32f10x_usart.o
    0x08002eb8   0x00000018   Code   RO         1046    i.USART_Cmd         stm32f10x_usart.o
    0x08002ed0   0x00000012   Code   RO         1049    i.USART_GetFlagStatus  stm32f10x_usart.o
    0x08002ee2   0x0000004c   Code   RO         1050    i.USART_GetITStatus  stm32f10x_usart.o
    0x08002f2e   0x00000040   Code   RO         1052    i.USART_ITConfig    stm32f10x_usart.o
    0x08002f6e   0x00000002   PAD
    0x08002f70   0x0000009c   Code   RO         1053    i.USART_Init        stm32f10x_usart.o
    0x0800300c   0x0000000a   Code   RO         1058    i.USART_ReceiveData  stm32f10x_usart.o
    0x08003016   0x00000008   Code   RO         1061    i.USART_SendData    stm32f10x_usart.o
    0x0800301e   0x00000004   Code   RO          154    i.UsageFault_Handler  stm32f10x_it.o
    0x08003022   0x0000002c   Code   RO          250    i.Usart_SendBytes   user_usart.o
    0x0800304e   0x0000001e   Code   RO          251    i.Usart_SendOneByte  user_usart.o
    0x0800306c   0x00000020   Code   RO         3295    i.__0printf         mc_w.l(printfa.o)
    0x0800308c   0x00000028   Code   RO         3297    i.__0sprintf        mc_w.l(printfa.o)
    0x080030b4   0x00000008   Code   RO         3366    i.__aeabi_errno_addr  mc_w.l(errno.o)
    0x080030bc   0x0000000e   Code   RO         3443    i.__scatterload_copy  mc_w.l(handlers.o)
    0x080030ca   0x00000002   Code   RO         3444    i.__scatterload_null  mc_w.l(handlers.o)
    0x080030cc   0x0000000e   Code   RO         3445    i.__scatterload_zeroinit  mc_w.l(handlers.o)
    0x080030da   0x00000002   PAD
    0x080030dc   0x00000184   Code   RO         3302    i._fp_digits        mc_w.l(printfa.o)
    0x08003260   0x0000000e   Code   RO         3327    i._is_digit         mc_w.l(scanf_fp.o)
    0x0800326e   0x00000002   PAD
    0x08003270   0x000006dc   Code   RO         3303    i._printf_core      mc_w.l(printfa.o)
    0x0800394c   0x00000024   Code   RO         3304    i._printf_post_padding  mc_w.l(printfa.o)
    0x08003970   0x0000002e   Code   RO         3305    i._printf_pre_padding  mc_w.l(printfa.o)
    0x0800399e   0x0000000a   Code   RO         3307    i._sputc            mc_w.l(printfa.o)
    0x080039a8   0x0000003a   Code   RO         2501    i.buffer_skip_whitespace  cjson.o
    0x080039e2   0x00000002   PAD
    0x080039e4   0x00000058   Code   RO         2521    i.cJSON_Delete      cjson.o
    0x08003a3c   0x00000012   Code   RO         2533    i.cJSON_GetObjectItem  cjson.o
    0x08003a4e   0x00000002   PAD
    0x08003a50   0x00000064   Code   RO         2536    i.cJSON_InitHooks   cjson.o
    0x08003ab4   0x0000001a   Code   RO         2549    i.cJSON_New_Item    cjson.o
    0x08003ace   0x00000010   Code   RO         2550    i.cJSON_Parse       cjson.o
    0x08003ade   0x00000002   PAD
    0x08003ae0   0x000000d4   Code   RO         2551    i.cJSON_ParseWithOpts  cjson.o
    0x08003bb4   0x00000048   Code   RO         2565    i.case_insensitive_strcmp  cjson.o
    0x08003bfc   0x00000704   Code   RO          340    i.device_activate_event  sim7600.o
    0x08004300   0x000006c4   Code   RO          341    i.device_get_token_event  sim7600.o
    0x080049c4   0x00000760   Code   RO          342    i.device_ota_check_event  sim7600.o
    0x08005124   0x0000001a   Code   RO          343    i.empty_rx_buff     sim7600.o
    0x0800513e   0x00000002   PAD
    0x08005140   0x00000024   Code   RO          272    i.fputc             user_usart1.o
    0x08005164   0x00000014   Code   RO          344    i.generate_http_session_id  sim7600.o
    0x08005178   0x00000004   Code   RO         2569    i.get_decimal_point  cjson.o
    0x0800517c   0x0000000c   Code   RO          345    i.get_http_session_id  sim7600.o
    0x08005188   0x00000044   Code   RO         2570    i.get_object_item   cjson.o
    0x080051cc   0x00000036   Code   RO         1503    i.is_queue_empty    app.o
    0x08005202   0x0000003c   Code   RO         1504    i.is_queue_full     app.o
    0x0800523e   0x00000002   PAD
    0x08005240   0x0000002c   Code   RO           11    i.main              main.o
    0x0800526c   0x0000006c   Code   RO         2130    i.mem_free          malloc.o
    0x080052d8   0x00000030   Code   RO         2131    i.mem_free_size     malloc.o
    0x08005308   0x00000044   Code   RO         2132    i.mem_init          malloc.o
    0x0800534c   0x000000b0   Code   RO         2133    i.mem_malloc        malloc.o
    0x080053fc   0x00000034   Code   RO         2134    i.mem_perused       malloc.o
    0x08005430   0x00000420   Code   RO          347    i.mqtt_init_event   sim7600.o
    0x08005850   0x00000020   Code   RO         2135    i.myfree            malloc.o
    0x08005870   0x00000024   Code   RO         2136    i.mymalloc          malloc.o
    0x08005894   0x0000001a   Code   RO         2137    i.mymemcpy          malloc.o
    0x080058ae   0x00000014   Code   RO         2138    i.mymemset          malloc.o
    0x080058c2   0x00000002   PAD
    0x080058c4   0x00000038   Code   RO         2139    i.myrealloc         malloc.o
    0x080058fc   0x000000f4   Code   RO         2571    i.parse_array       cjson.o
    0x080059f0   0x0000005a   Code   RO         2572    i.parse_hex4        cjson.o
    0x08005a4a   0x00000002   PAD
    0x08005a4c   0x00000138   Code   RO         2573    i.parse_number      cjson.o
    0x08005b84   0x0000013a   Code   RO         2574    i.parse_object      cjson.o
    0x08005cbe   0x00000002   PAD
    0x08005cc0   0x00000cf0   Code   RO          348    i.parse_sim7600_cmd_result  sim7600.o
    0x080069b0   0x0000018c   Code   RO         2575    i.parse_string      cjson.o
    0x08006b3c   0x0000013c   Code   RO         2576    i.parse_value       cjson.o
    0x08006c78   0x0000000e   Code   RO         2393    i.rbClear           ringbuffer.o
    0x08006c86   0x00000012   Code   RO         2395    i.rbInitialize      ringbuffer.o
    0x08006c98   0x00000012   Code   RO         2396    i.rbIsEmpty         ringbuffer.o
    0x08006caa   0x0000002a   Code   RO         2398    i.rbPop             ringbuffer.o
    0x08006cd4   0x00000024   Code   RO         2399    i.rbPush            ringbuffer.o
    0x08006cf8   0x0000000c   Code   RO          349    i.save_http_session_id  sim7600.o
    0x08006d04   0x00000050   Code   RO          352    i.sim7600_disnable_command_echo  sim7600.o
    0x08006d54   0x00000210   Code   RO          353    i.sim7600_event_scan  sim7600.o
    0x08006f64   0x00000254   Code   RO          354    i.sim7600_fogcloud_init_and_monitor_task  sim7600.o
    0x080071b8   0x00000054   Code   RO          355    i.sim7600_get_ccid  sim7600.o
    0x0800720c   0x000002fc   Code   RO          356    i.sim7600_get_mqtt_message  sim7600.o
    0x08007508   0x00000068   Code   RO          357    i.sim7600_http_close  sim7600.o
    0x08007570   0x0000089c   Code   RO          358    i.sim7600_http_loop  sim7600.o
    0x08007e0c   0x000000b4   Code   RO          359    i.sim7600_mqtt_close  sim7600.o
    0x08007ec0   0x00000160   Code   RO          360    i.sim7600_mqtt_loop  sim7600.o
    0x08008020   0x00000158   Code   RO          361    i.sim7600_power_restart  sim7600.o
    0x08008178   0x000000d4   Code   RO          362    i.sim7600_powerkey_off  sim7600.o
    0x0800824c   0x000000d4   Code   RO          363    i.sim7600_powerkey_on  sim7600.o
    0x08008320   0x00000038   Code   RO          364    i.sim7600_powerkey_pin_init  sim7600.o
    0x08008358   0x0000075c   Code   RO          367    i.sim7600_send_data  sim7600.o
    0x08008ab4   0x00000134   Code   RO          603    i.sim7600_task      user_sim7600_task.o
    0x08008be8   0x00000008   Code   RO          604    i.sim7600_usart_begin  user_sim7600_task.o
    0x08008bf0   0x0000001c   Code   RO          605    i.sim7600_usart_rb_initialize  user_sim7600_task.o
    0x08008c0c   0x0000001c   Code   RO          606    i.sim7600_usart_read  user_sim7600_task.o
    0x08008c28   0x00000024   Code   RO          607    i.sim7600_usart_recv_available  user_sim7600_task.o
    0x08008c4c   0x00000020   Code   RO          608    i.sim7600_usart_recv_handler  user_sim7600_task.o
    0x08008c6c   0x000002ac   Code   RO          369    i.sim7600_wait_response  sim7600.o
    0x08008f18   0x0000003c   Code   RO         2585    i.skip_utf8_bom     cjson.o
    0x08008f54   0x0000009c   Code   RO          370    i.string_get_int    sim7600.o
    0x08008ff0   0x0000001c   Code   RO         3034    i.strtod            m_ws.l(strtod.o)
    0x0800900c   0x00000018   Code   RO          610    i.uart_sim7600_sendbytes  user_sim7600_task.o
    0x08009024   0x000003b4   Code   RO          373    i.upload_data_event  sim7600.o
    0x080093d8   0x0000008c   Code   RO          301    i.usart2_config     user_usart2.o
    0x08009464   0x00000090   Code   RO          321    i.usart3_config     user_usart3.o
    0x080094f4   0x000000c0   Code   RO          586    i.user_mqtt_task    user_mqtt_task.o
    0x080095b4   0x00000104   Code   RO          688    i.user_upload_data_task  user_upload_data.o
    0x080096b8   0x0000012c   Code   RO         2588    i.utf16_literal_to_utf8  cjson.o
    0x080097e4   0x00000014   Code   RO          375    i.wifi_led_off      sim7600.o
    0x080097f8   0x00000014   Code   RO          376    i.wifi_led_on       sim7600.o
    0x0800980c   0x00000014   Data   RO         1423    .constdata          system_stm32f10x.o
    0x08009820   0x00000100   Data   RO         1568    .constdata          os_core.o
    0x08009920   0x0000000c   Data   RO         2141    .constdata          malloc.o
    0x0800992c   0x00000081   Data   RO         3403    .constdata          mc_w.l(ctype_o.o)
    0x080099ad   0x00000003   PAD
    0x080099b0   0x00000004   Data   RO         3404    .constdata          mc_w.l(ctype_o.o)
    0x080099b4   0x000000e3   Data   RO          378    .conststring        sim7600.o
    0x08009a97   0x00000001   PAD
    0x08009a98   0x00000020   Data   RO         3441    Region$$Table       anon$$obj.o


    Execution Region RW_IRAM1 (Base: 0x20000000, Size: 0x00004dd8, Max: 0x00005000, ABSOLUTE)

    Base Addr    Size         Type   Attr      Idx    E Section Name        Object

    0x20000000   0x00000004   Data   RW           13    .data               main.o
    0x20000004   0x0000002c   Data   RW          379    .data               sim7600.o
    0x20000030   0x00000002   Data   RW          612    .data               user_sim7600_task.o
    0x20000032   0x00000014   Data   RW         1242    .data               stm32f10x_rcc.o
    0x20000046   0x00000002   PAD
    0x20000048   0x00000028   Data   RW         1506    .data               app.o
    0x20000070   0x00000040   Data   RW         1569    .data               os_core.o
    0x200000b0   0x00000014   Data   RW         2142    .data               malloc.o
    0x200000c4   0x00000014   Data   RW         2590    .data               cjson.o
    0x200000d8   0x00000004   Data   RW         3359    .data               mc_w.l(stdout.o)
    0x200000dc   0x00000004   Data   RW         3369    .data               mc_w.l(errno.o)
    0x200000e0   0x00000140   Zero   RW           12    .bss                main.o
    0x20000220   0x000001d0   Zero   RW          377    .bss                sim7600.o
    0x200003f0   0x00000214   Zero   RW          611    .bss                user_sim7600_task.o
    0x20000604   0x00000f1c   Zero   RW         1505    .bss                app.o
    0x20001520   0x00000c38   Zero   RW         1567    .bss                os_core.o
    0x20002158   0x00002a80   Zero   RW         2140    .bss                malloc.o
    0x20004bd8   0x00000200   Zero   RW            1    STACK               startup_stm32f10x_hd.o


==============================================================================

Image component sizes


      Code (inc. data)   RO Data    RW Data    ZI Data      Debug   Object Name

      1490        708          0         40       3868       3969   app.o
       124         18          0          0          0       5330   bsp.o
      2694         84          0         20          0      17099   cjson.o
        56          6          0          0          0        486   led.o
        44          8          0          4        320     237848   main.o
       622         72         12         20      10880       7383   malloc.o
       112         12          0          0          0        968   misc.o
      2096        380        256         64       3128      22626   os_core.o
       164         32          0          0          0        332   os_cpu_a.o
       170          0          0          0          0      13830   os_cpu_c.o
      1084         68          0          0          0       3912   os_mutex.o
       760         38          0          0          0       4318   os_q.o
       910         64          0          0          0       5612   os_task.o
       304         24          0          0          0       2036   os_time.o
       128          0          0          0          0       3438   ringbuffer.o
     19282       6918        227         44        464      36845   sim7600.o
        48         12        304          0        512        876   startup_stm32f10x_hd.o
       286          0          0          0          0       2784   stm32f10x_gpio.o
       182         14          0          0          0       4461   stm32f10x_it.o
       276         32          0         20          0       4354   stm32f10x_rcc.o
       376          6          0          0          0       6483   stm32f10x_usart.o
       316         20         20          0          0       2341   system_stm32f10x.o
       192         80          0          0          0        653   user_mqtt_task.o
       464        110          0          2        532      12881   user_sim7600_task.o
       260        116          0          0          0        696   user_upload_data.o
        74          0          0          0          0       1686   user_usart.o
        36          4          0          0          0       2240   user_usart1.o
       174          6          0          0          0       1692   user_usart2.o
       178          6          0          0          0       1692   user_usart3.o

    ----------------------------------------------------------------------
     32940       8838        852        216      19704     408871   Object Totals
         0          0         32          0          0          0   (incl. Generated)
        38          0          1          2          0          0   (incl. Padding)

    ----------------------------------------------------------------------

      Code (inc. data)   RO Data    RW Data    ZI Data      Debug   Library Member Name

        28          0          0          0          0         80   strtod.o
        28          0          0          0          0         68   _chval.o
        64          0          0          0          0         84   _sgetc.o
       158          0          0          0          0         92   _strtoul.o
        26          0          0          0          0         80   atoi.o
         8          4        133          0          0         68   ctype_o.o
         0          0          0          0          0          0   entry.o
         0          0          0          0          0          0   entry10a.o
         0          0          0          0          0          0   entry11a.o
         8          4          0          0          0          0   entry2.o
         4          0          0          0          0          0   entry5.o
         0          0          0          0          0          0   entry7b.o
         0          0          0          0          0          0   entry8b.o
         8          4          0          0          0          0   entry9a.o
         8          4          0          4          0         68   errno.o
        30          0          0          0          0          0   handlers.o
        36          8          0          0          0         68   init.o
        18          0          0          0          0         76   isspace_o.o
         0          0          0          0          0          0   iusefp.o
        30          0          0          0          0         68   llshl.o
        36          0          0          0          0         68   llsshr.o
        32          0          0          0          0         68   llushr.o
        36          0          0          0          0        108   memseta.o
      2308         96          0          0          0        604   printfa.o
       838         12          0          0          0        216   scanf_fp.o
         0          0          0          4          0          0   stdout.o
        24          0          0          0          0         68   strcat.o
        28          0          0          0          0         76   strcmp.o
        18          0          0          0          0         68   strcpy.o
        14          0          0          0          0         68   strlen.o
        30          0          0          0          0         80   strncmp.o
        24          0          0          0          0         76   strncpy.o
        36          0          0          0          0         80   strstr.o
       156         12          0          0          0        120   strtod.o
       112          0          0          0          0         88   strtol.o
        12          0          0          0          0         68   tolower.o
        44          0          0          0          0         80   uidiv.o
        98          0          0          0          0         92   uldiv.o
        48          0          0          0          0         68   cdcmple.o
        48          0          0          0          0         68   cdrcmple.o
        56          0          0          0          0         88   d2f.o
       334          0          0          0          0        148   dadd.o
       222          0          0          0          0        100   ddiv.o
       186          0          0          0          0        176   depilogue.o
        62          0          0          0          0         80   dfixi.o
        48          0          0          0          0         68   dfixul.o
        24          0          0          0          0         76   dfltul.o
       228          0          0          0          0         96   dmul.o
       110          0          0          0          0        168   fepilogue.o

    ----------------------------------------------------------------------
      5680        144        136          8          0       3916   Library Totals
        14          0          3          0          0          0   (incl. Padding)

    ----------------------------------------------------------------------

      Code (inc. data)   RO Data    RW Data    ZI Data      Debug   Library Name

        28          0          0          0          0         80   m_ws.l
      4272        144        133          8          0       2700   mc_w.l
      1366          0          0          0          0       1136   mf_w.l

    ----------------------------------------------------------------------
      5680        144        136          8          0       3916   Library Totals

    ----------------------------------------------------------------------

==============================================================================


      Code (inc. data)   RO Data    RW Data    ZI Data      Debug   

     38620       8982        988        224      19704     402539   Grand Totals
     38620       8982        988        224      19704     402539   ELF Image Totals
     38620       8982        988        224          0          0   ROM Totals

==============================================================================

    Total RO  Size (Code + RO Data)                39608 (  38.68kB)
    Total RW  Size (RW Data + ZI Data)             19928 (  19.46kB)
    Total ROM Size (Code + RO Data + RW Data)      39832 (  38.90kB)

==============================================================================

